
bluePill_DCF77_BP.elf:     file format elf32-littlearm

Sections:
Idx Name          Size      VMA       LMA       File off  Algn
  0 .isr_vector   0000010c  08000000  08000000  00001000  2**0
                  CONTENTS, ALLOC, LOAD, READONLY, DATA
  1 .text         00004dd0  08000110  08000110  00001110  2**3
                  CONTENTS, ALLOC, LOAD, READONLY, CODE
  2 .rodata       00000200  08004ee0  08004ee0  00005ee0  2**3
                  CONTENTS, ALLOC, LOAD, READONLY, DATA
  3 .ARM.extab    00000000  080050e0  080050e0  00007070  2**0
                  CONTENTS
  4 .ARM          00000000  080050e0  080050e0  00007070  2**0
                  CONTENTS
  5 .preinit_array 00000000  080050e0  080050e0  00007070  2**0
                  CONTENTS, ALLOC, LOAD, DATA
  6 .init_array   00000004  080050e0  080050e0  000060e0  2**2
                  CONTENTS, ALLOC, LOAD, READONLY, DATA
  7 .fini_array   00000004  080050e4  080050e4  000060e4  2**2
                  CONTENTS, ALLOC, LOAD, READONLY, DATA
  8 .data         00000070  20000000  080050e8  00007000  2**3
                  CONTENTS, ALLOC, LOAD, DATA
  9 .bss          000005dc  20000070  08005158  00007070  2**2
                  ALLOC
 10 ._user_heap_stack 00000604  2000064c  08005158  0000764c  2**0
                  ALLOC
 11 .ARM.attributes 00000029  00000000  00000000  00007070  2**0
                  CONTENTS, READONLY
 12 .debug_info   000097ef  00000000  00000000  00007099  2**0
                  CONTENTS, READONLY, DEBUGGING, OCTETS
 13 .debug_abbrev 00001c12  00000000  00000000  00010888  2**0
                  CONTENTS, READONLY, DEBUGGING, OCTETS
 14 .debug_aranges 00000af8  00000000  00000000  000124a0  2**3
                  CONTENTS, READONLY, DEBUGGING, OCTETS
 15 .debug_rnglists 0000087a  00000000  00000000  00012f98  2**0
                  CONTENTS, READONLY, DEBUGGING, OCTETS
 16 .debug_macro  00017bca  00000000  00000000  00013812  2**0
                  CONTENTS, READONLY, DEBUGGING, OCTETS
 17 .debug_line   0000c5fd  00000000  00000000  0002b3dc  2**0
                  CONTENTS, READONLY, DEBUGGING, OCTETS
 18 .debug_str    0008cbee  00000000  00000000  000379d9  2**0
                  CONTENTS, READONLY, DEBUGGING, OCTETS
 19 .comment      00000043  00000000  00000000  000c45c7  2**0
                  CONTENTS, READONLY
 20 .debug_frame  00003348  00000000  00000000  000c460c  2**2
                  CONTENTS, READONLY, DEBUGGING, OCTETS
 21 .debug_line_str 00000076  00000000  00000000  000c7954  2**0
                  CONTENTS, READONLY, DEBUGGING, OCTETS

Disassembly of section .text:

08000110 <__do_global_dtors_aux>:
 8000110:	b510      	push	{r4, lr}
 8000112:	4c05      	ldr	r4, [pc, #20]	@ (8000128 <__do_global_dtors_aux+0x18>)
 8000114:	7823      	ldrb	r3, [r4, #0]
 8000116:	b933      	cbnz	r3, 8000126 <__do_global_dtors_aux+0x16>
 8000118:	4b04      	ldr	r3, [pc, #16]	@ (800012c <__do_global_dtors_aux+0x1c>)
 800011a:	b113      	cbz	r3, 8000122 <__do_global_dtors_aux+0x12>
 800011c:	4804      	ldr	r0, [pc, #16]	@ (8000130 <__do_global_dtors_aux+0x20>)
 800011e:	f3af 8000 	nop.w
 8000122:	2301      	movs	r3, #1
 8000124:	7023      	strb	r3, [r4, #0]
 8000126:	bd10      	pop	{r4, pc}
 8000128:	20000070 	.word	0x20000070
 800012c:	00000000 	.word	0x00000000
 8000130:	08004ec8 	.word	0x08004ec8

08000134 <frame_dummy>:
 8000134:	b508      	push	{r3, lr}
 8000136:	4b03      	ldr	r3, [pc, #12]	@ (8000144 <frame_dummy+0x10>)
 8000138:	b11b      	cbz	r3, 8000142 <frame_dummy+0xe>
 800013a:	4903      	ldr	r1, [pc, #12]	@ (8000148 <frame_dummy+0x14>)
 800013c:	4803      	ldr	r0, [pc, #12]	@ (800014c <frame_dummy+0x18>)
 800013e:	f3af 8000 	nop.w
 8000142:	bd08      	pop	{r3, pc}
 8000144:	00000000 	.word	0x00000000
 8000148:	20000074 	.word	0x20000074
 800014c:	08004ec8 	.word	0x08004ec8

08000150 <__aeabi_fmul>:
 8000150:	f04f 0cff 	mov.w	ip, #255	@ 0xff
 8000154:	ea1c 52d0 	ands.w	r2, ip, r0, lsr #23
 8000158:	bf1e      	ittt	ne
 800015a:	ea1c 53d1 	andsne.w	r3, ip, r1, lsr #23
 800015e:	ea92 0f0c 	teqne	r2, ip
 8000162:	ea93 0f0c 	teqne	r3, ip
 8000166:	d06f      	beq.n	8000248 <__aeabi_fmul+0xf8>
 8000168:	441a      	add	r2, r3
 800016a:	ea80 0c01 	eor.w	ip, r0, r1
 800016e:	0240      	lsls	r0, r0, #9
 8000170:	bf18      	it	ne
 8000172:	ea5f 2141 	movsne.w	r1, r1, lsl #9
 8000176:	d01e      	beq.n	80001b6 <__aeabi_fmul+0x66>
 8000178:	f04f 6300 	mov.w	r3, #134217728	@ 0x8000000
 800017c:	ea43 1050 	orr.w	r0, r3, r0, lsr #5
 8000180:	ea43 1151 	orr.w	r1, r3, r1, lsr #5
 8000184:	fba0 3101 	umull	r3, r1, r0, r1
 8000188:	f00c 4000 	and.w	r0, ip, #2147483648	@ 0x80000000
 800018c:	f5b1 0f00 	cmp.w	r1, #8388608	@ 0x800000
 8000190:	bf3e      	ittt	cc
 8000192:	0049      	lslcc	r1, r1, #1
 8000194:	ea41 71d3 	orrcc.w	r1, r1, r3, lsr #31
 8000198:	005b      	lslcc	r3, r3, #1
 800019a:	ea40 0001 	orr.w	r0, r0, r1
 800019e:	f162 027f 	sbc.w	r2, r2, #127	@ 0x7f
 80001a2:	2afd      	cmp	r2, #253	@ 0xfd
 80001a4:	d81d      	bhi.n	80001e2 <__aeabi_fmul+0x92>
 80001a6:	f1b3 4f00 	cmp.w	r3, #2147483648	@ 0x80000000
 80001aa:	eb40 50c2 	adc.w	r0, r0, r2, lsl #23
 80001ae:	bf08      	it	eq
 80001b0:	f020 0001 	biceq.w	r0, r0, #1
 80001b4:	4770      	bx	lr
 80001b6:	f090 0f00 	teq	r0, #0
 80001ba:	f00c 4c00 	and.w	ip, ip, #2147483648	@ 0x80000000
 80001be:	bf08      	it	eq
 80001c0:	0249      	lsleq	r1, r1, #9
 80001c2:	ea4c 2050 	orr.w	r0, ip, r0, lsr #9
 80001c6:	ea40 2051 	orr.w	r0, r0, r1, lsr #9
 80001ca:	3a7f      	subs	r2, #127	@ 0x7f
 80001cc:	bfc2      	ittt	gt
 80001ce:	f1d2 03ff 	rsbsgt	r3, r2, #255	@ 0xff
 80001d2:	ea40 50c2 	orrgt.w	r0, r0, r2, lsl #23
 80001d6:	4770      	bxgt	lr
 80001d8:	f440 0000 	orr.w	r0, r0, #8388608	@ 0x800000
 80001dc:	f04f 0300 	mov.w	r3, #0
 80001e0:	3a01      	subs	r2, #1
 80001e2:	dc5d      	bgt.n	80002a0 <__aeabi_fmul+0x150>
 80001e4:	f112 0f19 	cmn.w	r2, #25
 80001e8:	bfdc      	itt	le
 80001ea:	f000 4000 	andle.w	r0, r0, #2147483648	@ 0x80000000
 80001ee:	4770      	bxle	lr
 80001f0:	f1c2 0200 	rsb	r2, r2, #0
 80001f4:	0041      	lsls	r1, r0, #1
 80001f6:	fa21 f102 	lsr.w	r1, r1, r2
 80001fa:	f1c2 0220 	rsb	r2, r2, #32
 80001fe:	fa00 fc02 	lsl.w	ip, r0, r2
 8000202:	ea5f 0031 	movs.w	r0, r1, rrx
 8000206:	f140 0000 	adc.w	r0, r0, #0
 800020a:	ea53 034c 	orrs.w	r3, r3, ip, lsl #1
 800020e:	bf08      	it	eq
 8000210:	ea20 70dc 	biceq.w	r0, r0, ip, lsr #31
 8000214:	4770      	bx	lr
 8000216:	f092 0f00 	teq	r2, #0
 800021a:	f000 4c00 	and.w	ip, r0, #2147483648	@ 0x80000000
 800021e:	bf02      	ittt	eq
 8000220:	0040      	lsleq	r0, r0, #1
 8000222:	f410 0f00 	tsteq.w	r0, #8388608	@ 0x800000
 8000226:	3a01      	subeq	r2, #1
 8000228:	d0f9      	beq.n	800021e <__aeabi_fmul+0xce>
 800022a:	ea40 000c 	orr.w	r0, r0, ip
 800022e:	f093 0f00 	teq	r3, #0
 8000232:	f001 4c00 	and.w	ip, r1, #2147483648	@ 0x80000000
 8000236:	bf02      	ittt	eq
 8000238:	0049      	lsleq	r1, r1, #1
 800023a:	f411 0f00 	tsteq.w	r1, #8388608	@ 0x800000
 800023e:	3b01      	subeq	r3, #1
 8000240:	d0f9      	beq.n	8000236 <__aeabi_fmul+0xe6>
 8000242:	ea41 010c 	orr.w	r1, r1, ip
 8000246:	e78f      	b.n	8000168 <__aeabi_fmul+0x18>
 8000248:	ea0c 53d1 	and.w	r3, ip, r1, lsr #23
 800024c:	ea92 0f0c 	teq	r2, ip
 8000250:	bf18      	it	ne
 8000252:	ea93 0f0c 	teqne	r3, ip
 8000256:	d00a      	beq.n	800026e <__aeabi_fmul+0x11e>
 8000258:	f030 4c00 	bics.w	ip, r0, #2147483648	@ 0x80000000
 800025c:	bf18      	it	ne
 800025e:	f031 4c00 	bicsne.w	ip, r1, #2147483648	@ 0x80000000
 8000262:	d1d8      	bne.n	8000216 <__aeabi_fmul+0xc6>
 8000264:	ea80 0001 	eor.w	r0, r0, r1
 8000268:	f000 4000 	and.w	r0, r0, #2147483648	@ 0x80000000
 800026c:	4770      	bx	lr
 800026e:	f090 0f00 	teq	r0, #0
 8000272:	bf17      	itett	ne
 8000274:	f090 4f00 	teqne	r0, #2147483648	@ 0x80000000
 8000278:	4608      	moveq	r0, r1
 800027a:	f091 0f00 	teqne	r1, #0
 800027e:	f091 4f00 	teqne	r1, #2147483648	@ 0x80000000
 8000282:	d014      	beq.n	80002ae <__aeabi_fmul+0x15e>
 8000284:	ea92 0f0c 	teq	r2, ip
 8000288:	d101      	bne.n	800028e <__aeabi_fmul+0x13e>
 800028a:	0242      	lsls	r2, r0, #9
 800028c:	d10f      	bne.n	80002ae <__aeabi_fmul+0x15e>
 800028e:	ea93 0f0c 	teq	r3, ip
 8000292:	d103      	bne.n	800029c <__aeabi_fmul+0x14c>
 8000294:	024b      	lsls	r3, r1, #9
 8000296:	bf18      	it	ne
 8000298:	4608      	movne	r0, r1
 800029a:	d108      	bne.n	80002ae <__aeabi_fmul+0x15e>
 800029c:	ea80 0001 	eor.w	r0, r0, r1
 80002a0:	f000 4000 	and.w	r0, r0, #2147483648	@ 0x80000000
 80002a4:	f040 40fe 	orr.w	r0, r0, #2130706432	@ 0x7f000000
 80002a8:	f440 0000 	orr.w	r0, r0, #8388608	@ 0x800000
 80002ac:	4770      	bx	lr
 80002ae:	f040 40fe 	orr.w	r0, r0, #2130706432	@ 0x7f000000
 80002b2:	f440 0040 	orr.w	r0, r0, #12582912	@ 0xc00000
 80002b6:	4770      	bx	lr

080002b8 <__aeabi_drsub>:
 80002b8:	f081 4100 	eor.w	r1, r1, #2147483648	@ 0x80000000
 80002bc:	e002      	b.n	80002c4 <__adddf3>
 80002be:	bf00      	nop

080002c0 <__aeabi_dsub>:
 80002c0:	f083 4300 	eor.w	r3, r3, #2147483648	@ 0x80000000

080002c4 <__adddf3>:
 80002c4:	b530      	push	{r4, r5, lr}
 80002c6:	ea4f 0441 	mov.w	r4, r1, lsl #1
 80002ca:	ea4f 0543 	mov.w	r5, r3, lsl #1
 80002ce:	ea94 0f05 	teq	r4, r5
 80002d2:	bf08      	it	eq
 80002d4:	ea90 0f02 	teqeq	r0, r2
 80002d8:	bf1f      	itttt	ne
 80002da:	ea54 0c00 	orrsne.w	ip, r4, r0
 80002de:	ea55 0c02 	orrsne.w	ip, r5, r2
 80002e2:	ea7f 5c64 	mvnsne.w	ip, r4, asr #21
 80002e6:	ea7f 5c65 	mvnsne.w	ip, r5, asr #21
 80002ea:	f000 80e2 	beq.w	80004b2 <__adddf3+0x1ee>
 80002ee:	ea4f 5454 	mov.w	r4, r4, lsr #21
 80002f2:	ebd4 5555 	rsbs	r5, r4, r5, lsr #21
 80002f6:	bfb8      	it	lt
 80002f8:	426d      	neglt	r5, r5
 80002fa:	dd0c      	ble.n	8000316 <__adddf3+0x52>
 80002fc:	442c      	add	r4, r5
 80002fe:	ea80 0202 	eor.w	r2, r0, r2
 8000302:	ea81 0303 	eor.w	r3, r1, r3
 8000306:	ea82 0000 	eor.w	r0, r2, r0
 800030a:	ea83 0101 	eor.w	r1, r3, r1
 800030e:	ea80 0202 	eor.w	r2, r0, r2
 8000312:	ea81 0303 	eor.w	r3, r1, r3
 8000316:	2d36      	cmp	r5, #54	@ 0x36
 8000318:	bf88      	it	hi
 800031a:	bd30      	pophi	{r4, r5, pc}
 800031c:	f011 4f00 	tst.w	r1, #2147483648	@ 0x80000000
 8000320:	ea4f 3101 	mov.w	r1, r1, lsl #12
 8000324:	f44f 1c80 	mov.w	ip, #1048576	@ 0x100000
 8000328:	ea4c 3111 	orr.w	r1, ip, r1, lsr #12
 800032c:	d002      	beq.n	8000334 <__adddf3+0x70>
 800032e:	4240      	negs	r0, r0
 8000330:	eb61 0141 	sbc.w	r1, r1, r1, lsl #1
 8000334:	f013 4f00 	tst.w	r3, #2147483648	@ 0x80000000
 8000338:	ea4f 3303 	mov.w	r3, r3, lsl #12
 800033c:	ea4c 3313 	orr.w	r3, ip, r3, lsr #12
 8000340:	d002      	beq.n	8000348 <__adddf3+0x84>
 8000342:	4252      	negs	r2, r2
 8000344:	eb63 0343 	sbc.w	r3, r3, r3, lsl #1
 8000348:	ea94 0f05 	teq	r4, r5
 800034c:	f000 80a7 	beq.w	800049e <__adddf3+0x1da>
 8000350:	f1a4 0401 	sub.w	r4, r4, #1
 8000354:	f1d5 0e20 	rsbs	lr, r5, #32
 8000358:	db0d      	blt.n	8000376 <__adddf3+0xb2>
 800035a:	fa02 fc0e 	lsl.w	ip, r2, lr
 800035e:	fa22 f205 	lsr.w	r2, r2, r5
 8000362:	1880      	adds	r0, r0, r2
 8000364:	f141 0100 	adc.w	r1, r1, #0
 8000368:	fa03 f20e 	lsl.w	r2, r3, lr
 800036c:	1880      	adds	r0, r0, r2
 800036e:	fa43 f305 	asr.w	r3, r3, r5
 8000372:	4159      	adcs	r1, r3
 8000374:	e00e      	b.n	8000394 <__adddf3+0xd0>
 8000376:	f1a5 0520 	sub.w	r5, r5, #32
 800037a:	f10e 0e20 	add.w	lr, lr, #32
 800037e:	2a01      	cmp	r2, #1
 8000380:	fa03 fc0e 	lsl.w	ip, r3, lr
 8000384:	bf28      	it	cs
 8000386:	f04c 0c02 	orrcs.w	ip, ip, #2
 800038a:	fa43 f305 	asr.w	r3, r3, r5
 800038e:	18c0      	adds	r0, r0, r3
 8000390:	eb51 71e3 	adcs.w	r1, r1, r3, asr #31
 8000394:	f001 4500 	and.w	r5, r1, #2147483648	@ 0x80000000
 8000398:	d507      	bpl.n	80003aa <__adddf3+0xe6>
 800039a:	f04f 0e00 	mov.w	lr, #0
 800039e:	f1dc 0c00 	rsbs	ip, ip, #0
 80003a2:	eb7e 0000 	sbcs.w	r0, lr, r0
 80003a6:	eb6e 0101 	sbc.w	r1, lr, r1
 80003aa:	f5b1 1f80 	cmp.w	r1, #1048576	@ 0x100000
 80003ae:	d31b      	bcc.n	80003e8 <__adddf3+0x124>
 80003b0:	f5b1 1f00 	cmp.w	r1, #2097152	@ 0x200000
 80003b4:	d30c      	bcc.n	80003d0 <__adddf3+0x10c>
 80003b6:	0849      	lsrs	r1, r1, #1
 80003b8:	ea5f 0030 	movs.w	r0, r0, rrx
 80003bc:	ea4f 0c3c 	mov.w	ip, ip, rrx
 80003c0:	f104 0401 	add.w	r4, r4, #1
 80003c4:	ea4f 5244 	mov.w	r2, r4, lsl #21
 80003c8:	f512 0f80 	cmn.w	r2, #4194304	@ 0x400000
 80003cc:	f080 809a 	bcs.w	8000504 <__adddf3+0x240>
 80003d0:	f1bc 4f00 	cmp.w	ip, #2147483648	@ 0x80000000
 80003d4:	bf08      	it	eq
 80003d6:	ea5f 0c50 	movseq.w	ip, r0, lsr #1
 80003da:	f150 0000 	adcs.w	r0, r0, #0
 80003de:	eb41 5104 	adc.w	r1, r1, r4, lsl #20
 80003e2:	ea41 0105 	orr.w	r1, r1, r5
 80003e6:	bd30      	pop	{r4, r5, pc}
 80003e8:	ea5f 0c4c 	movs.w	ip, ip, lsl #1
 80003ec:	4140      	adcs	r0, r0
 80003ee:	eb41 0101 	adc.w	r1, r1, r1
 80003f2:	3c01      	subs	r4, #1
 80003f4:	bf28      	it	cs
 80003f6:	f5b1 1f80 	cmpcs.w	r1, #1048576	@ 0x100000
 80003fa:	d2e9      	bcs.n	80003d0 <__adddf3+0x10c>
 80003fc:	f091 0f00 	teq	r1, #0
 8000400:	bf04      	itt	eq
 8000402:	4601      	moveq	r1, r0
 8000404:	2000      	moveq	r0, #0
 8000406:	fab1 f381 	clz	r3, r1
 800040a:	bf08      	it	eq
 800040c:	3320      	addeq	r3, #32
 800040e:	f1a3 030b 	sub.w	r3, r3, #11
 8000412:	f1b3 0220 	subs.w	r2, r3, #32
 8000416:	da0c      	bge.n	8000432 <__adddf3+0x16e>
 8000418:	320c      	adds	r2, #12
 800041a:	dd08      	ble.n	800042e <__adddf3+0x16a>
 800041c:	f102 0c14 	add.w	ip, r2, #20
 8000420:	f1c2 020c 	rsb	r2, r2, #12
 8000424:	fa01 f00c 	lsl.w	r0, r1, ip
 8000428:	fa21 f102 	lsr.w	r1, r1, r2
 800042c:	e00c      	b.n	8000448 <__adddf3+0x184>
 800042e:	f102 0214 	add.w	r2, r2, #20
 8000432:	bfd8      	it	le
 8000434:	f1c2 0c20 	rsble	ip, r2, #32
 8000438:	fa01 f102 	lsl.w	r1, r1, r2
 800043c:	fa20 fc0c 	lsr.w	ip, r0, ip
 8000440:	bfdc      	itt	le
 8000442:	ea41 010c 	orrle.w	r1, r1, ip
 8000446:	4090      	lslle	r0, r2
 8000448:	1ae4      	subs	r4, r4, r3
 800044a:	bfa2      	ittt	ge
 800044c:	eb01 5104 	addge.w	r1, r1, r4, lsl #20
 8000450:	4329      	orrge	r1, r5
 8000452:	bd30      	popge	{r4, r5, pc}
 8000454:	ea6f 0404 	mvn.w	r4, r4
 8000458:	3c1f      	subs	r4, #31
 800045a:	da1c      	bge.n	8000496 <__adddf3+0x1d2>
 800045c:	340c      	adds	r4, #12
 800045e:	dc0e      	bgt.n	800047e <__adddf3+0x1ba>
 8000460:	f104 0414 	add.w	r4, r4, #20
 8000464:	f1c4 0220 	rsb	r2, r4, #32
 8000468:	fa20 f004 	lsr.w	r0, r0, r4
 800046c:	fa01 f302 	lsl.w	r3, r1, r2
 8000470:	ea40 0003 	orr.w	r0, r0, r3
 8000474:	fa21 f304 	lsr.w	r3, r1, r4
 8000478:	ea45 0103 	orr.w	r1, r5, r3
 800047c:	bd30      	pop	{r4, r5, pc}
 800047e:	f1c4 040c 	rsb	r4, r4, #12
 8000482:	f1c4 0220 	rsb	r2, r4, #32
 8000486:	fa20 f002 	lsr.w	r0, r0, r2
 800048a:	fa01 f304 	lsl.w	r3, r1, r4
 800048e:	ea40 0003 	orr.w	r0, r0, r3
 8000492:	4629      	mov	r1, r5
 8000494:	bd30      	pop	{r4, r5, pc}
 8000496:	fa21 f004 	lsr.w	r0, r1, r4
 800049a:	4629      	mov	r1, r5
 800049c:	bd30      	pop	{r4, r5, pc}
 800049e:	f094 0f00 	teq	r4, #0
 80004a2:	f483 1380 	eor.w	r3, r3, #1048576	@ 0x100000
 80004a6:	bf06      	itte	eq
 80004a8:	f481 1180 	eoreq.w	r1, r1, #1048576	@ 0x100000
 80004ac:	3401      	addeq	r4, #1
 80004ae:	3d01      	subne	r5, #1
 80004b0:	e74e      	b.n	8000350 <__adddf3+0x8c>
 80004b2:	ea7f 5c64 	mvns.w	ip, r4, asr #21
 80004b6:	bf18      	it	ne
 80004b8:	ea7f 5c65 	mvnsne.w	ip, r5, asr #21
 80004bc:	d029      	beq.n	8000512 <__adddf3+0x24e>
 80004be:	ea94 0f05 	teq	r4, r5
 80004c2:	bf08      	it	eq
 80004c4:	ea90 0f02 	teqeq	r0, r2
 80004c8:	d005      	beq.n	80004d6 <__adddf3+0x212>
 80004ca:	ea54 0c00 	orrs.w	ip, r4, r0
 80004ce:	bf04      	itt	eq
 80004d0:	4619      	moveq	r1, r3
 80004d2:	4610      	moveq	r0, r2
 80004d4:	bd30      	pop	{r4, r5, pc}
 80004d6:	ea91 0f03 	teq	r1, r3
 80004da:	bf1e      	ittt	ne
 80004dc:	2100      	movne	r1, #0
 80004de:	2000      	movne	r0, #0
 80004e0:	bd30      	popne	{r4, r5, pc}
 80004e2:	ea5f 5c54 	movs.w	ip, r4, lsr #21
 80004e6:	d105      	bne.n	80004f4 <__adddf3+0x230>
 80004e8:	0040      	lsls	r0, r0, #1
 80004ea:	4149      	adcs	r1, r1
 80004ec:	bf28      	it	cs
 80004ee:	f041 4100 	orrcs.w	r1, r1, #2147483648	@ 0x80000000
 80004f2:	bd30      	pop	{r4, r5, pc}
 80004f4:	f514 0480 	adds.w	r4, r4, #4194304	@ 0x400000
 80004f8:	bf3c      	itt	cc
 80004fa:	f501 1180 	addcc.w	r1, r1, #1048576	@ 0x100000
 80004fe:	bd30      	popcc	{r4, r5, pc}
 8000500:	f001 4500 	and.w	r5, r1, #2147483648	@ 0x80000000
 8000504:	f045 41fe 	orr.w	r1, r5, #2130706432	@ 0x7f000000
 8000508:	f441 0170 	orr.w	r1, r1, #15728640	@ 0xf00000
 800050c:	f04f 0000 	mov.w	r0, #0
 8000510:	bd30      	pop	{r4, r5, pc}
 8000512:	ea7f 5c64 	mvns.w	ip, r4, asr #21
 8000516:	bf1a      	itte	ne
 8000518:	4619      	movne	r1, r3
 800051a:	4610      	movne	r0, r2
 800051c:	ea7f 5c65 	mvnseq.w	ip, r5, asr #21
 8000520:	bf1c      	itt	ne
 8000522:	460b      	movne	r3, r1
 8000524:	4602      	movne	r2, r0
 8000526:	ea50 3401 	orrs.w	r4, r0, r1, lsl #12
 800052a:	bf06      	itte	eq
 800052c:	ea52 3503 	orrseq.w	r5, r2, r3, lsl #12
 8000530:	ea91 0f03 	teqeq	r1, r3
 8000534:	f441 2100 	orrne.w	r1, r1, #524288	@ 0x80000
 8000538:	bd30      	pop	{r4, r5, pc}
 800053a:	bf00      	nop

0800053c <__aeabi_ui2d>:
 800053c:	f090 0f00 	teq	r0, #0
 8000540:	bf04      	itt	eq
 8000542:	2100      	moveq	r1, #0
 8000544:	4770      	bxeq	lr
 8000546:	b530      	push	{r4, r5, lr}
 8000548:	f44f 6480 	mov.w	r4, #1024	@ 0x400
 800054c:	f104 0432 	add.w	r4, r4, #50	@ 0x32
 8000550:	f04f 0500 	mov.w	r5, #0
 8000554:	f04f 0100 	mov.w	r1, #0
 8000558:	e750      	b.n	80003fc <__adddf3+0x138>
 800055a:	bf00      	nop

0800055c <__aeabi_i2d>:
 800055c:	f090 0f00 	teq	r0, #0
 8000560:	bf04      	itt	eq
 8000562:	2100      	moveq	r1, #0
 8000564:	4770      	bxeq	lr
 8000566:	b530      	push	{r4, r5, lr}
 8000568:	f44f 6480 	mov.w	r4, #1024	@ 0x400
 800056c:	f104 0432 	add.w	r4, r4, #50	@ 0x32
 8000570:	f010 4500 	ands.w	r5, r0, #2147483648	@ 0x80000000
 8000574:	bf48      	it	mi
 8000576:	4240      	negmi	r0, r0
 8000578:	f04f 0100 	mov.w	r1, #0
 800057c:	e73e      	b.n	80003fc <__adddf3+0x138>
 800057e:	bf00      	nop

08000580 <__aeabi_f2d>:
 8000580:	0042      	lsls	r2, r0, #1
 8000582:	ea4f 01e2 	mov.w	r1, r2, asr #3
 8000586:	ea4f 0131 	mov.w	r1, r1, rrx
 800058a:	ea4f 7002 	mov.w	r0, r2, lsl #28
 800058e:	bf1f      	itttt	ne
 8000590:	f012 437f 	andsne.w	r3, r2, #4278190080	@ 0xff000000
 8000594:	f093 4f7f 	teqne	r3, #4278190080	@ 0xff000000
 8000598:	f081 5160 	eorne.w	r1, r1, #939524096	@ 0x38000000
 800059c:	4770      	bxne	lr
 800059e:	f032 427f 	bics.w	r2, r2, #4278190080	@ 0xff000000
 80005a2:	bf08      	it	eq
 80005a4:	4770      	bxeq	lr
 80005a6:	f093 4f7f 	teq	r3, #4278190080	@ 0xff000000
 80005aa:	bf04      	itt	eq
 80005ac:	f441 2100 	orreq.w	r1, r1, #524288	@ 0x80000
 80005b0:	4770      	bxeq	lr
 80005b2:	b530      	push	{r4, r5, lr}
 80005b4:	f44f 7460 	mov.w	r4, #896	@ 0x380
 80005b8:	f001 4500 	and.w	r5, r1, #2147483648	@ 0x80000000
 80005bc:	f021 4100 	bic.w	r1, r1, #2147483648	@ 0x80000000
 80005c0:	e71c      	b.n	80003fc <__adddf3+0x138>
 80005c2:	bf00      	nop

080005c4 <__aeabi_ul2d>:
 80005c4:	ea50 0201 	orrs.w	r2, r0, r1
 80005c8:	bf08      	it	eq
 80005ca:	4770      	bxeq	lr
 80005cc:	b530      	push	{r4, r5, lr}
 80005ce:	f04f 0500 	mov.w	r5, #0
 80005d2:	e00a      	b.n	80005ea <__aeabi_l2d+0x16>

080005d4 <__aeabi_l2d>:
 80005d4:	ea50 0201 	orrs.w	r2, r0, r1
 80005d8:	bf08      	it	eq
 80005da:	4770      	bxeq	lr
 80005dc:	b530      	push	{r4, r5, lr}
 80005de:	f011 4500 	ands.w	r5, r1, #2147483648	@ 0x80000000
 80005e2:	d502      	bpl.n	80005ea <__aeabi_l2d+0x16>
 80005e4:	4240      	negs	r0, r0
 80005e6:	eb61 0141 	sbc.w	r1, r1, r1, lsl #1
 80005ea:	f44f 6480 	mov.w	r4, #1024	@ 0x400
 80005ee:	f104 0432 	add.w	r4, r4, #50	@ 0x32
 80005f2:	ea5f 5c91 	movs.w	ip, r1, lsr #22
 80005f6:	f43f aed8 	beq.w	80003aa <__adddf3+0xe6>
 80005fa:	f04f 0203 	mov.w	r2, #3
 80005fe:	ea5f 0cdc 	movs.w	ip, ip, lsr #3
 8000602:	bf18      	it	ne
 8000604:	3203      	addne	r2, #3
 8000606:	ea5f 0cdc 	movs.w	ip, ip, lsr #3
 800060a:	bf18      	it	ne
 800060c:	3203      	addne	r2, #3
 800060e:	eb02 02dc 	add.w	r2, r2, ip, lsr #3
 8000612:	f1c2 0320 	rsb	r3, r2, #32
 8000616:	fa00 fc03 	lsl.w	ip, r0, r3
 800061a:	fa20 f002 	lsr.w	r0, r0, r2
 800061e:	fa01 fe03 	lsl.w	lr, r1, r3
 8000622:	ea40 000e 	orr.w	r0, r0, lr
 8000626:	fa21 f102 	lsr.w	r1, r1, r2
 800062a:	4414      	add	r4, r2
 800062c:	e6bd      	b.n	80003aa <__adddf3+0xe6>
 800062e:	bf00      	nop

08000630 <__aeabi_dmul>:
 8000630:	b570      	push	{r4, r5, r6, lr}
 8000632:	f04f 0cff 	mov.w	ip, #255	@ 0xff
 8000636:	f44c 6ce0 	orr.w	ip, ip, #1792	@ 0x700
 800063a:	ea1c 5411 	ands.w	r4, ip, r1, lsr #20
 800063e:	bf1d      	ittte	ne
 8000640:	ea1c 5513 	andsne.w	r5, ip, r3, lsr #20
 8000644:	ea94 0f0c 	teqne	r4, ip
 8000648:	ea95 0f0c 	teqne	r5, ip
 800064c:	f000 f8de 	bleq	800080c <__aeabi_dmul+0x1dc>
 8000650:	442c      	add	r4, r5
 8000652:	ea81 0603 	eor.w	r6, r1, r3
 8000656:	ea21 514c 	bic.w	r1, r1, ip, lsl #21
 800065a:	ea23 534c 	bic.w	r3, r3, ip, lsl #21
 800065e:	ea50 3501 	orrs.w	r5, r0, r1, lsl #12
 8000662:	bf18      	it	ne
 8000664:	ea52 3503 	orrsne.w	r5, r2, r3, lsl #12
 8000668:	f441 1180 	orr.w	r1, r1, #1048576	@ 0x100000
 800066c:	f443 1380 	orr.w	r3, r3, #1048576	@ 0x100000
 8000670:	d038      	beq.n	80006e4 <__aeabi_dmul+0xb4>
 8000672:	fba0 ce02 	umull	ip, lr, r0, r2
 8000676:	f04f 0500 	mov.w	r5, #0
 800067a:	fbe1 e502 	umlal	lr, r5, r1, r2
 800067e:	f006 4200 	and.w	r2, r6, #2147483648	@ 0x80000000
 8000682:	fbe0 e503 	umlal	lr, r5, r0, r3
 8000686:	f04f 0600 	mov.w	r6, #0
 800068a:	fbe1 5603 	umlal	r5, r6, r1, r3
 800068e:	f09c 0f00 	teq	ip, #0
 8000692:	bf18      	it	ne
 8000694:	f04e 0e01 	orrne.w	lr, lr, #1
 8000698:	f1a4 04ff 	sub.w	r4, r4, #255	@ 0xff
 800069c:	f5b6 7f00 	cmp.w	r6, #512	@ 0x200
 80006a0:	f564 7440 	sbc.w	r4, r4, #768	@ 0x300
 80006a4:	d204      	bcs.n	80006b0 <__aeabi_dmul+0x80>
 80006a6:	ea5f 0e4e 	movs.w	lr, lr, lsl #1
 80006aa:	416d      	adcs	r5, r5
 80006ac:	eb46 0606 	adc.w	r6, r6, r6
 80006b0:	ea42 21c6 	orr.w	r1, r2, r6, lsl #11
 80006b4:	ea41 5155 	orr.w	r1, r1, r5, lsr #21
 80006b8:	ea4f 20c5 	mov.w	r0, r5, lsl #11
 80006bc:	ea40 505e 	orr.w	r0, r0, lr, lsr #21
 80006c0:	ea4f 2ece 	mov.w	lr, lr, lsl #11
 80006c4:	f1b4 0cfd 	subs.w	ip, r4, #253	@ 0xfd
 80006c8:	bf88      	it	hi
 80006ca:	f5bc 6fe0 	cmphi.w	ip, #1792	@ 0x700
 80006ce:	d81e      	bhi.n	800070e <__aeabi_dmul+0xde>
 80006d0:	f1be 4f00 	cmp.w	lr, #2147483648	@ 0x80000000
 80006d4:	bf08      	it	eq
 80006d6:	ea5f 0e50 	movseq.w	lr, r0, lsr #1
 80006da:	f150 0000 	adcs.w	r0, r0, #0
 80006de:	eb41 5104 	adc.w	r1, r1, r4, lsl #20
 80006e2:	bd70      	pop	{r4, r5, r6, pc}
 80006e4:	f006 4600 	and.w	r6, r6, #2147483648	@ 0x80000000
 80006e8:	ea46 0101 	orr.w	r1, r6, r1
 80006ec:	ea40 0002 	orr.w	r0, r0, r2
 80006f0:	ea81 0103 	eor.w	r1, r1, r3
 80006f4:	ebb4 045c 	subs.w	r4, r4, ip, lsr #1
 80006f8:	bfc2      	ittt	gt
 80006fa:	ebd4 050c 	rsbsgt	r5, r4, ip
 80006fe:	ea41 5104 	orrgt.w	r1, r1, r4, lsl #20
 8000702:	bd70      	popgt	{r4, r5, r6, pc}
 8000704:	f441 1180 	orr.w	r1, r1, #1048576	@ 0x100000
 8000708:	f04f 0e00 	mov.w	lr, #0
 800070c:	3c01      	subs	r4, #1
 800070e:	f300 80ab 	bgt.w	8000868 <__aeabi_dmul+0x238>
 8000712:	f114 0f36 	cmn.w	r4, #54	@ 0x36
 8000716:	bfde      	ittt	le
 8000718:	2000      	movle	r0, #0
 800071a:	f001 4100 	andle.w	r1, r1, #2147483648	@ 0x80000000
 800071e:	bd70      	pople	{r4, r5, r6, pc}
 8000720:	f1c4 0400 	rsb	r4, r4, #0
 8000724:	3c20      	subs	r4, #32
 8000726:	da35      	bge.n	8000794 <__aeabi_dmul+0x164>
 8000728:	340c      	adds	r4, #12
 800072a:	dc1b      	bgt.n	8000764 <__aeabi_dmul+0x134>
 800072c:	f104 0414 	add.w	r4, r4, #20
 8000730:	f1c4 0520 	rsb	r5, r4, #32
 8000734:	fa00 f305 	lsl.w	r3, r0, r5
 8000738:	fa20 f004 	lsr.w	r0, r0, r4
 800073c:	fa01 f205 	lsl.w	r2, r1, r5
 8000740:	ea40 0002 	orr.w	r0, r0, r2
 8000744:	f001 4200 	and.w	r2, r1, #2147483648	@ 0x80000000
 8000748:	f021 4100 	bic.w	r1, r1, #2147483648	@ 0x80000000
 800074c:	eb10 70d3 	adds.w	r0, r0, r3, lsr #31
 8000750:	fa21 f604 	lsr.w	r6, r1, r4
 8000754:	eb42 0106 	adc.w	r1, r2, r6
 8000758:	ea5e 0e43 	orrs.w	lr, lr, r3, lsl #1
 800075c:	bf08      	it	eq
 800075e:	ea20 70d3 	biceq.w	r0, r0, r3, lsr #31
 8000762:	bd70      	pop	{r4, r5, r6, pc}
 8000764:	f1c4 040c 	rsb	r4, r4, #12
 8000768:	f1c4 0520 	rsb	r5, r4, #32
 800076c:	fa00 f304 	lsl.w	r3, r0, r4
 8000770:	fa20 f005 	lsr.w	r0, r0, r5
 8000774:	fa01 f204 	lsl.w	r2, r1, r4
 8000778:	ea40 0002 	orr.w	r0, r0, r2
 800077c:	f001 4100 	and.w	r1, r1, #2147483648	@ 0x80000000
 8000780:	eb10 70d3 	adds.w	r0, r0, r3, lsr #31
 8000784:	f141 0100 	adc.w	r1, r1, #0
 8000788:	ea5e 0e43 	orrs.w	lr, lr, r3, lsl #1
 800078c:	bf08      	it	eq
 800078e:	ea20 70d3 	biceq.w	r0, r0, r3, lsr #31
 8000792:	bd70      	pop	{r4, r5, r6, pc}
 8000794:	f1c4 0520 	rsb	r5, r4, #32
 8000798:	fa00 f205 	lsl.w	r2, r0, r5
 800079c:	ea4e 0e02 	orr.w	lr, lr, r2
 80007a0:	fa20 f304 	lsr.w	r3, r0, r4
 80007a4:	fa01 f205 	lsl.w	r2, r1, r5
 80007a8:	ea43 0302 	orr.w	r3, r3, r2
 80007ac:	fa21 f004 	lsr.w	r0, r1, r4
 80007b0:	f001 4100 	and.w	r1, r1, #2147483648	@ 0x80000000
 80007b4:	fa21 f204 	lsr.w	r2, r1, r4
 80007b8:	ea20 0002 	bic.w	r0, r0, r2
 80007bc:	eb00 70d3 	add.w	r0, r0, r3, lsr #31
 80007c0:	ea5e 0e43 	orrs.w	lr, lr, r3, lsl #1
 80007c4:	bf08      	it	eq
 80007c6:	ea20 70d3 	biceq.w	r0, r0, r3, lsr #31
 80007ca:	bd70      	pop	{r4, r5, r6, pc}
 80007cc:	f094 0f00 	teq	r4, #0
 80007d0:	d10f      	bne.n	80007f2 <__aeabi_dmul+0x1c2>
 80007d2:	f001 4600 	and.w	r6, r1, #2147483648	@ 0x80000000
 80007d6:	0040      	lsls	r0, r0, #1
 80007d8:	eb41 0101 	adc.w	r1, r1, r1
 80007dc:	f411 1f80 	tst.w	r1, #1048576	@ 0x100000
 80007e0:	bf08      	it	eq
 80007e2:	3c01      	subeq	r4, #1
 80007e4:	d0f7      	beq.n	80007d6 <__aeabi_dmul+0x1a6>
 80007e6:	ea41 0106 	orr.w	r1, r1, r6
 80007ea:	f095 0f00 	teq	r5, #0
 80007ee:	bf18      	it	ne
 80007f0:	4770      	bxne	lr
 80007f2:	f003 4600 	and.w	r6, r3, #2147483648	@ 0x80000000
 80007f6:	0052      	lsls	r2, r2, #1
 80007f8:	eb43 0303 	adc.w	r3, r3, r3
 80007fc:	f413 1f80 	tst.w	r3, #1048576	@ 0x100000
 8000800:	bf08      	it	eq
 8000802:	3d01      	subeq	r5, #1
 8000804:	d0f7      	beq.n	80007f6 <__aeabi_dmul+0x1c6>
 8000806:	ea43 0306 	orr.w	r3, r3, r6
 800080a:	4770      	bx	lr
 800080c:	ea94 0f0c 	teq	r4, ip
 8000810:	ea0c 5513 	and.w	r5, ip, r3, lsr #20
 8000814:	bf18      	it	ne
 8000816:	ea95 0f0c 	teqne	r5, ip
 800081a:	d00c      	beq.n	8000836 <__aeabi_dmul+0x206>
 800081c:	ea50 0641 	orrs.w	r6, r0, r1, lsl #1
 8000820:	bf18      	it	ne
 8000822:	ea52 0643 	orrsne.w	r6, r2, r3, lsl #1
 8000826:	d1d1      	bne.n	80007cc <__aeabi_dmul+0x19c>
 8000828:	ea81 0103 	eor.w	r1, r1, r3
 800082c:	f001 4100 	and.w	r1, r1, #2147483648	@ 0x80000000
 8000830:	f04f 0000 	mov.w	r0, #0
 8000834:	bd70      	pop	{r4, r5, r6, pc}
 8000836:	ea50 0641 	orrs.w	r6, r0, r1, lsl #1
 800083a:	bf06      	itte	eq
 800083c:	4610      	moveq	r0, r2
 800083e:	4619      	moveq	r1, r3
 8000840:	ea52 0643 	orrsne.w	r6, r2, r3, lsl #1
 8000844:	d019      	beq.n	800087a <__aeabi_dmul+0x24a>
 8000846:	ea94 0f0c 	teq	r4, ip
 800084a:	d102      	bne.n	8000852 <__aeabi_dmul+0x222>
 800084c:	ea50 3601 	orrs.w	r6, r0, r1, lsl #12
 8000850:	d113      	bne.n	800087a <__aeabi_dmul+0x24a>
 8000852:	ea95 0f0c 	teq	r5, ip
 8000856:	d105      	bne.n	8000864 <__aeabi_dmul+0x234>
 8000858:	ea52 3603 	orrs.w	r6, r2, r3, lsl #12
 800085c:	bf1c      	itt	ne
 800085e:	4610      	movne	r0, r2
 8000860:	4619      	movne	r1, r3
 8000862:	d10a      	bne.n	800087a <__aeabi_dmul+0x24a>
 8000864:	ea81 0103 	eor.w	r1, r1, r3
 8000868:	f001 4100 	and.w	r1, r1, #2147483648	@ 0x80000000
 800086c:	f041 41fe 	orr.w	r1, r1, #2130706432	@ 0x7f000000
 8000870:	f441 0170 	orr.w	r1, r1, #15728640	@ 0xf00000
 8000874:	f04f 0000 	mov.w	r0, #0
 8000878:	bd70      	pop	{r4, r5, r6, pc}
 800087a:	f041 41fe 	orr.w	r1, r1, #2130706432	@ 0x7f000000
 800087e:	f441 0178 	orr.w	r1, r1, #16252928	@ 0xf80000
 8000882:	bd70      	pop	{r4, r5, r6, pc}

08000884 <__aeabi_ddiv>:
 8000884:	b570      	push	{r4, r5, r6, lr}
 8000886:	f04f 0cff 	mov.w	ip, #255	@ 0xff
 800088a:	f44c 6ce0 	orr.w	ip, ip, #1792	@ 0x700
 800088e:	ea1c 5411 	ands.w	r4, ip, r1, lsr #20
 8000892:	bf1d      	ittte	ne
 8000894:	ea1c 5513 	andsne.w	r5, ip, r3, lsr #20
 8000898:	ea94 0f0c 	teqne	r4, ip
 800089c:	ea95 0f0c 	teqne	r5, ip
 80008a0:	f000 f8a7 	bleq	80009f2 <__aeabi_ddiv+0x16e>
 80008a4:	eba4 0405 	sub.w	r4, r4, r5
 80008a8:	ea81 0e03 	eor.w	lr, r1, r3
 80008ac:	ea52 3503 	orrs.w	r5, r2, r3, lsl #12
 80008b0:	ea4f 3101 	mov.w	r1, r1, lsl #12
 80008b4:	f000 8088 	beq.w	80009c8 <__aeabi_ddiv+0x144>
 80008b8:	ea4f 3303 	mov.w	r3, r3, lsl #12
 80008bc:	f04f 5580 	mov.w	r5, #268435456	@ 0x10000000
 80008c0:	ea45 1313 	orr.w	r3, r5, r3, lsr #4
 80008c4:	ea43 6312 	orr.w	r3, r3, r2, lsr #24
 80008c8:	ea4f 2202 	mov.w	r2, r2, lsl #8
 80008cc:	ea45 1511 	orr.w	r5, r5, r1, lsr #4
 80008d0:	ea45 6510 	orr.w	r5, r5, r0, lsr #24
 80008d4:	ea4f 2600 	mov.w	r6, r0, lsl #8
 80008d8:	f00e 4100 	and.w	r1, lr, #2147483648	@ 0x80000000
 80008dc:	429d      	cmp	r5, r3
 80008de:	bf08      	it	eq
 80008e0:	4296      	cmpeq	r6, r2
 80008e2:	f144 04fd 	adc.w	r4, r4, #253	@ 0xfd
 80008e6:	f504 7440 	add.w	r4, r4, #768	@ 0x300
 80008ea:	d202      	bcs.n	80008f2 <__aeabi_ddiv+0x6e>
 80008ec:	085b      	lsrs	r3, r3, #1
 80008ee:	ea4f 0232 	mov.w	r2, r2, rrx
 80008f2:	1ab6      	subs	r6, r6, r2
 80008f4:	eb65 0503 	sbc.w	r5, r5, r3
 80008f8:	085b      	lsrs	r3, r3, #1
 80008fa:	ea4f 0232 	mov.w	r2, r2, rrx
 80008fe:	f44f 1080 	mov.w	r0, #1048576	@ 0x100000
 8000902:	f44f 2c00 	mov.w	ip, #524288	@ 0x80000
 8000906:	ebb6 0e02 	subs.w	lr, r6, r2
 800090a:	eb75 0e03 	sbcs.w	lr, r5, r3
 800090e:	bf22      	ittt	cs
 8000910:	1ab6      	subcs	r6, r6, r2
 8000912:	4675      	movcs	r5, lr
 8000914:	ea40 000c 	orrcs.w	r0, r0, ip
 8000918:	085b      	lsrs	r3, r3, #1
 800091a:	ea4f 0232 	mov.w	r2, r2, rrx
 800091e:	ebb6 0e02 	subs.w	lr, r6, r2
 8000922:	eb75 0e03 	sbcs.w	lr, r5, r3
 8000926:	bf22      	ittt	cs
 8000928:	1ab6      	subcs	r6, r6, r2
 800092a:	4675      	movcs	r5, lr
 800092c:	ea40 005c 	orrcs.w	r0, r0, ip, lsr #1
 8000930:	085b      	lsrs	r3, r3, #1
 8000932:	ea4f 0232 	mov.w	r2, r2, rrx
 8000936:	ebb6 0e02 	subs.w	lr, r6, r2
 800093a:	eb75 0e03 	sbcs.w	lr, r5, r3
 800093e:	bf22      	ittt	cs
 8000940:	1ab6      	subcs	r6, r6, r2
 8000942:	4675      	movcs	r5, lr
 8000944:	ea40 009c 	orrcs.w	r0, r0, ip, lsr #2
 8000948:	085b      	lsrs	r3, r3, #1
 800094a:	ea4f 0232 	mov.w	r2, r2, rrx
 800094e:	ebb6 0e02 	subs.w	lr, r6, r2
 8000952:	eb75 0e03 	sbcs.w	lr, r5, r3
 8000956:	bf22      	ittt	cs
 8000958:	1ab6      	subcs	r6, r6, r2
 800095a:	4675      	movcs	r5, lr
 800095c:	ea40 00dc 	orrcs.w	r0, r0, ip, lsr #3
 8000960:	ea55 0e06 	orrs.w	lr, r5, r6
 8000964:	d018      	beq.n	8000998 <__aeabi_ddiv+0x114>
 8000966:	ea4f 1505 	mov.w	r5, r5, lsl #4
 800096a:	ea45 7516 	orr.w	r5, r5, r6, lsr #28
 800096e:	ea4f 1606 	mov.w	r6, r6, lsl #4
 8000972:	ea4f 03c3 	mov.w	r3, r3, lsl #3
 8000976:	ea43 7352 	orr.w	r3, r3, r2, lsr #29
 800097a:	ea4f 02c2 	mov.w	r2, r2, lsl #3
 800097e:	ea5f 1c1c 	movs.w	ip, ip, lsr #4
 8000982:	d1c0      	bne.n	8000906 <__aeabi_ddiv+0x82>
 8000984:	f411 1f80 	tst.w	r1, #1048576	@ 0x100000
 8000988:	d10b      	bne.n	80009a2 <__aeabi_ddiv+0x11e>
 800098a:	ea41 0100 	orr.w	r1, r1, r0
 800098e:	f04f 0000 	mov.w	r0, #0
 8000992:	f04f 4c00 	mov.w	ip, #2147483648	@ 0x80000000
 8000996:	e7b6      	b.n	8000906 <__aeabi_ddiv+0x82>
 8000998:	f411 1f80 	tst.w	r1, #1048576	@ 0x100000
 800099c:	bf04      	itt	eq
 800099e:	4301      	orreq	r1, r0
 80009a0:	2000      	moveq	r0, #0
 80009a2:	f1b4 0cfd 	subs.w	ip, r4, #253	@ 0xfd
 80009a6:	bf88      	it	hi
 80009a8:	f5bc 6fe0 	cmphi.w	ip, #1792	@ 0x700
 80009ac:	f63f aeaf 	bhi.w	800070e <__aeabi_dmul+0xde>
 80009b0:	ebb5 0c03 	subs.w	ip, r5, r3
 80009b4:	bf04      	itt	eq
 80009b6:	ebb6 0c02 	subseq.w	ip, r6, r2
 80009ba:	ea5f 0c50 	movseq.w	ip, r0, lsr #1
 80009be:	f150 0000 	adcs.w	r0, r0, #0
 80009c2:	eb41 5104 	adc.w	r1, r1, r4, lsl #20
 80009c6:	bd70      	pop	{r4, r5, r6, pc}
 80009c8:	f00e 4e00 	and.w	lr, lr, #2147483648	@ 0x80000000
 80009cc:	ea4e 3111 	orr.w	r1, lr, r1, lsr #12
 80009d0:	eb14 045c 	adds.w	r4, r4, ip, lsr #1
 80009d4:	bfc2      	ittt	gt
 80009d6:	ebd4 050c 	rsbsgt	r5, r4, ip
 80009da:	ea41 5104 	orrgt.w	r1, r1, r4, lsl #20
 80009de:	bd70      	popgt	{r4, r5, r6, pc}
 80009e0:	f441 1180 	orr.w	r1, r1, #1048576	@ 0x100000
 80009e4:	f04f 0e00 	mov.w	lr, #0
 80009e8:	3c01      	subs	r4, #1
 80009ea:	e690      	b.n	800070e <__aeabi_dmul+0xde>
 80009ec:	ea45 0e06 	orr.w	lr, r5, r6
 80009f0:	e68d      	b.n	800070e <__aeabi_dmul+0xde>
 80009f2:	ea0c 5513 	and.w	r5, ip, r3, lsr #20
 80009f6:	ea94 0f0c 	teq	r4, ip
 80009fa:	bf08      	it	eq
 80009fc:	ea95 0f0c 	teqeq	r5, ip
 8000a00:	f43f af3b 	beq.w	800087a <__aeabi_dmul+0x24a>
 8000a04:	ea94 0f0c 	teq	r4, ip
 8000a08:	d10a      	bne.n	8000a20 <__aeabi_ddiv+0x19c>
 8000a0a:	ea50 3401 	orrs.w	r4, r0, r1, lsl #12
 8000a0e:	f47f af34 	bne.w	800087a <__aeabi_dmul+0x24a>
 8000a12:	ea95 0f0c 	teq	r5, ip
 8000a16:	f47f af25 	bne.w	8000864 <__aeabi_dmul+0x234>
 8000a1a:	4610      	mov	r0, r2
 8000a1c:	4619      	mov	r1, r3
 8000a1e:	e72c      	b.n	800087a <__aeabi_dmul+0x24a>
 8000a20:	ea95 0f0c 	teq	r5, ip
 8000a24:	d106      	bne.n	8000a34 <__aeabi_ddiv+0x1b0>
 8000a26:	ea52 3503 	orrs.w	r5, r2, r3, lsl #12
 8000a2a:	f43f aefd 	beq.w	8000828 <__aeabi_dmul+0x1f8>
 8000a2e:	4610      	mov	r0, r2
 8000a30:	4619      	mov	r1, r3
 8000a32:	e722      	b.n	800087a <__aeabi_dmul+0x24a>
 8000a34:	ea50 0641 	orrs.w	r6, r0, r1, lsl #1
 8000a38:	bf18      	it	ne
 8000a3a:	ea52 0643 	orrsne.w	r6, r2, r3, lsl #1
 8000a3e:	f47f aec5 	bne.w	80007cc <__aeabi_dmul+0x19c>
 8000a42:	ea50 0441 	orrs.w	r4, r0, r1, lsl #1
 8000a46:	f47f af0d 	bne.w	8000864 <__aeabi_dmul+0x234>
 8000a4a:	ea52 0543 	orrs.w	r5, r2, r3, lsl #1
 8000a4e:	f47f aeeb 	bne.w	8000828 <__aeabi_dmul+0x1f8>
 8000a52:	e712      	b.n	800087a <__aeabi_dmul+0x24a>

08000a54 <__gedf2>:
 8000a54:	f04f 3cff 	mov.w	ip, #4294967295
 8000a58:	e006      	b.n	8000a68 <__cmpdf2+0x4>
 8000a5a:	bf00      	nop

08000a5c <__ledf2>:
 8000a5c:	f04f 0c01 	mov.w	ip, #1
 8000a60:	e002      	b.n	8000a68 <__cmpdf2+0x4>
 8000a62:	bf00      	nop

08000a64 <__cmpdf2>:
 8000a64:	f04f 0c01 	mov.w	ip, #1
 8000a68:	f84d cd04 	str.w	ip, [sp, #-4]!
 8000a6c:	ea4f 0c41 	mov.w	ip, r1, lsl #1
 8000a70:	ea7f 5c6c 	mvns.w	ip, ip, asr #21
 8000a74:	ea4f 0c43 	mov.w	ip, r3, lsl #1
 8000a78:	bf18      	it	ne
 8000a7a:	ea7f 5c6c 	mvnsne.w	ip, ip, asr #21
 8000a7e:	d01b      	beq.n	8000ab8 <__cmpdf2+0x54>
 8000a80:	b001      	add	sp, #4
 8000a82:	ea50 0c41 	orrs.w	ip, r0, r1, lsl #1
 8000a86:	bf0c      	ite	eq
 8000a88:	ea52 0c43 	orrseq.w	ip, r2, r3, lsl #1
 8000a8c:	ea91 0f03 	teqne	r1, r3
 8000a90:	bf02      	ittt	eq
 8000a92:	ea90 0f02 	teqeq	r0, r2
 8000a96:	2000      	moveq	r0, #0
 8000a98:	4770      	bxeq	lr
 8000a9a:	f110 0f00 	cmn.w	r0, #0
 8000a9e:	ea91 0f03 	teq	r1, r3
 8000aa2:	bf58      	it	pl
 8000aa4:	4299      	cmppl	r1, r3
 8000aa6:	bf08      	it	eq
 8000aa8:	4290      	cmpeq	r0, r2
 8000aaa:	bf2c      	ite	cs
 8000aac:	17d8      	asrcs	r0, r3, #31
 8000aae:	ea6f 70e3 	mvncc.w	r0, r3, asr #31
 8000ab2:	f040 0001 	orr.w	r0, r0, #1
 8000ab6:	4770      	bx	lr
 8000ab8:	ea4f 0c41 	mov.w	ip, r1, lsl #1
 8000abc:	ea7f 5c6c 	mvns.w	ip, ip, asr #21
 8000ac0:	d102      	bne.n	8000ac8 <__cmpdf2+0x64>
 8000ac2:	ea50 3c01 	orrs.w	ip, r0, r1, lsl #12
 8000ac6:	d107      	bne.n	8000ad8 <__cmpdf2+0x74>
 8000ac8:	ea4f 0c43 	mov.w	ip, r3, lsl #1
 8000acc:	ea7f 5c6c 	mvns.w	ip, ip, asr #21
 8000ad0:	d1d6      	bne.n	8000a80 <__cmpdf2+0x1c>
 8000ad2:	ea52 3c03 	orrs.w	ip, r2, r3, lsl #12
 8000ad6:	d0d3      	beq.n	8000a80 <__cmpdf2+0x1c>
 8000ad8:	f85d 0b04 	ldr.w	r0, [sp], #4
 8000adc:	4770      	bx	lr
 8000ade:	bf00      	nop

08000ae0 <__aeabi_cdrcmple>:
 8000ae0:	4684      	mov	ip, r0
 8000ae2:	4610      	mov	r0, r2
 8000ae4:	4662      	mov	r2, ip
 8000ae6:	468c      	mov	ip, r1
 8000ae8:	4619      	mov	r1, r3
 8000aea:	4663      	mov	r3, ip
 8000aec:	e000      	b.n	8000af0 <__aeabi_cdcmpeq>
 8000aee:	bf00      	nop

08000af0 <__aeabi_cdcmpeq>:
 8000af0:	b501      	push	{r0, lr}
 8000af2:	f7ff ffb7 	bl	8000a64 <__cmpdf2>
 8000af6:	2800      	cmp	r0, #0
 8000af8:	bf48      	it	mi
 8000afa:	f110 0f00 	cmnmi.w	r0, #0
 8000afe:	bd01      	pop	{r0, pc}

08000b00 <__aeabi_dcmpeq>:
 8000b00:	f84d ed08 	str.w	lr, [sp, #-8]!
 8000b04:	f7ff fff4 	bl	8000af0 <__aeabi_cdcmpeq>
 8000b08:	bf0c      	ite	eq
 8000b0a:	2001      	moveq	r0, #1
 8000b0c:	2000      	movne	r0, #0
 8000b0e:	f85d fb08 	ldr.w	pc, [sp], #8
 8000b12:	bf00      	nop

08000b14 <__aeabi_dcmplt>:
 8000b14:	f84d ed08 	str.w	lr, [sp, #-8]!
 8000b18:	f7ff ffea 	bl	8000af0 <__aeabi_cdcmpeq>
 8000b1c:	bf34      	ite	cc
 8000b1e:	2001      	movcc	r0, #1
 8000b20:	2000      	movcs	r0, #0
 8000b22:	f85d fb08 	ldr.w	pc, [sp], #8
 8000b26:	bf00      	nop

08000b28 <__aeabi_dcmple>:
 8000b28:	f84d ed08 	str.w	lr, [sp, #-8]!
 8000b2c:	f7ff ffe0 	bl	8000af0 <__aeabi_cdcmpeq>
 8000b30:	bf94      	ite	ls
 8000b32:	2001      	movls	r0, #1
 8000b34:	2000      	movhi	r0, #0
 8000b36:	f85d fb08 	ldr.w	pc, [sp], #8
 8000b3a:	bf00      	nop

08000b3c <__aeabi_dcmpge>:
 8000b3c:	f84d ed08 	str.w	lr, [sp, #-8]!
 8000b40:	f7ff ffce 	bl	8000ae0 <__aeabi_cdrcmple>
 8000b44:	bf94      	ite	ls
 8000b46:	2001      	movls	r0, #1
 8000b48:	2000      	movhi	r0, #0
 8000b4a:	f85d fb08 	ldr.w	pc, [sp], #8
 8000b4e:	bf00      	nop

08000b50 <__aeabi_dcmpgt>:
 8000b50:	f84d ed08 	str.w	lr, [sp, #-8]!
 8000b54:	f7ff ffc4 	bl	8000ae0 <__aeabi_cdrcmple>
 8000b58:	bf34      	ite	cc
 8000b5a:	2001      	movcc	r0, #1
 8000b5c:	2000      	movcs	r0, #0
 8000b5e:	f85d fb08 	ldr.w	pc, [sp], #8
 8000b62:	bf00      	nop

08000b64 <__aeabi_dcmpun>:
 8000b64:	ea4f 0c41 	mov.w	ip, r1, lsl #1
 8000b68:	ea7f 5c6c 	mvns.w	ip, ip, asr #21
 8000b6c:	d102      	bne.n	8000b74 <__aeabi_dcmpun+0x10>
 8000b6e:	ea50 3c01 	orrs.w	ip, r0, r1, lsl #12
 8000b72:	d10a      	bne.n	8000b8a <__aeabi_dcmpun+0x26>
 8000b74:	ea4f 0c43 	mov.w	ip, r3, lsl #1
 8000b78:	ea7f 5c6c 	mvns.w	ip, ip, asr #21
 8000b7c:	d102      	bne.n	8000b84 <__aeabi_dcmpun+0x20>
 8000b7e:	ea52 3c03 	orrs.w	ip, r2, r3, lsl #12
 8000b82:	d102      	bne.n	8000b8a <__aeabi_dcmpun+0x26>
 8000b84:	f04f 0000 	mov.w	r0, #0
 8000b88:	4770      	bx	lr
 8000b8a:	f04f 0001 	mov.w	r0, #1
 8000b8e:	4770      	bx	lr

08000b90 <__aeabi_d2iz>:
 8000b90:	ea4f 0241 	mov.w	r2, r1, lsl #1
 8000b94:	f512 1200 	adds.w	r2, r2, #2097152	@ 0x200000
 8000b98:	d215      	bcs.n	8000bc6 <__aeabi_d2iz+0x36>
 8000b9a:	d511      	bpl.n	8000bc0 <__aeabi_d2iz+0x30>
 8000b9c:	f46f 7378 	mvn.w	r3, #992	@ 0x3e0
 8000ba0:	ebb3 5262 	subs.w	r2, r3, r2, asr #21
 8000ba4:	d912      	bls.n	8000bcc <__aeabi_d2iz+0x3c>
 8000ba6:	ea4f 23c1 	mov.w	r3, r1, lsl #11
 8000baa:	f043 4300 	orr.w	r3, r3, #2147483648	@ 0x80000000
 8000bae:	ea43 5350 	orr.w	r3, r3, r0, lsr #21
 8000bb2:	f011 4f00 	tst.w	r1, #2147483648	@ 0x80000000
 8000bb6:	fa23 f002 	lsr.w	r0, r3, r2
 8000bba:	bf18      	it	ne
 8000bbc:	4240      	negne	r0, r0
 8000bbe:	4770      	bx	lr
 8000bc0:	f04f 0000 	mov.w	r0, #0
 8000bc4:	4770      	bx	lr
 8000bc6:	ea50 3001 	orrs.w	r0, r0, r1, lsl #12
 8000bca:	d105      	bne.n	8000bd8 <__aeabi_d2iz+0x48>
 8000bcc:	f011 4000 	ands.w	r0, r1, #2147483648	@ 0x80000000
 8000bd0:	bf08      	it	eq
 8000bd2:	f06f 4000 	mvneq.w	r0, #2147483648	@ 0x80000000
 8000bd6:	4770      	bx	lr
 8000bd8:	f04f 0000 	mov.w	r0, #0
 8000bdc:	4770      	bx	lr
 8000bde:	bf00      	nop

08000be0 <__aeabi_d2f>:
 8000be0:	ea4f 0241 	mov.w	r2, r1, lsl #1
 8000be4:	f1b2 43e0 	subs.w	r3, r2, #1879048192	@ 0x70000000
 8000be8:	bf24      	itt	cs
 8000bea:	f5b3 1c00 	subscs.w	ip, r3, #2097152	@ 0x200000
 8000bee:	f1dc 5cfe 	rsbscs	ip, ip, #532676608	@ 0x1fc00000
 8000bf2:	d90d      	bls.n	8000c10 <__aeabi_d2f+0x30>
 8000bf4:	f001 4c00 	and.w	ip, r1, #2147483648	@ 0x80000000
 8000bf8:	ea4f 02c0 	mov.w	r2, r0, lsl #3
 8000bfc:	ea4c 7050 	orr.w	r0, ip, r0, lsr #29
 8000c00:	f1b2 4f00 	cmp.w	r2, #2147483648	@ 0x80000000
 8000c04:	eb40 0083 	adc.w	r0, r0, r3, lsl #2
 8000c08:	bf08      	it	eq
 8000c0a:	f020 0001 	biceq.w	r0, r0, #1
 8000c0e:	4770      	bx	lr
 8000c10:	f011 4f80 	tst.w	r1, #1073741824	@ 0x40000000
 8000c14:	d121      	bne.n	8000c5a <__aeabi_d2f+0x7a>
 8000c16:	f113 7238 	adds.w	r2, r3, #48234496	@ 0x2e00000
 8000c1a:	bfbc      	itt	lt
 8000c1c:	f001 4000 	andlt.w	r0, r1, #2147483648	@ 0x80000000
 8000c20:	4770      	bxlt	lr
 8000c22:	f441 1180 	orr.w	r1, r1, #1048576	@ 0x100000
 8000c26:	ea4f 5252 	mov.w	r2, r2, lsr #21
 8000c2a:	f1c2 0218 	rsb	r2, r2, #24
 8000c2e:	f1c2 0c20 	rsb	ip, r2, #32
 8000c32:	fa10 f30c 	lsls.w	r3, r0, ip
 8000c36:	fa20 f002 	lsr.w	r0, r0, r2
 8000c3a:	bf18      	it	ne
 8000c3c:	f040 0001 	orrne.w	r0, r0, #1
 8000c40:	ea4f 23c1 	mov.w	r3, r1, lsl #11
 8000c44:	ea4f 23d3 	mov.w	r3, r3, lsr #11
 8000c48:	fa03 fc0c 	lsl.w	ip, r3, ip
 8000c4c:	ea40 000c 	orr.w	r0, r0, ip
 8000c50:	fa23 f302 	lsr.w	r3, r3, r2
 8000c54:	ea4f 0343 	mov.w	r3, r3, lsl #1
 8000c58:	e7cc      	b.n	8000bf4 <__aeabi_d2f+0x14>
 8000c5a:	ea7f 5362 	mvns.w	r3, r2, asr #21
 8000c5e:	d107      	bne.n	8000c70 <__aeabi_d2f+0x90>
 8000c60:	ea50 3301 	orrs.w	r3, r0, r1, lsl #12
 8000c64:	bf1e      	ittt	ne
 8000c66:	f04f 40fe 	movne.w	r0, #2130706432	@ 0x7f000000
 8000c6a:	f440 0040 	orrne.w	r0, r0, #12582912	@ 0xc00000
 8000c6e:	4770      	bxne	lr
 8000c70:	f001 4000 	and.w	r0, r1, #2147483648	@ 0x80000000
 8000c74:	f040 40fe 	orr.w	r0, r0, #2130706432	@ 0x7f000000
 8000c78:	f440 0000 	orr.w	r0, r0, #8388608	@ 0x800000
 8000c7c:	4770      	bx	lr
 8000c7e:	bf00      	nop

08000c80 <__aeabi_frsub>:
 8000c80:	f080 4000 	eor.w	r0, r0, #2147483648	@ 0x80000000
 8000c84:	e002      	b.n	8000c8c <__addsf3>
 8000c86:	bf00      	nop

08000c88 <__aeabi_fsub>:
 8000c88:	f081 4100 	eor.w	r1, r1, #2147483648	@ 0x80000000

08000c8c <__addsf3>:
 8000c8c:	0042      	lsls	r2, r0, #1
 8000c8e:	bf1f      	itttt	ne
 8000c90:	ea5f 0341 	movsne.w	r3, r1, lsl #1
 8000c94:	ea92 0f03 	teqne	r2, r3
 8000c98:	ea7f 6c22 	mvnsne.w	ip, r2, asr #24
 8000c9c:	ea7f 6c23 	mvnsne.w	ip, r3, asr #24
 8000ca0:	d06a      	beq.n	8000d78 <__addsf3+0xec>
 8000ca2:	ea4f 6212 	mov.w	r2, r2, lsr #24
 8000ca6:	ebd2 6313 	rsbs	r3, r2, r3, lsr #24
 8000caa:	bfc1      	itttt	gt
 8000cac:	18d2      	addgt	r2, r2, r3
 8000cae:	4041      	eorgt	r1, r0
 8000cb0:	4048      	eorgt	r0, r1
 8000cb2:	4041      	eorgt	r1, r0
 8000cb4:	bfb8      	it	lt
 8000cb6:	425b      	neglt	r3, r3
 8000cb8:	2b19      	cmp	r3, #25
 8000cba:	bf88      	it	hi
 8000cbc:	4770      	bxhi	lr
 8000cbe:	f010 4f00 	tst.w	r0, #2147483648	@ 0x80000000
 8000cc2:	f440 0000 	orr.w	r0, r0, #8388608	@ 0x800000
 8000cc6:	f020 407f 	bic.w	r0, r0, #4278190080	@ 0xff000000
 8000cca:	bf18      	it	ne
 8000ccc:	4240      	negne	r0, r0
 8000cce:	f011 4f00 	tst.w	r1, #2147483648	@ 0x80000000
 8000cd2:	f441 0100 	orr.w	r1, r1, #8388608	@ 0x800000
 8000cd6:	f021 417f 	bic.w	r1, r1, #4278190080	@ 0xff000000
 8000cda:	bf18      	it	ne
 8000cdc:	4249      	negne	r1, r1
 8000cde:	ea92 0f03 	teq	r2, r3
 8000ce2:	d03f      	beq.n	8000d64 <__addsf3+0xd8>
 8000ce4:	f1a2 0201 	sub.w	r2, r2, #1
 8000ce8:	fa41 fc03 	asr.w	ip, r1, r3
 8000cec:	eb10 000c 	adds.w	r0, r0, ip
 8000cf0:	f1c3 0320 	rsb	r3, r3, #32
 8000cf4:	fa01 f103 	lsl.w	r1, r1, r3
 8000cf8:	f000 4300 	and.w	r3, r0, #2147483648	@ 0x80000000
 8000cfc:	d502      	bpl.n	8000d04 <__addsf3+0x78>
 8000cfe:	4249      	negs	r1, r1
 8000d00:	eb60 0040 	sbc.w	r0, r0, r0, lsl #1
 8000d04:	f5b0 0f00 	cmp.w	r0, #8388608	@ 0x800000
 8000d08:	d313      	bcc.n	8000d32 <__addsf3+0xa6>
 8000d0a:	f1b0 7f80 	cmp.w	r0, #16777216	@ 0x1000000
 8000d0e:	d306      	bcc.n	8000d1e <__addsf3+0x92>
 8000d10:	0840      	lsrs	r0, r0, #1
 8000d12:	ea4f 0131 	mov.w	r1, r1, rrx
 8000d16:	f102 0201 	add.w	r2, r2, #1
 8000d1a:	2afe      	cmp	r2, #254	@ 0xfe
 8000d1c:	d251      	bcs.n	8000dc2 <__addsf3+0x136>
 8000d1e:	f1b1 4f00 	cmp.w	r1, #2147483648	@ 0x80000000
 8000d22:	eb40 50c2 	adc.w	r0, r0, r2, lsl #23
 8000d26:	bf08      	it	eq
 8000d28:	f020 0001 	biceq.w	r0, r0, #1
 8000d2c:	ea40 0003 	orr.w	r0, r0, r3
 8000d30:	4770      	bx	lr
 8000d32:	0049      	lsls	r1, r1, #1
 8000d34:	eb40 0000 	adc.w	r0, r0, r0
 8000d38:	3a01      	subs	r2, #1
 8000d3a:	bf28      	it	cs
 8000d3c:	f5b0 0f00 	cmpcs.w	r0, #8388608	@ 0x800000
 8000d40:	d2ed      	bcs.n	8000d1e <__addsf3+0x92>
 8000d42:	fab0 fc80 	clz	ip, r0
 8000d46:	f1ac 0c08 	sub.w	ip, ip, #8
 8000d4a:	ebb2 020c 	subs.w	r2, r2, ip
 8000d4e:	fa00 f00c 	lsl.w	r0, r0, ip
 8000d52:	bfaa      	itet	ge
 8000d54:	eb00 50c2 	addge.w	r0, r0, r2, lsl #23
 8000d58:	4252      	neglt	r2, r2
 8000d5a:	4318      	orrge	r0, r3
 8000d5c:	bfbc      	itt	lt
 8000d5e:	40d0      	lsrlt	r0, r2
 8000d60:	4318      	orrlt	r0, r3
 8000d62:	4770      	bx	lr
 8000d64:	f092 0f00 	teq	r2, #0
 8000d68:	f481 0100 	eor.w	r1, r1, #8388608	@ 0x800000
 8000d6c:	bf06      	itte	eq
 8000d6e:	f480 0000 	eoreq.w	r0, r0, #8388608	@ 0x800000
 8000d72:	3201      	addeq	r2, #1
 8000d74:	3b01      	subne	r3, #1
 8000d76:	e7b5      	b.n	8000ce4 <__addsf3+0x58>
 8000d78:	ea4f 0341 	mov.w	r3, r1, lsl #1
 8000d7c:	ea7f 6c22 	mvns.w	ip, r2, asr #24
 8000d80:	bf18      	it	ne
 8000d82:	ea7f 6c23 	mvnsne.w	ip, r3, asr #24
 8000d86:	d021      	beq.n	8000dcc <__addsf3+0x140>
 8000d88:	ea92 0f03 	teq	r2, r3
 8000d8c:	d004      	beq.n	8000d98 <__addsf3+0x10c>
 8000d8e:	f092 0f00 	teq	r2, #0
 8000d92:	bf08      	it	eq
 8000d94:	4608      	moveq	r0, r1
 8000d96:	4770      	bx	lr
 8000d98:	ea90 0f01 	teq	r0, r1
 8000d9c:	bf1c      	itt	ne
 8000d9e:	2000      	movne	r0, #0
 8000da0:	4770      	bxne	lr
 8000da2:	f012 4f7f 	tst.w	r2, #4278190080	@ 0xff000000
 8000da6:	d104      	bne.n	8000db2 <__addsf3+0x126>
 8000da8:	0040      	lsls	r0, r0, #1
 8000daa:	bf28      	it	cs
 8000dac:	f040 4000 	orrcs.w	r0, r0, #2147483648	@ 0x80000000
 8000db0:	4770      	bx	lr
 8000db2:	f112 7200 	adds.w	r2, r2, #33554432	@ 0x2000000
 8000db6:	bf3c      	itt	cc
 8000db8:	f500 0000 	addcc.w	r0, r0, #8388608	@ 0x800000
 8000dbc:	4770      	bxcc	lr
 8000dbe:	f000 4300 	and.w	r3, r0, #2147483648	@ 0x80000000
 8000dc2:	f043 40fe 	orr.w	r0, r3, #2130706432	@ 0x7f000000
 8000dc6:	f440 0000 	orr.w	r0, r0, #8388608	@ 0x800000
 8000dca:	4770      	bx	lr
 8000dcc:	ea7f 6222 	mvns.w	r2, r2, asr #24
 8000dd0:	bf16      	itet	ne
 8000dd2:	4608      	movne	r0, r1
 8000dd4:	ea7f 6323 	mvnseq.w	r3, r3, asr #24
 8000dd8:	4601      	movne	r1, r0
 8000dda:	0242      	lsls	r2, r0, #9
 8000ddc:	bf06      	itte	eq
 8000dde:	ea5f 2341 	movseq.w	r3, r1, lsl #9
 8000de2:	ea90 0f01 	teqeq	r0, r1
 8000de6:	f440 0080 	orrne.w	r0, r0, #4194304	@ 0x400000
 8000dea:	4770      	bx	lr

08000dec <__aeabi_ui2f>:
 8000dec:	f04f 0300 	mov.w	r3, #0
 8000df0:	e004      	b.n	8000dfc <__aeabi_i2f+0x8>
 8000df2:	bf00      	nop

08000df4 <__aeabi_i2f>:
 8000df4:	f010 4300 	ands.w	r3, r0, #2147483648	@ 0x80000000
 8000df8:	bf48      	it	mi
 8000dfa:	4240      	negmi	r0, r0
 8000dfc:	ea5f 0c00 	movs.w	ip, r0
 8000e00:	bf08      	it	eq
 8000e02:	4770      	bxeq	lr
 8000e04:	f043 4396 	orr.w	r3, r3, #1258291200	@ 0x4b000000
 8000e08:	4601      	mov	r1, r0
 8000e0a:	f04f 0000 	mov.w	r0, #0
 8000e0e:	e01c      	b.n	8000e4a <__aeabi_l2f+0x2a>

08000e10 <__aeabi_ul2f>:
 8000e10:	ea50 0201 	orrs.w	r2, r0, r1
 8000e14:	bf08      	it	eq
 8000e16:	4770      	bxeq	lr
 8000e18:	f04f 0300 	mov.w	r3, #0
 8000e1c:	e00a      	b.n	8000e34 <__aeabi_l2f+0x14>
 8000e1e:	bf00      	nop

08000e20 <__aeabi_l2f>:
 8000e20:	ea50 0201 	orrs.w	r2, r0, r1
 8000e24:	bf08      	it	eq
 8000e26:	4770      	bxeq	lr
 8000e28:	f011 4300 	ands.w	r3, r1, #2147483648	@ 0x80000000
 8000e2c:	d502      	bpl.n	8000e34 <__aeabi_l2f+0x14>
 8000e2e:	4240      	negs	r0, r0
 8000e30:	eb61 0141 	sbc.w	r1, r1, r1, lsl #1
 8000e34:	ea5f 0c01 	movs.w	ip, r1
 8000e38:	bf02      	ittt	eq
 8000e3a:	4684      	moveq	ip, r0
 8000e3c:	4601      	moveq	r1, r0
 8000e3e:	2000      	moveq	r0, #0
 8000e40:	f043 43b6 	orr.w	r3, r3, #1526726656	@ 0x5b000000
 8000e44:	bf08      	it	eq
 8000e46:	f1a3 5380 	subeq.w	r3, r3, #268435456	@ 0x10000000
 8000e4a:	f5a3 0300 	sub.w	r3, r3, #8388608	@ 0x800000
 8000e4e:	fabc f28c 	clz	r2, ip
 8000e52:	3a08      	subs	r2, #8
 8000e54:	eba3 53c2 	sub.w	r3, r3, r2, lsl #23
 8000e58:	db10      	blt.n	8000e7c <__aeabi_l2f+0x5c>
 8000e5a:	fa01 fc02 	lsl.w	ip, r1, r2
 8000e5e:	4463      	add	r3, ip
 8000e60:	fa00 fc02 	lsl.w	ip, r0, r2
 8000e64:	f1c2 0220 	rsb	r2, r2, #32
 8000e68:	f1bc 4f00 	cmp.w	ip, #2147483648	@ 0x80000000
 8000e6c:	fa20 f202 	lsr.w	r2, r0, r2
 8000e70:	eb43 0002 	adc.w	r0, r3, r2
 8000e74:	bf08      	it	eq
 8000e76:	f020 0001 	biceq.w	r0, r0, #1
 8000e7a:	4770      	bx	lr
 8000e7c:	f102 0220 	add.w	r2, r2, #32
 8000e80:	fa01 fc02 	lsl.w	ip, r1, r2
 8000e84:	f1c2 0220 	rsb	r2, r2, #32
 8000e88:	ea50 004c 	orrs.w	r0, r0, ip, lsl #1
 8000e8c:	fa21 f202 	lsr.w	r2, r1, r2
 8000e90:	eb43 0002 	adc.w	r0, r3, r2
 8000e94:	bf08      	it	eq
 8000e96:	ea20 70dc 	biceq.w	r0, r0, ip, lsr #31
 8000e9a:	4770      	bx	lr

08000e9c <main>:
/**
  * @brief  The application entry point.
  * @retval int
  */
int main(void)
{
 8000e9c:	b580      	push	{r7, lr}
 8000e9e:	af00      	add	r7, sp, #0

  /* USER CODE BEGIN 1 */
	  coeff = 2 * cos(omega);
 8000ea0:	4b18      	ldr	r3, [pc, #96]	@ (8000f04 <main+0x68>)
 8000ea2:	4618      	mov	r0, r3
 8000ea4:	f7ff fb6c 	bl	8000580 <__aeabi_f2d>
 8000ea8:	4602      	mov	r2, r0
 8000eaa:	460b      	mov	r3, r1
 8000eac:	4610      	mov	r0, r2
 8000eae:	4619      	mov	r1, r3
 8000eb0:	f002 ff5e 	bl	8003d70 <cos>
 8000eb4:	4602      	mov	r2, r0
 8000eb6:	460b      	mov	r3, r1
 8000eb8:	f7ff fa04 	bl	80002c4 <__adddf3>
 8000ebc:	4602      	mov	r2, r0
 8000ebe:	460b      	mov	r3, r1
 8000ec0:	4610      	mov	r0, r2
 8000ec2:	4619      	mov	r1, r3
 8000ec4:	f7ff fe8c 	bl	8000be0 <__aeabi_d2f>
 8000ec8:	4603      	mov	r3, r0
 8000eca:	4a0f      	ldr	r2, [pc, #60]	@ (8000f08 <main+0x6c>)
 8000ecc:	6013      	str	r3, [r2, #0]
	  mean = 0;
 8000ece:	4b0f      	ldr	r3, [pc, #60]	@ (8000f0c <main+0x70>)
 8000ed0:	f04f 0200 	mov.w	r2, #0
 8000ed4:	601a      	str	r2, [r3, #0]
  /* USER CODE END 1 */

  /* MCU Configuration--------------------------------------------------------*/

  /* Reset of all peripherals, Initializes the Flash interface and the Systick. */
  HAL_Init();
 8000ed6:	f000 fc53 	bl	8001780 <HAL_Init>
  /* USER CODE BEGIN Init */

  /* USER CODE END Init */

  /* Configure the system clock */
  SystemClock_Config();
 8000eda:	f000 f81f 	bl	8000f1c <SystemClock_Config>
  /* USER CODE BEGIN SysInit */

  /* USER CODE END SysInit */

  /* Initialize all configured peripherals */
  MX_GPIO_Init();
 8000ede:	f000 f949 	bl	8001174 <MX_GPIO_Init>
  MX_DMA_Init();
 8000ee2:	f000 f929 	bl	8001138 <MX_DMA_Init>
  MX_ADC1_Init();
 8000ee6:	f000 f875 	bl	8000fd4 <MX_ADC1_Init>
  MX_TIM3_Init();
 8000eea:	f000 f8b1 	bl	8001050 <MX_TIM3_Init>
  /* USER CODE BEGIN 2 */
  HAL_ADC_Start_DMA(&hadc1, (uint32_t*)adc_buffer, N);
 8000eee:	f44f 72f0 	mov.w	r2, #480	@ 0x1e0
 8000ef2:	4907      	ldr	r1, [pc, #28]	@ (8000f10 <main+0x74>)
 8000ef4:	4807      	ldr	r0, [pc, #28]	@ (8000f14 <main+0x78>)
 8000ef6:	f000 fd7d 	bl	80019f4 <HAL_ADC_Start_DMA>
  HAL_TIM_Base_Start(&htim3);
 8000efa:	4807      	ldr	r0, [pc, #28]	@ (8000f18 <main+0x7c>)
 8000efc:	f002 f9d8 	bl	80032b0 <HAL_TIM_Base_Start>
  /* USER CODE END 2 */

  /* Infinite loop */
  /* USER CODE BEGIN WHILE */
  while (1)
 8000f00:	bf00      	nop
 8000f02:	e7fd      	b.n	8000f00 <main+0x64>
 8000f04:	3fb84e88 	.word	0x3fb84e88
 8000f08:	20000508 	.word	0x20000508
 8000f0c:	2000050c 	.word	0x2000050c
 8000f10:	20000148 	.word	0x20000148
 8000f14:	2000008c 	.word	0x2000008c
 8000f18:	20000100 	.word	0x20000100

08000f1c <SystemClock_Config>:
/**
  * @brief System Clock Configuration
  * @retval None
  */
void SystemClock_Config(void)
{
 8000f1c:	b580      	push	{r7, lr}
 8000f1e:	b094      	sub	sp, #80	@ 0x50
 8000f20:	af00      	add	r7, sp, #0
  RCC_OscInitTypeDef RCC_OscInitStruct = {0};
 8000f22:	f107 0328 	add.w	r3, r7, #40	@ 0x28
 8000f26:	2228      	movs	r2, #40	@ 0x28
 8000f28:	2100      	movs	r1, #0
 8000f2a:	4618      	mov	r0, r3
 8000f2c:	f002 feca 	bl	8003cc4 <memset>
  RCC_ClkInitTypeDef RCC_ClkInitStruct = {0};
 8000f30:	f107 0314 	add.w	r3, r7, #20
 8000f34:	2200      	movs	r2, #0
 8000f36:	601a      	str	r2, [r3, #0]
 8000f38:	605a      	str	r2, [r3, #4]
 8000f3a:	609a      	str	r2, [r3, #8]
 8000f3c:	60da      	str	r2, [r3, #12]
 8000f3e:	611a      	str	r2, [r3, #16]
  RCC_PeriphCLKInitTypeDef PeriphClkInit = {0};
 8000f40:	1d3b      	adds	r3, r7, #4
 8000f42:	2200      	movs	r2, #0
 8000f44:	601a      	str	r2, [r3, #0]
 8000f46:	605a      	str	r2, [r3, #4]
 8000f48:	609a      	str	r2, [r3, #8]
 8000f4a:	60da      	str	r2, [r3, #12]

  /** Initializes the RCC Oscillators according to the specified parameters
  * in the RCC_OscInitTypeDef structure.
  */
  RCC_OscInitStruct.OscillatorType = RCC_OSCILLATORTYPE_HSE;
 8000f4c:	2301      	movs	r3, #1
 8000f4e:	62bb      	str	r3, [r7, #40]	@ 0x28
  RCC_OscInitStruct.HSEState = RCC_HSE_ON;
 8000f50:	f44f 3380 	mov.w	r3, #65536	@ 0x10000
 8000f54:	62fb      	str	r3, [r7, #44]	@ 0x2c
  RCC_OscInitStruct.HSEPredivValue = RCC_HSE_PREDIV_DIV1;
 8000f56:	2300      	movs	r3, #0
 8000f58:	633b      	str	r3, [r7, #48]	@ 0x30
  RCC_OscInitStruct.HSIState = RCC_HSI_ON;
 8000f5a:	2301      	movs	r3, #1
 8000f5c:	63bb      	str	r3, [r7, #56]	@ 0x38
  RCC_OscInitStruct.PLL.PLLState = RCC_PLL_ON;
 8000f5e:	2302      	movs	r3, #2
 8000f60:	647b      	str	r3, [r7, #68]	@ 0x44
  RCC_OscInitStruct.PLL.PLLSource = RCC_PLLSOURCE_HSE;
 8000f62:	f44f 3380 	mov.w	r3, #65536	@ 0x10000
 8000f66:	64bb      	str	r3, [r7, #72]	@ 0x48
  RCC_OscInitStruct.PLL.PLLMUL = RCC_PLL_MUL9;
 8000f68:	f44f 13e0 	mov.w	r3, #1835008	@ 0x1c0000
 8000f6c:	64fb      	str	r3, [r7, #76]	@ 0x4c
  if (HAL_RCC_OscConfig(&RCC_OscInitStruct) != HAL_OK)
 8000f6e:	f107 0328 	add.w	r3, r7, #40	@ 0x28
 8000f72:	4618      	mov	r0, r3
 8000f74:	f001 fcb8 	bl	80028e8 <HAL_RCC_OscConfig>
 8000f78:	4603      	mov	r3, r0
 8000f7a:	2b00      	cmp	r3, #0
 8000f7c:	d001      	beq.n	8000f82 <SystemClock_Config+0x66>
  {
    Error_Handler();
 8000f7e:	f000 fadf 	bl	8001540 <Error_Handler>
  }

  /** Initializes the CPU, AHB and APB buses clocks
  */
  RCC_ClkInitStruct.ClockType = RCC_CLOCKTYPE_HCLK|RCC_CLOCKTYPE_SYSCLK
 8000f82:	230f      	movs	r3, #15
 8000f84:	617b      	str	r3, [r7, #20]
                              |RCC_CLOCKTYPE_PCLK1|RCC_CLOCKTYPE_PCLK2;
  RCC_ClkInitStruct.SYSCLKSource = RCC_SYSCLKSOURCE_PLLCLK;
 8000f86:	2302      	movs	r3, #2
 8000f88:	61bb      	str	r3, [r7, #24]
  RCC_ClkInitStruct.AHBCLKDivider = RCC_SYSCLK_DIV1;
 8000f8a:	2300      	movs	r3, #0
 8000f8c:	61fb      	str	r3, [r7, #28]
  RCC_ClkInitStruct.APB1CLKDivider = RCC_HCLK_DIV2;
 8000f8e:	f44f 6380 	mov.w	r3, #1024	@ 0x400
 8000f92:	623b      	str	r3, [r7, #32]
  RCC_ClkInitStruct.APB2CLKDivider = RCC_HCLK_DIV1;
 8000f94:	2300      	movs	r3, #0
 8000f96:	627b      	str	r3, [r7, #36]	@ 0x24

  if (HAL_RCC_ClockConfig(&RCC_ClkInitStruct, FLASH_LATENCY_2) != HAL_OK)
 8000f98:	f107 0314 	add.w	r3, r7, #20
 8000f9c:	2102      	movs	r1, #2
 8000f9e:	4618      	mov	r0, r3
 8000fa0:	f001 ff24 	bl	8002dec <HAL_RCC_ClockConfig>
 8000fa4:	4603      	mov	r3, r0
 8000fa6:	2b00      	cmp	r3, #0
 8000fa8:	d001      	beq.n	8000fae <SystemClock_Config+0x92>
  {
    Error_Handler();
 8000faa:	f000 fac9 	bl	8001540 <Error_Handler>
  }
  PeriphClkInit.PeriphClockSelection = RCC_PERIPHCLK_ADC;
 8000fae:	2302      	movs	r3, #2
 8000fb0:	607b      	str	r3, [r7, #4]
  PeriphClkInit.AdcClockSelection = RCC_ADCPCLK2_DIV6;
 8000fb2:	f44f 4300 	mov.w	r3, #32768	@ 0x8000
 8000fb6:	60fb      	str	r3, [r7, #12]
  if (HAL_RCCEx_PeriphCLKConfig(&PeriphClkInit) != HAL_OK)
 8000fb8:	1d3b      	adds	r3, r7, #4
 8000fba:	4618      	mov	r0, r3
 8000fbc:	f002 f872 	bl	80030a4 <HAL_RCCEx_PeriphCLKConfig>
 8000fc0:	4603      	mov	r3, r0
 8000fc2:	2b00      	cmp	r3, #0
 8000fc4:	d001      	beq.n	8000fca <SystemClock_Config+0xae>
  {
    Error_Handler();
 8000fc6:	f000 fabb 	bl	8001540 <Error_Handler>
  }
}
 8000fca:	bf00      	nop
 8000fcc:	3750      	adds	r7, #80	@ 0x50
 8000fce:	46bd      	mov	sp, r7
 8000fd0:	bd80      	pop	{r7, pc}
	...

08000fd4 <MX_ADC1_Init>:
  * @brief ADC1 Initialization Function
  * @param None
  * @retval None
  */
static void MX_ADC1_Init(void)
{
 8000fd4:	b580      	push	{r7, lr}
 8000fd6:	b084      	sub	sp, #16
 8000fd8:	af00      	add	r7, sp, #0

  /* USER CODE BEGIN ADC1_Init 0 */

  /* USER CODE END ADC1_Init 0 */

  ADC_ChannelConfTypeDef sConfig = {0};
 8000fda:	1d3b      	adds	r3, r7, #4
 8000fdc:	2200      	movs	r2, #0
 8000fde:	601a      	str	r2, [r3, #0]
 8000fe0:	605a      	str	r2, [r3, #4]
 8000fe2:	609a      	str	r2, [r3, #8]

  /* USER CODE END ADC1_Init 1 */

  /** Common config
  */
  hadc1.Instance = ADC1;
 8000fe4:	4b18      	ldr	r3, [pc, #96]	@ (8001048 <MX_ADC1_Init+0x74>)
 8000fe6:	4a19      	ldr	r2, [pc, #100]	@ (800104c <MX_ADC1_Init+0x78>)
 8000fe8:	601a      	str	r2, [r3, #0]
  hadc1.Init.ScanConvMode = ADC_SCAN_DISABLE;
 8000fea:	4b17      	ldr	r3, [pc, #92]	@ (8001048 <MX_ADC1_Init+0x74>)
 8000fec:	2200      	movs	r2, #0
 8000fee:	609a      	str	r2, [r3, #8]
  hadc1.Init.ContinuousConvMode = DISABLE;
 8000ff0:	4b15      	ldr	r3, [pc, #84]	@ (8001048 <MX_ADC1_Init+0x74>)
 8000ff2:	2200      	movs	r2, #0
 8000ff4:	731a      	strb	r2, [r3, #12]
  hadc1.Init.DiscontinuousConvMode = DISABLE;
 8000ff6:	4b14      	ldr	r3, [pc, #80]	@ (8001048 <MX_ADC1_Init+0x74>)
 8000ff8:	2200      	movs	r2, #0
 8000ffa:	751a      	strb	r2, [r3, #20]
  hadc1.Init.ExternalTrigConv = ADC_EXTERNALTRIGCONV_T3_TRGO;
 8000ffc:	4b12      	ldr	r3, [pc, #72]	@ (8001048 <MX_ADC1_Init+0x74>)
 8000ffe:	f44f 2200 	mov.w	r2, #524288	@ 0x80000
 8001002:	61da      	str	r2, [r3, #28]
  hadc1.Init.DataAlign = ADC_DATAALIGN_RIGHT;
 8001004:	4b10      	ldr	r3, [pc, #64]	@ (8001048 <MX_ADC1_Init+0x74>)
 8001006:	2200      	movs	r2, #0
 8001008:	605a      	str	r2, [r3, #4]
  hadc1.Init.NbrOfConversion = 1;
 800100a:	4b0f      	ldr	r3, [pc, #60]	@ (8001048 <MX_ADC1_Init+0x74>)
 800100c:	2201      	movs	r2, #1
 800100e:	611a      	str	r2, [r3, #16]
  if (HAL_ADC_Init(&hadc1) != HAL_OK)
 8001010:	480d      	ldr	r0, [pc, #52]	@ (8001048 <MX_ADC1_Init+0x74>)
 8001012:	f000 fc17 	bl	8001844 <HAL_ADC_Init>
 8001016:	4603      	mov	r3, r0
 8001018:	2b00      	cmp	r3, #0
 800101a:	d001      	beq.n	8001020 <MX_ADC1_Init+0x4c>
  {
    Error_Handler();
 800101c:	f000 fa90 	bl	8001540 <Error_Handler>
  }

  /** Configure Regular Channel
  */
  sConfig.Channel = ADC_CHANNEL_0;
 8001020:	2300      	movs	r3, #0
 8001022:	607b      	str	r3, [r7, #4]
  sConfig.Rank = ADC_REGULAR_RANK_1;
 8001024:	2301      	movs	r3, #1
 8001026:	60bb      	str	r3, [r7, #8]
  sConfig.SamplingTime = ADC_SAMPLETIME_1CYCLE_5;
 8001028:	2300      	movs	r3, #0
 800102a:	60fb      	str	r3, [r7, #12]
  if (HAL_ADC_ConfigChannel(&hadc1, &sConfig) != HAL_OK)
 800102c:	1d3b      	adds	r3, r7, #4
 800102e:	4619      	mov	r1, r3
 8001030:	4805      	ldr	r0, [pc, #20]	@ (8001048 <MX_ADC1_Init+0x74>)
 8001032:	f000 fdc7 	bl	8001bc4 <HAL_ADC_ConfigChannel>
 8001036:	4603      	mov	r3, r0
 8001038:	2b00      	cmp	r3, #0
 800103a:	d001      	beq.n	8001040 <MX_ADC1_Init+0x6c>
  {
    Error_Handler();
 800103c:	f000 fa80 	bl	8001540 <Error_Handler>
  }
  /* USER CODE BEGIN ADC1_Init 2 */

  /* USER CODE END ADC1_Init 2 */

}
 8001040:	bf00      	nop
 8001042:	3710      	adds	r7, #16
 8001044:	46bd      	mov	sp, r7
 8001046:	bd80      	pop	{r7, pc}
 8001048:	2000008c 	.word	0x2000008c
 800104c:	40012400 	.word	0x40012400

08001050 <MX_TIM3_Init>:
  * @brief TIM3 Initialization Function
  * @param None
  * @retval None
  */
static void MX_TIM3_Init(void)
{
 8001050:	b580      	push	{r7, lr}
 8001052:	b08e      	sub	sp, #56	@ 0x38
 8001054:	af00      	add	r7, sp, #0

  /* USER CODE BEGIN TIM3_Init 0 */

  /* USER CODE END TIM3_Init 0 */

  TIM_ClockConfigTypeDef sClockSourceConfig = {0};
 8001056:	f107 0328 	add.w	r3, r7, #40	@ 0x28
 800105a:	2200      	movs	r2, #0
 800105c:	601a      	str	r2, [r3, #0]
 800105e:	605a      	str	r2, [r3, #4]
 8001060:	609a      	str	r2, [r3, #8]
 8001062:	60da      	str	r2, [r3, #12]
  TIM_MasterConfigTypeDef sMasterConfig = {0};
 8001064:	f107 0320 	add.w	r3, r7, #32
 8001068:	2200      	movs	r2, #0
 800106a:	601a      	str	r2, [r3, #0]
 800106c:	605a      	str	r2, [r3, #4]
  TIM_OC_InitTypeDef sConfigOC = {0};
 800106e:	1d3b      	adds	r3, r7, #4
 8001070:	2200      	movs	r2, #0
 8001072:	601a      	str	r2, [r3, #0]
 8001074:	605a      	str	r2, [r3, #4]
 8001076:	609a      	str	r2, [r3, #8]
 8001078:	60da      	str	r2, [r3, #12]
 800107a:	611a      	str	r2, [r3, #16]
 800107c:	615a      	str	r2, [r3, #20]
 800107e:	619a      	str	r2, [r3, #24]

  /* USER CODE BEGIN TIM3_Init 1 */

  /* USER CODE END TIM3_Init 1 */
  htim3.Instance = TIM3;
 8001080:	4b2b      	ldr	r3, [pc, #172]	@ (8001130 <MX_TIM3_Init+0xe0>)
 8001082:	4a2c      	ldr	r2, [pc, #176]	@ (8001134 <MX_TIM3_Init+0xe4>)
 8001084:	601a      	str	r2, [r3, #0]
  htim3.Init.Prescaler = 2;
 8001086:	4b2a      	ldr	r3, [pc, #168]	@ (8001130 <MX_TIM3_Init+0xe0>)
 8001088:	2202      	movs	r2, #2
 800108a:	605a      	str	r2, [r3, #4]
  htim3.Init.CounterMode = TIM_COUNTERMODE_UP;
 800108c:	4b28      	ldr	r3, [pc, #160]	@ (8001130 <MX_TIM3_Init+0xe0>)
 800108e:	2200      	movs	r2, #0
 8001090:	609a      	str	r2, [r3, #8]
  htim3.Init.Period = 999;
 8001092:	4b27      	ldr	r3, [pc, #156]	@ (8001130 <MX_TIM3_Init+0xe0>)
 8001094:	f240 32e7 	movw	r2, #999	@ 0x3e7
 8001098:	60da      	str	r2, [r3, #12]
  htim3.Init.ClockDivision = TIM_CLOCKDIVISION_DIV1;
 800109a:	4b25      	ldr	r3, [pc, #148]	@ (8001130 <MX_TIM3_Init+0xe0>)
 800109c:	2200      	movs	r2, #0
 800109e:	611a      	str	r2, [r3, #16]
  htim3.Init.AutoReloadPreload = TIM_AUTORELOAD_PRELOAD_DISABLE;
 80010a0:	4b23      	ldr	r3, [pc, #140]	@ (8001130 <MX_TIM3_Init+0xe0>)
 80010a2:	2200      	movs	r2, #0
 80010a4:	619a      	str	r2, [r3, #24]
  if (HAL_TIM_Base_Init(&htim3) != HAL_OK)
 80010a6:	4822      	ldr	r0, [pc, #136]	@ (8001130 <MX_TIM3_Init+0xe0>)
 80010a8:	f002 f8b2 	bl	8003210 <HAL_TIM_Base_Init>
 80010ac:	4603      	mov	r3, r0
 80010ae:	2b00      	cmp	r3, #0
 80010b0:	d001      	beq.n	80010b6 <MX_TIM3_Init+0x66>
  {
    Error_Handler();
 80010b2:	f000 fa45 	bl	8001540 <Error_Handler>
  }
  sClockSourceConfig.ClockSource = TIM_CLOCKSOURCE_INTERNAL;
 80010b6:	f44f 5380 	mov.w	r3, #4096	@ 0x1000
 80010ba:	62bb      	str	r3, [r7, #40]	@ 0x28
  if (HAL_TIM_ConfigClockSource(&htim3, &sClockSourceConfig) != HAL_OK)
 80010bc:	f107 0328 	add.w	r3, r7, #40	@ 0x28
 80010c0:	4619      	mov	r1, r3
 80010c2:	481b      	ldr	r0, [pc, #108]	@ (8001130 <MX_TIM3_Init+0xe0>)
 80010c4:	f002 fa58 	bl	8003578 <HAL_TIM_ConfigClockSource>
 80010c8:	4603      	mov	r3, r0
 80010ca:	2b00      	cmp	r3, #0
 80010cc:	d001      	beq.n	80010d2 <MX_TIM3_Init+0x82>
  {
    Error_Handler();
 80010ce:	f000 fa37 	bl	8001540 <Error_Handler>
  }
  if (HAL_TIM_PWM_Init(&htim3) != HAL_OK)
 80010d2:	4817      	ldr	r0, [pc, #92]	@ (8001130 <MX_TIM3_Init+0xe0>)
 80010d4:	f002 f936 	bl	8003344 <HAL_TIM_PWM_Init>
 80010d8:	4603      	mov	r3, r0
 80010da:	2b00      	cmp	r3, #0
 80010dc:	d001      	beq.n	80010e2 <MX_TIM3_Init+0x92>
  {
    Error_Handler();
 80010de:	f000 fa2f 	bl	8001540 <Error_Handler>
  }
  sMasterConfig.MasterOutputTrigger = TIM_TRGO_UPDATE;
 80010e2:	2320      	movs	r3, #32
 80010e4:	623b      	str	r3, [r7, #32]
  sMasterConfig.MasterSlaveMode = TIM_MASTERSLAVEMODE_DISABLE;
 80010e6:	2300      	movs	r3, #0
 80010e8:	627b      	str	r3, [r7, #36]	@ 0x24
  if (HAL_TIMEx_MasterConfigSynchronization(&htim3, &sMasterConfig) != HAL_OK)
 80010ea:	f107 0320 	add.w	r3, r7, #32
 80010ee:	4619      	mov	r1, r3
 80010f0:	480f      	ldr	r0, [pc, #60]	@ (8001130 <MX_TIM3_Init+0xe0>)
 80010f2:	f002 fd89 	bl	8003c08 <HAL_TIMEx_MasterConfigSynchronization>
 80010f6:	4603      	mov	r3, r0
 80010f8:	2b00      	cmp	r3, #0
 80010fa:	d001      	beq.n	8001100 <MX_TIM3_Init+0xb0>
  {
    Error_Handler();
 80010fc:	f000 fa20 	bl	8001540 <Error_Handler>
  }
  sConfigOC.OCMode = TIM_OCMODE_PWM1;
 8001100:	2360      	movs	r3, #96	@ 0x60
 8001102:	607b      	str	r3, [r7, #4]
  sConfigOC.Pulse = 0;
 8001104:	2300      	movs	r3, #0
 8001106:	60bb      	str	r3, [r7, #8]
  sConfigOC.OCPolarity = TIM_OCPOLARITY_HIGH;
 8001108:	2300      	movs	r3, #0
 800110a:	60fb      	str	r3, [r7, #12]
  sConfigOC.OCFastMode = TIM_OCFAST_DISABLE;
 800110c:	2300      	movs	r3, #0
 800110e:	617b      	str	r3, [r7, #20]
  if (HAL_TIM_PWM_ConfigChannel(&htim3, &sConfigOC, TIM_CHANNEL_1) != HAL_OK)
 8001110:	1d3b      	adds	r3, r7, #4
 8001112:	2200      	movs	r2, #0
 8001114:	4619      	mov	r1, r3
 8001116:	4806      	ldr	r0, [pc, #24]	@ (8001130 <MX_TIM3_Init+0xe0>)
 8001118:	f002 f96c 	bl	80033f4 <HAL_TIM_PWM_ConfigChannel>
 800111c:	4603      	mov	r3, r0
 800111e:	2b00      	cmp	r3, #0
 8001120:	d001      	beq.n	8001126 <MX_TIM3_Init+0xd6>
  {
    Error_Handler();
 8001122:	f000 fa0d 	bl	8001540 <Error_Handler>
  }
  /* USER CODE BEGIN TIM3_Init 2 */

  /* USER CODE END TIM3_Init 2 */

}
 8001126:	bf00      	nop
 8001128:	3738      	adds	r7, #56	@ 0x38
 800112a:	46bd      	mov	sp, r7
 800112c:	bd80      	pop	{r7, pc}
 800112e:	bf00      	nop
 8001130:	20000100 	.word	0x20000100
 8001134:	40000400 	.word	0x40000400

08001138 <MX_DMA_Init>:

/**
  * Enable DMA controller clock
  */
static void MX_DMA_Init(void)
{
 8001138:	b580      	push	{r7, lr}
 800113a:	b082      	sub	sp, #8
 800113c:	af00      	add	r7, sp, #0

  /* DMA controller clock enable */
  __HAL_RCC_DMA1_CLK_ENABLE();
 800113e:	4b0c      	ldr	r3, [pc, #48]	@ (8001170 <MX_DMA_Init+0x38>)
 8001140:	695b      	ldr	r3, [r3, #20]
 8001142:	4a0b      	ldr	r2, [pc, #44]	@ (8001170 <MX_DMA_Init+0x38>)
 8001144:	f043 0301 	orr.w	r3, r3, #1
 8001148:	6153      	str	r3, [r2, #20]
 800114a:	4b09      	ldr	r3, [pc, #36]	@ (8001170 <MX_DMA_Init+0x38>)
 800114c:	695b      	ldr	r3, [r3, #20]
 800114e:	f003 0301 	and.w	r3, r3, #1
 8001152:	607b      	str	r3, [r7, #4]
 8001154:	687b      	ldr	r3, [r7, #4]

  /* DMA interrupt init */
  /* DMA1_Channel1_IRQn interrupt configuration */
  HAL_NVIC_SetPriority(DMA1_Channel1_IRQn, 0, 0);
 8001156:	2200      	movs	r2, #0
 8001158:	2100      	movs	r1, #0
 800115a:	200b      	movs	r0, #11
 800115c:	f001 f803 	bl	8002166 <HAL_NVIC_SetPriority>
  HAL_NVIC_EnableIRQ(DMA1_Channel1_IRQn);
 8001160:	200b      	movs	r0, #11
 8001162:	f001 f81c 	bl	800219e <HAL_NVIC_EnableIRQ>

}
 8001166:	bf00      	nop
 8001168:	3708      	adds	r7, #8
 800116a:	46bd      	mov	sp, r7
 800116c:	bd80      	pop	{r7, pc}
 800116e:	bf00      	nop
 8001170:	40021000 	.word	0x40021000

08001174 <MX_GPIO_Init>:
  * @brief GPIO Initialization Function
  * @param None
  * @retval None
  */
static void MX_GPIO_Init(void)
{
 8001174:	b580      	push	{r7, lr}
 8001176:	b088      	sub	sp, #32
 8001178:	af00      	add	r7, sp, #0
  GPIO_InitTypeDef GPIO_InitStruct = {0};
 800117a:	f107 0310 	add.w	r3, r7, #16
 800117e:	2200      	movs	r2, #0
 8001180:	601a      	str	r2, [r3, #0]
 8001182:	605a      	str	r2, [r3, #4]
 8001184:	609a      	str	r2, [r3, #8]
 8001186:	60da      	str	r2, [r3, #12]
/* USER CODE BEGIN MX_GPIO_Init_1 */
/* USER CODE END MX_GPIO_Init_1 */

  /* GPIO Ports Clock Enable */
  __HAL_RCC_GPIOC_CLK_ENABLE();
 8001188:	4b1e      	ldr	r3, [pc, #120]	@ (8001204 <MX_GPIO_Init+0x90>)
 800118a:	699b      	ldr	r3, [r3, #24]
 800118c:	4a1d      	ldr	r2, [pc, #116]	@ (8001204 <MX_GPIO_Init+0x90>)
 800118e:	f043 0310 	orr.w	r3, r3, #16
 8001192:	6193      	str	r3, [r2, #24]
 8001194:	4b1b      	ldr	r3, [pc, #108]	@ (8001204 <MX_GPIO_Init+0x90>)
 8001196:	699b      	ldr	r3, [r3, #24]
 8001198:	f003 0310 	and.w	r3, r3, #16
 800119c:	60fb      	str	r3, [r7, #12]
 800119e:	68fb      	ldr	r3, [r7, #12]
  __HAL_RCC_GPIOD_CLK_ENABLE();
 80011a0:	4b18      	ldr	r3, [pc, #96]	@ (8001204 <MX_GPIO_Init+0x90>)
 80011a2:	699b      	ldr	r3, [r3, #24]
 80011a4:	4a17      	ldr	r2, [pc, #92]	@ (8001204 <MX_GPIO_Init+0x90>)
 80011a6:	f043 0320 	orr.w	r3, r3, #32
 80011aa:	6193      	str	r3, [r2, #24]
 80011ac:	4b15      	ldr	r3, [pc, #84]	@ (8001204 <MX_GPIO_Init+0x90>)
 80011ae:	699b      	ldr	r3, [r3, #24]
 80011b0:	f003 0320 	and.w	r3, r3, #32
 80011b4:	60bb      	str	r3, [r7, #8]
 80011b6:	68bb      	ldr	r3, [r7, #8]
  __HAL_RCC_GPIOA_CLK_ENABLE();
 80011b8:	4b12      	ldr	r3, [pc, #72]	@ (8001204 <MX_GPIO_Init+0x90>)
 80011ba:	699b      	ldr	r3, [r3, #24]
 80011bc:	4a11      	ldr	r2, [pc, #68]	@ (8001204 <MX_GPIO_Init+0x90>)
 80011be:	f043 0304 	orr.w	r3, r3, #4
 80011c2:	6193      	str	r3, [r2, #24]
 80011c4:	4b0f      	ldr	r3, [pc, #60]	@ (8001204 <MX_GPIO_Init+0x90>)
 80011c6:	699b      	ldr	r3, [r3, #24]
 80011c8:	f003 0304 	and.w	r3, r3, #4
 80011cc:	607b      	str	r3, [r7, #4]
 80011ce:	687b      	ldr	r3, [r7, #4]

  /*Configure GPIO pin Output Level */
  HAL_GPIO_WritePin(GPIOC, GPIO_PIN_13, GPIO_PIN_RESET);
 80011d0:	2200      	movs	r2, #0
 80011d2:	f44f 5100 	mov.w	r1, #8192	@ 0x2000
 80011d6:	480c      	ldr	r0, [pc, #48]	@ (8001208 <MX_GPIO_Init+0x94>)
 80011d8:	f001 fb6e 	bl	80028b8 <HAL_GPIO_WritePin>

  /*Configure GPIO pin : PC13 */
  GPIO_InitStruct.Pin = GPIO_PIN_13;
 80011dc:	f44f 5300 	mov.w	r3, #8192	@ 0x2000
 80011e0:	613b      	str	r3, [r7, #16]
  GPIO_InitStruct.Mode = GPIO_MODE_OUTPUT_PP;
 80011e2:	2301      	movs	r3, #1
 80011e4:	617b      	str	r3, [r7, #20]
  GPIO_InitStruct.Pull = GPIO_NOPULL;
 80011e6:	2300      	movs	r3, #0
 80011e8:	61bb      	str	r3, [r7, #24]
  GPIO_InitStruct.Speed = GPIO_SPEED_FREQ_LOW;
 80011ea:	2302      	movs	r3, #2
 80011ec:	61fb      	str	r3, [r7, #28]
  HAL_GPIO_Init(GPIOC, &GPIO_InitStruct);
 80011ee:	f107 0310 	add.w	r3, r7, #16
 80011f2:	4619      	mov	r1, r3
 80011f4:	4804      	ldr	r0, [pc, #16]	@ (8001208 <MX_GPIO_Init+0x94>)
 80011f6:	f001 f9db 	bl	80025b0 <HAL_GPIO_Init>

/* USER CODE BEGIN MX_GPIO_Init_2 */
/* USER CODE END MX_GPIO_Init_2 */
}
 80011fa:	bf00      	nop
 80011fc:	3720      	adds	r7, #32
 80011fe:	46bd      	mov	sp, r7
 8001200:	bd80      	pop	{r7, pc}
 8001202:	bf00      	nop
 8001204:	40021000 	.word	0x40021000
 8001208:	40011000 	.word	0x40011000
 800120c:	00000000 	.word	0x00000000

08001210 <HAL_ADC_ConvHalfCpltCallback>:

/* USER CODE BEGIN 4 */
void HAL_ADC_ConvHalfCpltCallback(ADC_HandleTypeDef* adc)
{
 8001210:	b5b0      	push	{r4, r5, r7, lr}
 8001212:	b088      	sub	sp, #32
 8001214:	af00      	add	r7, sp, #0
 8001216:	6078      	str	r0, [r7, #4]
	float Q0 = 0;
 8001218:	f04f 0300 	mov.w	r3, #0
 800121c:	613b      	str	r3, [r7, #16]
	float Q1 = 0;
 800121e:	f04f 0300 	mov.w	r3, #0
 8001222:	61fb      	str	r3, [r7, #28]
	float Q2 = 0;
 8001224:	f04f 0300 	mov.w	r3, #0
 8001228:	61bb      	str	r3, [r7, #24]
	for(uint32_t n = 0; n < halfN; n++)
 800122a:	2300      	movs	r3, #0
 800122c:	617b      	str	r3, [r7, #20]
 800122e:	e021      	b.n	8001274 <HAL_ADC_ConvHalfCpltCallback+0x64>
	{
		Q0 = coeff * Q1 - Q2 + adc_buffer[n];
 8001230:	4b59      	ldr	r3, [pc, #356]	@ (8001398 <HAL_ADC_ConvHalfCpltCallback+0x188>)
 8001232:	681b      	ldr	r3, [r3, #0]
 8001234:	69f9      	ldr	r1, [r7, #28]
 8001236:	4618      	mov	r0, r3
 8001238:	f7fe ff8a 	bl	8000150 <__aeabi_fmul>
 800123c:	4603      	mov	r3, r0
 800123e:	69b9      	ldr	r1, [r7, #24]
 8001240:	4618      	mov	r0, r3
 8001242:	f7ff fd21 	bl	8000c88 <__aeabi_fsub>
 8001246:	4603      	mov	r3, r0
 8001248:	461c      	mov	r4, r3
 800124a:	4a54      	ldr	r2, [pc, #336]	@ (800139c <HAL_ADC_ConvHalfCpltCallback+0x18c>)
 800124c:	697b      	ldr	r3, [r7, #20]
 800124e:	f832 3013 	ldrh.w	r3, [r2, r3, lsl #1]
 8001252:	4618      	mov	r0, r3
 8001254:	f7ff fdce 	bl	8000df4 <__aeabi_i2f>
 8001258:	4603      	mov	r3, r0
 800125a:	4619      	mov	r1, r3
 800125c:	4620      	mov	r0, r4
 800125e:	f7ff fd15 	bl	8000c8c <__addsf3>
 8001262:	4603      	mov	r3, r0
 8001264:	613b      	str	r3, [r7, #16]
		Q2 = Q1;
 8001266:	69fb      	ldr	r3, [r7, #28]
 8001268:	61bb      	str	r3, [r7, #24]
		Q1 = Q0;
 800126a:	693b      	ldr	r3, [r7, #16]
 800126c:	61fb      	str	r3, [r7, #28]
	for(uint32_t n = 0; n < halfN; n++)
 800126e:	697b      	ldr	r3, [r7, #20]
 8001270:	3301      	adds	r3, #1
 8001272:	617b      	str	r3, [r7, #20]
 8001274:	697b      	ldr	r3, [r7, #20]
 8001276:	2bef      	cmp	r3, #239	@ 0xef
 8001278:	d9da      	bls.n	8001230 <HAL_ADC_ConvHalfCpltCallback+0x20>
	}
	float mag = sqrt(Q1 * Q1 + Q2 * Q2 - Q1 * Q2 * coeff);
 800127a:	69f9      	ldr	r1, [r7, #28]
 800127c:	69f8      	ldr	r0, [r7, #28]
 800127e:	f7fe ff67 	bl	8000150 <__aeabi_fmul>
 8001282:	4603      	mov	r3, r0
 8001284:	461c      	mov	r4, r3
 8001286:	69b9      	ldr	r1, [r7, #24]
 8001288:	69b8      	ldr	r0, [r7, #24]
 800128a:	f7fe ff61 	bl	8000150 <__aeabi_fmul>
 800128e:	4603      	mov	r3, r0
 8001290:	4619      	mov	r1, r3
 8001292:	4620      	mov	r0, r4
 8001294:	f7ff fcfa 	bl	8000c8c <__addsf3>
 8001298:	4603      	mov	r3, r0
 800129a:	461c      	mov	r4, r3
 800129c:	69b9      	ldr	r1, [r7, #24]
 800129e:	69f8      	ldr	r0, [r7, #28]
 80012a0:	f7fe ff56 	bl	8000150 <__aeabi_fmul>
 80012a4:	4603      	mov	r3, r0
 80012a6:	461a      	mov	r2, r3
 80012a8:	4b3b      	ldr	r3, [pc, #236]	@ (8001398 <HAL_ADC_ConvHalfCpltCallback+0x188>)
 80012aa:	681b      	ldr	r3, [r3, #0]
 80012ac:	4619      	mov	r1, r3
 80012ae:	4610      	mov	r0, r2
 80012b0:	f7fe ff4e 	bl	8000150 <__aeabi_fmul>
 80012b4:	4603      	mov	r3, r0
 80012b6:	4619      	mov	r1, r3
 80012b8:	4620      	mov	r0, r4
 80012ba:	f7ff fce5 	bl	8000c88 <__aeabi_fsub>
 80012be:	4603      	mov	r3, r0
 80012c0:	4618      	mov	r0, r3
 80012c2:	f7ff f95d 	bl	8000580 <__aeabi_f2d>
 80012c6:	4602      	mov	r2, r0
 80012c8:	460b      	mov	r3, r1
 80012ca:	4610      	mov	r0, r2
 80012cc:	4619      	mov	r1, r3
 80012ce:	f002 fd2b 	bl	8003d28 <sqrt>
 80012d2:	4602      	mov	r2, r0
 80012d4:	460b      	mov	r3, r1
 80012d6:	4610      	mov	r0, r2
 80012d8:	4619      	mov	r1, r3
 80012da:	f7ff fc81 	bl	8000be0 <__aeabi_d2f>
 80012de:	4603      	mov	r3, r0
 80012e0:	60fb      	str	r3, [r7, #12]

	mean  = 0.998*mean + 0.002*mag;
 80012e2:	4b2f      	ldr	r3, [pc, #188]	@ (80013a0 <HAL_ADC_ConvHalfCpltCallback+0x190>)
 80012e4:	681b      	ldr	r3, [r3, #0]
 80012e6:	4618      	mov	r0, r3
 80012e8:	f7ff f94a 	bl	8000580 <__aeabi_f2d>
 80012ec:	a324      	add	r3, pc, #144	@ (adr r3, 8001380 <HAL_ADC_ConvHalfCpltCallback+0x170>)
 80012ee:	e9d3 2300 	ldrd	r2, r3, [r3]
 80012f2:	f7ff f99d 	bl	8000630 <__aeabi_dmul>
 80012f6:	4602      	mov	r2, r0
 80012f8:	460b      	mov	r3, r1
 80012fa:	4614      	mov	r4, r2
 80012fc:	461d      	mov	r5, r3
 80012fe:	68f8      	ldr	r0, [r7, #12]
 8001300:	f7ff f93e 	bl	8000580 <__aeabi_f2d>
 8001304:	a320      	add	r3, pc, #128	@ (adr r3, 8001388 <HAL_ADC_ConvHalfCpltCallback+0x178>)
 8001306:	e9d3 2300 	ldrd	r2, r3, [r3]
 800130a:	f7ff f991 	bl	8000630 <__aeabi_dmul>
 800130e:	4602      	mov	r2, r0
 8001310:	460b      	mov	r3, r1
 8001312:	4620      	mov	r0, r4
 8001314:	4629      	mov	r1, r5
 8001316:	f7fe ffd5 	bl	80002c4 <__adddf3>
 800131a:	4602      	mov	r2, r0
 800131c:	460b      	mov	r3, r1
 800131e:	4610      	mov	r0, r2
 8001320:	4619      	mov	r1, r3
 8001322:	f7ff fc5d 	bl	8000be0 <__aeabi_d2f>
 8001326:	4603      	mov	r3, r0
 8001328:	4a1d      	ldr	r2, [pc, #116]	@ (80013a0 <HAL_ADC_ConvHalfCpltCallback+0x190>)
 800132a:	6013      	str	r3, [r2, #0]

	if(mag > mean*(0.575/0.8725))
 800132c:	68f8      	ldr	r0, [r7, #12]
 800132e:	f7ff f927 	bl	8000580 <__aeabi_f2d>
 8001332:	4604      	mov	r4, r0
 8001334:	460d      	mov	r5, r1
 8001336:	4b1a      	ldr	r3, [pc, #104]	@ (80013a0 <HAL_ADC_ConvHalfCpltCallback+0x190>)
 8001338:	681b      	ldr	r3, [r3, #0]
 800133a:	4618      	mov	r0, r3
 800133c:	f7ff f920 	bl	8000580 <__aeabi_f2d>
 8001340:	a313      	add	r3, pc, #76	@ (adr r3, 8001390 <HAL_ADC_ConvHalfCpltCallback+0x180>)
 8001342:	e9d3 2300 	ldrd	r2, r3, [r3]
 8001346:	f7ff f973 	bl	8000630 <__aeabi_dmul>
 800134a:	4602      	mov	r2, r0
 800134c:	460b      	mov	r3, r1
 800134e:	4620      	mov	r0, r4
 8001350:	4629      	mov	r1, r5
 8001352:	f7ff fbfd 	bl	8000b50 <__aeabi_dcmpgt>
 8001356:	4603      	mov	r3, r0
 8001358:	2b00      	cmp	r3, #0
 800135a:	d006      	beq.n	800136a <HAL_ADC_ConvHalfCpltCallback+0x15a>
	{
		HAL_GPIO_WritePin(GPIOC, GPIO_PIN_13, 1);
 800135c:	2201      	movs	r2, #1
 800135e:	f44f 5100 	mov.w	r1, #8192	@ 0x2000
 8001362:	4810      	ldr	r0, [pc, #64]	@ (80013a4 <HAL_ADC_ConvHalfCpltCallback+0x194>)
 8001364:	f001 faa8 	bl	80028b8 <HAL_GPIO_WritePin>
	}
	else
	{
		HAL_GPIO_WritePin(GPIOC, GPIO_PIN_13, 0);
	}
}
 8001368:	e005      	b.n	8001376 <HAL_ADC_ConvHalfCpltCallback+0x166>
		HAL_GPIO_WritePin(GPIOC, GPIO_PIN_13, 0);
 800136a:	2200      	movs	r2, #0
 800136c:	f44f 5100 	mov.w	r1, #8192	@ 0x2000
 8001370:	480c      	ldr	r0, [pc, #48]	@ (80013a4 <HAL_ADC_ConvHalfCpltCallback+0x194>)
 8001372:	f001 faa1 	bl	80028b8 <HAL_GPIO_WritePin>
}
 8001376:	bf00      	nop
 8001378:	3720      	adds	r7, #32
 800137a:	46bd      	mov	sp, r7
 800137c:	bdb0      	pop	{r4, r5, r7, pc}
 800137e:	bf00      	nop
 8001380:	b22d0e56 	.word	0xb22d0e56
 8001384:	3fefef9d 	.word	0x3fefef9d
 8001388:	d2f1a9fc 	.word	0xd2f1a9fc
 800138c:	3f60624d 	.word	0x3f60624d
 8001390:	3fd10def 	.word	0x3fd10def
 8001394:	3fe516bd 	.word	0x3fe516bd
 8001398:	20000508 	.word	0x20000508
 800139c:	20000148 	.word	0x20000148
 80013a0:	2000050c 	.word	0x2000050c
 80013a4:	40011000 	.word	0x40011000

080013a8 <HAL_ADC_ConvCpltCallback>:

void HAL_ADC_ConvCpltCallback(ADC_HandleTypeDef* adc)
{
 80013a8:	b5b0      	push	{r4, r5, r7, lr}
 80013aa:	b088      	sub	sp, #32
 80013ac:	af00      	add	r7, sp, #0
 80013ae:	6078      	str	r0, [r7, #4]
	float Q0 = 0;
 80013b0:	f04f 0300 	mov.w	r3, #0
 80013b4:	613b      	str	r3, [r7, #16]
	float Q1 = 0;
 80013b6:	f04f 0300 	mov.w	r3, #0
 80013ba:	61fb      	str	r3, [r7, #28]
	float Q2 = 0;
 80013bc:	f04f 0300 	mov.w	r3, #0
 80013c0:	61bb      	str	r3, [r7, #24]
	for(uint32_t n = halfN; n < N; n++)
 80013c2:	23f0      	movs	r3, #240	@ 0xf0
 80013c4:	617b      	str	r3, [r7, #20]
 80013c6:	e021      	b.n	800140c <HAL_ADC_ConvCpltCallback+0x64>
	{
		Q0 = coeff * Q1 - Q2 + adc_buffer[n];
 80013c8:	4b59      	ldr	r3, [pc, #356]	@ (8001530 <HAL_ADC_ConvCpltCallback+0x188>)
 80013ca:	681b      	ldr	r3, [r3, #0]
 80013cc:	69f9      	ldr	r1, [r7, #28]
 80013ce:	4618      	mov	r0, r3
 80013d0:	f7fe febe 	bl	8000150 <__aeabi_fmul>
 80013d4:	4603      	mov	r3, r0
 80013d6:	69b9      	ldr	r1, [r7, #24]
 80013d8:	4618      	mov	r0, r3
 80013da:	f7ff fc55 	bl	8000c88 <__aeabi_fsub>
 80013de:	4603      	mov	r3, r0
 80013e0:	461c      	mov	r4, r3
 80013e2:	4a54      	ldr	r2, [pc, #336]	@ (8001534 <HAL_ADC_ConvCpltCallback+0x18c>)
 80013e4:	697b      	ldr	r3, [r7, #20]
 80013e6:	f832 3013 	ldrh.w	r3, [r2, r3, lsl #1]
 80013ea:	4618      	mov	r0, r3
 80013ec:	f7ff fd02 	bl	8000df4 <__aeabi_i2f>
 80013f0:	4603      	mov	r3, r0
 80013f2:	4619      	mov	r1, r3
 80013f4:	4620      	mov	r0, r4
 80013f6:	f7ff fc49 	bl	8000c8c <__addsf3>
 80013fa:	4603      	mov	r3, r0
 80013fc:	613b      	str	r3, [r7, #16]
		Q2 = Q1;
 80013fe:	69fb      	ldr	r3, [r7, #28]
 8001400:	61bb      	str	r3, [r7, #24]
		Q1 = Q0;
 8001402:	693b      	ldr	r3, [r7, #16]
 8001404:	61fb      	str	r3, [r7, #28]
	for(uint32_t n = halfN; n < N; n++)
 8001406:	697b      	ldr	r3, [r7, #20]
 8001408:	3301      	adds	r3, #1
 800140a:	617b      	str	r3, [r7, #20]
 800140c:	697b      	ldr	r3, [r7, #20]
 800140e:	f5b3 7ff0 	cmp.w	r3, #480	@ 0x1e0
 8001412:	d3d9      	bcc.n	80013c8 <HAL_ADC_ConvCpltCallback+0x20>
	}
	float mag = sqrt(Q1 * Q1 + Q2 * Q2 - Q1 * Q2 * coeff);
 8001414:	69f9      	ldr	r1, [r7, #28]
 8001416:	69f8      	ldr	r0, [r7, #28]
 8001418:	f7fe fe9a 	bl	8000150 <__aeabi_fmul>
 800141c:	4603      	mov	r3, r0
 800141e:	461c      	mov	r4, r3
 8001420:	69b9      	ldr	r1, [r7, #24]
 8001422:	69b8      	ldr	r0, [r7, #24]
 8001424:	f7fe fe94 	bl	8000150 <__aeabi_fmul>
 8001428:	4603      	mov	r3, r0
 800142a:	4619      	mov	r1, r3
 800142c:	4620      	mov	r0, r4
 800142e:	f7ff fc2d 	bl	8000c8c <__addsf3>
 8001432:	4603      	mov	r3, r0
 8001434:	461c      	mov	r4, r3
 8001436:	69b9      	ldr	r1, [r7, #24]
 8001438:	69f8      	ldr	r0, [r7, #28]
 800143a:	f7fe fe89 	bl	8000150 <__aeabi_fmul>
 800143e:	4603      	mov	r3, r0
 8001440:	461a      	mov	r2, r3
 8001442:	4b3b      	ldr	r3, [pc, #236]	@ (8001530 <HAL_ADC_ConvCpltCallback+0x188>)
 8001444:	681b      	ldr	r3, [r3, #0]
 8001446:	4619      	mov	r1, r3
 8001448:	4610      	mov	r0, r2
 800144a:	f7fe fe81 	bl	8000150 <__aeabi_fmul>
 800144e:	4603      	mov	r3, r0
 8001450:	4619      	mov	r1, r3
 8001452:	4620      	mov	r0, r4
 8001454:	f7ff fc18 	bl	8000c88 <__aeabi_fsub>
 8001458:	4603      	mov	r3, r0
 800145a:	4618      	mov	r0, r3
 800145c:	f7ff f890 	bl	8000580 <__aeabi_f2d>
 8001460:	4602      	mov	r2, r0
 8001462:	460b      	mov	r3, r1
 8001464:	4610      	mov	r0, r2
 8001466:	4619      	mov	r1, r3
 8001468:	f002 fc5e 	bl	8003d28 <sqrt>
 800146c:	4602      	mov	r2, r0
 800146e:	460b      	mov	r3, r1
 8001470:	4610      	mov	r0, r2
 8001472:	4619      	mov	r1, r3
 8001474:	f7ff fbb4 	bl	8000be0 <__aeabi_d2f>
 8001478:	4603      	mov	r3, r0
 800147a:	60fb      	str	r3, [r7, #12]

	mean  = 0.998*mean + 0.002*mag;
 800147c:	4b2e      	ldr	r3, [pc, #184]	@ (8001538 <HAL_ADC_ConvCpltCallback+0x190>)
 800147e:	681b      	ldr	r3, [r3, #0]
 8001480:	4618      	mov	r0, r3
 8001482:	f7ff f87d 	bl	8000580 <__aeabi_f2d>
 8001486:	a324      	add	r3, pc, #144	@ (adr r3, 8001518 <HAL_ADC_ConvCpltCallback+0x170>)
 8001488:	e9d3 2300 	ldrd	r2, r3, [r3]
 800148c:	f7ff f8d0 	bl	8000630 <__aeabi_dmul>
 8001490:	4602      	mov	r2, r0
 8001492:	460b      	mov	r3, r1
 8001494:	4614      	mov	r4, r2
 8001496:	461d      	mov	r5, r3
 8001498:	68f8      	ldr	r0, [r7, #12]
 800149a:	f7ff f871 	bl	8000580 <__aeabi_f2d>
 800149e:	a320      	add	r3, pc, #128	@ (adr r3, 8001520 <HAL_ADC_ConvCpltCallback+0x178>)
 80014a0:	e9d3 2300 	ldrd	r2, r3, [r3]
 80014a4:	f7ff f8c4 	bl	8000630 <__aeabi_dmul>
 80014a8:	4602      	mov	r2, r0
 80014aa:	460b      	mov	r3, r1
 80014ac:	4620      	mov	r0, r4
 80014ae:	4629      	mov	r1, r5
 80014b0:	f7fe ff08 	bl	80002c4 <__adddf3>
 80014b4:	4602      	mov	r2, r0
 80014b6:	460b      	mov	r3, r1
 80014b8:	4610      	mov	r0, r2
 80014ba:	4619      	mov	r1, r3
 80014bc:	f7ff fb90 	bl	8000be0 <__aeabi_d2f>
 80014c0:	4603      	mov	r3, r0
 80014c2:	4a1d      	ldr	r2, [pc, #116]	@ (8001538 <HAL_ADC_ConvCpltCallback+0x190>)
 80014c4:	6013      	str	r3, [r2, #0]

	if(mag > mean*(0.575/0.8725))
 80014c6:	68f8      	ldr	r0, [r7, #12]
 80014c8:	f7ff f85a 	bl	8000580 <__aeabi_f2d>
 80014cc:	4604      	mov	r4, r0
 80014ce:	460d      	mov	r5, r1
 80014d0:	4b19      	ldr	r3, [pc, #100]	@ (8001538 <HAL_ADC_ConvCpltCallback+0x190>)
 80014d2:	681b      	ldr	r3, [r3, #0]
 80014d4:	4618      	mov	r0, r3
 80014d6:	f7ff f853 	bl	8000580 <__aeabi_f2d>
 80014da:	a313      	add	r3, pc, #76	@ (adr r3, 8001528 <HAL_ADC_ConvCpltCallback+0x180>)
 80014dc:	e9d3 2300 	ldrd	r2, r3, [r3]
 80014e0:	f7ff f8a6 	bl	8000630 <__aeabi_dmul>
 80014e4:	4602      	mov	r2, r0
 80014e6:	460b      	mov	r3, r1
 80014e8:	4620      	mov	r0, r4
 80014ea:	4629      	mov	r1, r5
 80014ec:	f7ff fb30 	bl	8000b50 <__aeabi_dcmpgt>
 80014f0:	4603      	mov	r3, r0
 80014f2:	2b00      	cmp	r3, #0
 80014f4:	d006      	beq.n	8001504 <HAL_ADC_ConvCpltCallback+0x15c>
	{
		HAL_GPIO_WritePin(GPIOC, GPIO_PIN_13, 1);
 80014f6:	2201      	movs	r2, #1
 80014f8:	f44f 5100 	mov.w	r1, #8192	@ 0x2000
 80014fc:	480f      	ldr	r0, [pc, #60]	@ (800153c <HAL_ADC_ConvCpltCallback+0x194>)
 80014fe:	f001 f9db 	bl	80028b8 <HAL_GPIO_WritePin>
	}
	else
	{
		HAL_GPIO_WritePin(GPIOC, GPIO_PIN_13, 0);
	}
}
 8001502:	e005      	b.n	8001510 <HAL_ADC_ConvCpltCallback+0x168>
		HAL_GPIO_WritePin(GPIOC, GPIO_PIN_13, 0);
 8001504:	2200      	movs	r2, #0
 8001506:	f44f 5100 	mov.w	r1, #8192	@ 0x2000
 800150a:	480c      	ldr	r0, [pc, #48]	@ (800153c <HAL_ADC_ConvCpltCallback+0x194>)
 800150c:	f001 f9d4 	bl	80028b8 <HAL_GPIO_WritePin>
}
 8001510:	bf00      	nop
 8001512:	3720      	adds	r7, #32
 8001514:	46bd      	mov	sp, r7
 8001516:	bdb0      	pop	{r4, r5, r7, pc}
 8001518:	b22d0e56 	.word	0xb22d0e56
 800151c:	3fefef9d 	.word	0x3fefef9d
 8001520:	d2f1a9fc 	.word	0xd2f1a9fc
 8001524:	3f60624d 	.word	0x3f60624d
 8001528:	3fd10def 	.word	0x3fd10def
 800152c:	3fe516bd 	.word	0x3fe516bd
 8001530:	20000508 	.word	0x20000508
 8001534:	20000148 	.word	0x20000148
 8001538:	2000050c 	.word	0x2000050c
 800153c:	40011000 	.word	0x40011000

08001540 <Error_Handler>:
/**
  * @brief  This function is executed in case of error occurrence.
  * @retval None
  */
void Error_Handler(void)
{
 8001540:	b480      	push	{r7}
 8001542:	af00      	add	r7, sp, #0
  \details Disables IRQ interrupts by setting the I-bit in the CPSR.
           Can only be executed in Privileged modes.
 */
__STATIC_FORCEINLINE void __disable_irq(void)
{
  __ASM volatile ("cpsid i" : : : "memory");
 8001544:	b672      	cpsid	i
}
 8001546:	bf00      	nop
  /* USER CODE BEGIN Error_Handler_Debug */
  /* User can add his own implementation to report the HAL error return state */
  __disable_irq();
  while (1)
 8001548:	bf00      	nop
 800154a:	e7fd      	b.n	8001548 <Error_Handler+0x8>

0800154c <HAL_MspInit>:
/* USER CODE END 0 */
/**
  * Initializes the Global MSP.
  */
void HAL_MspInit(void)
{
 800154c:	b480      	push	{r7}
 800154e:	b085      	sub	sp, #20
 8001550:	af00      	add	r7, sp, #0

  /* USER CODE BEGIN MspInit 0 */

  /* USER CODE END MspInit 0 */

  __HAL_RCC_AFIO_CLK_ENABLE();
 8001552:	4b15      	ldr	r3, [pc, #84]	@ (80015a8 <HAL_MspInit+0x5c>)
 8001554:	699b      	ldr	r3, [r3, #24]
 8001556:	4a14      	ldr	r2, [pc, #80]	@ (80015a8 <HAL_MspInit+0x5c>)
 8001558:	f043 0301 	orr.w	r3, r3, #1
 800155c:	6193      	str	r3, [r2, #24]
 800155e:	4b12      	ldr	r3, [pc, #72]	@ (80015a8 <HAL_MspInit+0x5c>)
 8001560:	699b      	ldr	r3, [r3, #24]
 8001562:	f003 0301 	and.w	r3, r3, #1
 8001566:	60bb      	str	r3, [r7, #8]
 8001568:	68bb      	ldr	r3, [r7, #8]
  __HAL_RCC_PWR_CLK_ENABLE();
 800156a:	4b0f      	ldr	r3, [pc, #60]	@ (80015a8 <HAL_MspInit+0x5c>)
 800156c:	69db      	ldr	r3, [r3, #28]
 800156e:	4a0e      	ldr	r2, [pc, #56]	@ (80015a8 <HAL_MspInit+0x5c>)
 8001570:	f043 5380 	orr.w	r3, r3, #268435456	@ 0x10000000
 8001574:	61d3      	str	r3, [r2, #28]
 8001576:	4b0c      	ldr	r3, [pc, #48]	@ (80015a8 <HAL_MspInit+0x5c>)
 8001578:	69db      	ldr	r3, [r3, #28]
 800157a:	f003 5380 	and.w	r3, r3, #268435456	@ 0x10000000
 800157e:	607b      	str	r3, [r7, #4]
 8001580:	687b      	ldr	r3, [r7, #4]

  /* System interrupt init*/

  /** NOJTAG: JTAG-DP Disabled and SW-DP Enabled
  */
  __HAL_AFIO_REMAP_SWJ_NOJTAG();
 8001582:	4b0a      	ldr	r3, [pc, #40]	@ (80015ac <HAL_MspInit+0x60>)
 8001584:	685b      	ldr	r3, [r3, #4]
 8001586:	60fb      	str	r3, [r7, #12]
 8001588:	68fb      	ldr	r3, [r7, #12]
 800158a:	f023 63e0 	bic.w	r3, r3, #117440512	@ 0x7000000
 800158e:	60fb      	str	r3, [r7, #12]
 8001590:	68fb      	ldr	r3, [r7, #12]
 8001592:	f043 7300 	orr.w	r3, r3, #33554432	@ 0x2000000
 8001596:	60fb      	str	r3, [r7, #12]
 8001598:	4a04      	ldr	r2, [pc, #16]	@ (80015ac <HAL_MspInit+0x60>)
 800159a:	68fb      	ldr	r3, [r7, #12]
 800159c:	6053      	str	r3, [r2, #4]

  /* USER CODE BEGIN MspInit 1 */

  /* USER CODE END MspInit 1 */
}
 800159e:	bf00      	nop
 80015a0:	3714      	adds	r7, #20
 80015a2:	46bd      	mov	sp, r7
 80015a4:	bc80      	pop	{r7}
 80015a6:	4770      	bx	lr
 80015a8:	40021000 	.word	0x40021000
 80015ac:	40010000 	.word	0x40010000

080015b0 <HAL_ADC_MspInit>:
* This function configures the hardware resources used in this example
* @param hadc: ADC handle pointer
* @retval None
*/
void HAL_ADC_MspInit(ADC_HandleTypeDef* hadc)
{
 80015b0:	b580      	push	{r7, lr}
 80015b2:	b088      	sub	sp, #32
 80015b4:	af00      	add	r7, sp, #0
 80015b6:	6078      	str	r0, [r7, #4]
  GPIO_InitTypeDef GPIO_InitStruct = {0};
 80015b8:	f107 0310 	add.w	r3, r7, #16
 80015bc:	2200      	movs	r2, #0
 80015be:	601a      	str	r2, [r3, #0]
 80015c0:	605a      	str	r2, [r3, #4]
 80015c2:	609a      	str	r2, [r3, #8]
 80015c4:	60da      	str	r2, [r3, #12]
  if(hadc->Instance==ADC1)
 80015c6:	687b      	ldr	r3, [r7, #4]
 80015c8:	681b      	ldr	r3, [r3, #0]
 80015ca:	4a28      	ldr	r2, [pc, #160]	@ (800166c <HAL_ADC_MspInit+0xbc>)
 80015cc:	4293      	cmp	r3, r2
 80015ce:	d149      	bne.n	8001664 <HAL_ADC_MspInit+0xb4>
  {
  /* USER CODE BEGIN ADC1_MspInit 0 */

  /* USER CODE END ADC1_MspInit 0 */
    /* Peripheral clock enable */
    __HAL_RCC_ADC1_CLK_ENABLE();
 80015d0:	4b27      	ldr	r3, [pc, #156]	@ (8001670 <HAL_ADC_MspInit+0xc0>)
 80015d2:	699b      	ldr	r3, [r3, #24]
 80015d4:	4a26      	ldr	r2, [pc, #152]	@ (8001670 <HAL_ADC_MspInit+0xc0>)
 80015d6:	f443 7300 	orr.w	r3, r3, #512	@ 0x200
 80015da:	6193      	str	r3, [r2, #24]
 80015dc:	4b24      	ldr	r3, [pc, #144]	@ (8001670 <HAL_ADC_MspInit+0xc0>)
 80015de:	699b      	ldr	r3, [r3, #24]
 80015e0:	f403 7300 	and.w	r3, r3, #512	@ 0x200
 80015e4:	60fb      	str	r3, [r7, #12]
 80015e6:	68fb      	ldr	r3, [r7, #12]

    __HAL_RCC_GPIOA_CLK_ENABLE();
 80015e8:	4b21      	ldr	r3, [pc, #132]	@ (8001670 <HAL_ADC_MspInit+0xc0>)
 80015ea:	699b      	ldr	r3, [r3, #24]
 80015ec:	4a20      	ldr	r2, [pc, #128]	@ (8001670 <HAL_ADC_MspInit+0xc0>)
 80015ee:	f043 0304 	orr.w	r3, r3, #4
 80015f2:	6193      	str	r3, [r2, #24]
 80015f4:	4b1e      	ldr	r3, [pc, #120]	@ (8001670 <HAL_ADC_MspInit+0xc0>)
 80015f6:	699b      	ldr	r3, [r3, #24]
 80015f8:	f003 0304 	and.w	r3, r3, #4
 80015fc:	60bb      	str	r3, [r7, #8]
 80015fe:	68bb      	ldr	r3, [r7, #8]
    /**ADC1 GPIO Configuration
    PA0-WKUP     ------> ADC1_IN0
    */
    GPIO_InitStruct.Pin = GPIO_PIN_0;
 8001600:	2301      	movs	r3, #1
 8001602:	613b      	str	r3, [r7, #16]
    GPIO_InitStruct.Mode = GPIO_MODE_ANALOG;
 8001604:	2303      	movs	r3, #3
 8001606:	617b      	str	r3, [r7, #20]
    HAL_GPIO_Init(GPIOA, &GPIO_InitStruct);
 8001608:	f107 0310 	add.w	r3, r7, #16
 800160c:	4619      	mov	r1, r3
 800160e:	4819      	ldr	r0, [pc, #100]	@ (8001674 <HAL_ADC_MspInit+0xc4>)
 8001610:	f000 ffce 	bl	80025b0 <HAL_GPIO_Init>

    /* ADC1 DMA Init */
    /* ADC1 Init */
    hdma_adc1.Instance = DMA1_Channel1;
 8001614:	4b18      	ldr	r3, [pc, #96]	@ (8001678 <HAL_ADC_MspInit+0xc8>)
 8001616:	4a19      	ldr	r2, [pc, #100]	@ (800167c <HAL_ADC_MspInit+0xcc>)
 8001618:	601a      	str	r2, [r3, #0]
    hdma_adc1.Init.Direction = DMA_PERIPH_TO_MEMORY;
 800161a:	4b17      	ldr	r3, [pc, #92]	@ (8001678 <HAL_ADC_MspInit+0xc8>)
 800161c:	2200      	movs	r2, #0
 800161e:	605a      	str	r2, [r3, #4]
    hdma_adc1.Init.PeriphInc = DMA_PINC_DISABLE;
 8001620:	4b15      	ldr	r3, [pc, #84]	@ (8001678 <HAL_ADC_MspInit+0xc8>)
 8001622:	2200      	movs	r2, #0
 8001624:	609a      	str	r2, [r3, #8]
    hdma_adc1.Init.MemInc = DMA_MINC_ENABLE;
 8001626:	4b14      	ldr	r3, [pc, #80]	@ (8001678 <HAL_ADC_MspInit+0xc8>)
 8001628:	2280      	movs	r2, #128	@ 0x80
 800162a:	60da      	str	r2, [r3, #12]
    hdma_adc1.Init.PeriphDataAlignment = DMA_PDATAALIGN_HALFWORD;
 800162c:	4b12      	ldr	r3, [pc, #72]	@ (8001678 <HAL_ADC_MspInit+0xc8>)
 800162e:	f44f 7280 	mov.w	r2, #256	@ 0x100
 8001632:	611a      	str	r2, [r3, #16]
    hdma_adc1.Init.MemDataAlignment = DMA_MDATAALIGN_HALFWORD;
 8001634:	4b10      	ldr	r3, [pc, #64]	@ (8001678 <HAL_ADC_MspInit+0xc8>)
 8001636:	f44f 6280 	mov.w	r2, #1024	@ 0x400
 800163a:	615a      	str	r2, [r3, #20]
    hdma_adc1.Init.Mode = DMA_CIRCULAR;
 800163c:	4b0e      	ldr	r3, [pc, #56]	@ (8001678 <HAL_ADC_MspInit+0xc8>)
 800163e:	2220      	movs	r2, #32
 8001640:	619a      	str	r2, [r3, #24]
    hdma_adc1.Init.Priority = DMA_PRIORITY_LOW;
 8001642:	4b0d      	ldr	r3, [pc, #52]	@ (8001678 <HAL_ADC_MspInit+0xc8>)
 8001644:	2200      	movs	r2, #0
 8001646:	61da      	str	r2, [r3, #28]
    if (HAL_DMA_Init(&hdma_adc1) != HAL_OK)
 8001648:	480b      	ldr	r0, [pc, #44]	@ (8001678 <HAL_ADC_MspInit+0xc8>)
 800164a:	f000 fdc3 	bl	80021d4 <HAL_DMA_Init>
 800164e:	4603      	mov	r3, r0
 8001650:	2b00      	cmp	r3, #0
 8001652:	d001      	beq.n	8001658 <HAL_ADC_MspInit+0xa8>
    {
      Error_Handler();
 8001654:	f7ff ff74 	bl	8001540 <Error_Handler>
    }

    __HAL_LINKDMA(hadc,DMA_Handle,hdma_adc1);
 8001658:	687b      	ldr	r3, [r7, #4]
 800165a:	4a07      	ldr	r2, [pc, #28]	@ (8001678 <HAL_ADC_MspInit+0xc8>)
 800165c:	621a      	str	r2, [r3, #32]
 800165e:	4a06      	ldr	r2, [pc, #24]	@ (8001678 <HAL_ADC_MspInit+0xc8>)
 8001660:	687b      	ldr	r3, [r7, #4]
 8001662:	6253      	str	r3, [r2, #36]	@ 0x24

  /* USER CODE END ADC1_MspInit 1 */

  }

}
 8001664:	bf00      	nop
 8001666:	3720      	adds	r7, #32
 8001668:	46bd      	mov	sp, r7
 800166a:	bd80      	pop	{r7, pc}
 800166c:	40012400 	.word	0x40012400
 8001670:	40021000 	.word	0x40021000
 8001674:	40010800 	.word	0x40010800
 8001678:	200000bc 	.word	0x200000bc
 800167c:	40020008 	.word	0x40020008

08001680 <HAL_TIM_Base_MspInit>:
* This function configures the hardware resources used in this example
* @param htim_base: TIM_Base handle pointer
* @retval None
*/
void HAL_TIM_Base_MspInit(TIM_HandleTypeDef* htim_base)
{
 8001680:	b480      	push	{r7}
 8001682:	b085      	sub	sp, #20
 8001684:	af00      	add	r7, sp, #0
 8001686:	6078      	str	r0, [r7, #4]
  if(htim_base->Instance==TIM3)
 8001688:	687b      	ldr	r3, [r7, #4]
 800168a:	681b      	ldr	r3, [r3, #0]
 800168c:	4a09      	ldr	r2, [pc, #36]	@ (80016b4 <HAL_TIM_Base_MspInit+0x34>)
 800168e:	4293      	cmp	r3, r2
 8001690:	d10b      	bne.n	80016aa <HAL_TIM_Base_MspInit+0x2a>
  {
  /* USER CODE BEGIN TIM3_MspInit 0 */

  /* USER CODE END TIM3_MspInit 0 */
    /* Peripheral clock enable */
    __HAL_RCC_TIM3_CLK_ENABLE();
 8001692:	4b09      	ldr	r3, [pc, #36]	@ (80016b8 <HAL_TIM_Base_MspInit+0x38>)
 8001694:	69db      	ldr	r3, [r3, #28]
 8001696:	4a08      	ldr	r2, [pc, #32]	@ (80016b8 <HAL_TIM_Base_MspInit+0x38>)
 8001698:	f043 0302 	orr.w	r3, r3, #2
 800169c:	61d3      	str	r3, [r2, #28]
 800169e:	4b06      	ldr	r3, [pc, #24]	@ (80016b8 <HAL_TIM_Base_MspInit+0x38>)
 80016a0:	69db      	ldr	r3, [r3, #28]
 80016a2:	f003 0302 	and.w	r3, r3, #2
 80016a6:	60fb      	str	r3, [r7, #12]
 80016a8:	68fb      	ldr	r3, [r7, #12]

  /* USER CODE END TIM3_MspInit 1 */

  }

}
 80016aa:	bf00      	nop
 80016ac:	3714      	adds	r7, #20
 80016ae:	46bd      	mov	sp, r7
 80016b0:	bc80      	pop	{r7}
 80016b2:	4770      	bx	lr
 80016b4:	40000400 	.word	0x40000400
 80016b8:	40021000 	.word	0x40021000

080016bc <NMI_Handler>:
/******************************************************************************/
/**
  * @brief This function handles Non maskable interrupt.
  */
void NMI_Handler(void)
{
 80016bc:	b480      	push	{r7}
 80016be:	af00      	add	r7, sp, #0
  /* USER CODE BEGIN NonMaskableInt_IRQn 0 */

  /* USER CODE END NonMaskableInt_IRQn 0 */
  /* USER CODE BEGIN NonMaskableInt_IRQn 1 */
   while (1)
 80016c0:	bf00      	nop
 80016c2:	e7fd      	b.n	80016c0 <NMI_Handler+0x4>

080016c4 <HardFault_Handler>:

/**
  * @brief This function handles Hard fault interrupt.
  */
void HardFault_Handler(void)
{
 80016c4:	b480      	push	{r7}
 80016c6:	af00      	add	r7, sp, #0
  /* USER CODE BEGIN HardFault_IRQn 0 */

  /* USER CODE END HardFault_IRQn 0 */
  while (1)
 80016c8:	bf00      	nop
 80016ca:	e7fd      	b.n	80016c8 <HardFault_Handler+0x4>

080016cc <MemManage_Handler>:

/**
  * @brief This function handles Memory management fault.
  */
void MemManage_Handler(void)
{
 80016cc:	b480      	push	{r7}
 80016ce:	af00      	add	r7, sp, #0
  /* USER CODE BEGIN MemoryManagement_IRQn 0 */

  /* USER CODE END MemoryManagement_IRQn 0 */
  while (1)
 80016d0:	bf00      	nop
 80016d2:	e7fd      	b.n	80016d0 <MemManage_Handler+0x4>

080016d4 <BusFault_Handler>:

/**
  * @brief This function handles Prefetch fault, memory access fault.
  */
void BusFault_Handler(void)
{
 80016d4:	b480      	push	{r7}
 80016d6:	af00      	add	r7, sp, #0
  /* USER CODE BEGIN BusFault_IRQn 0 */

  /* USER CODE END BusFault_IRQn 0 */
  while (1)
 80016d8:	bf00      	nop
 80016da:	e7fd      	b.n	80016d8 <BusFault_Handler+0x4>

080016dc <UsageFault_Handler>:

/**
  * @brief This function handles Undefined instruction or illegal state.
  */
void UsageFault_Handler(void)
{
 80016dc:	b480      	push	{r7}
 80016de:	af00      	add	r7, sp, #0
  /* USER CODE BEGIN UsageFault_IRQn 0 */

  /* USER CODE END UsageFault_IRQn 0 */
  while (1)
 80016e0:	bf00      	nop
 80016e2:	e7fd      	b.n	80016e0 <UsageFault_Handler+0x4>

080016e4 <SVC_Handler>:

/**
  * @brief This function handles System service call via SWI instruction.
  */
void SVC_Handler(void)
{
 80016e4:	b480      	push	{r7}
 80016e6:	af00      	add	r7, sp, #0

  /* USER CODE END SVCall_IRQn 0 */
  /* USER CODE BEGIN SVCall_IRQn 1 */

  /* USER CODE END SVCall_IRQn 1 */
}
 80016e8:	bf00      	nop
 80016ea:	46bd      	mov	sp, r7
 80016ec:	bc80      	pop	{r7}
 80016ee:	4770      	bx	lr

080016f0 <DebugMon_Handler>:

/**
  * @brief This function handles Debug monitor.
  */
void DebugMon_Handler(void)
{
 80016f0:	b480      	push	{r7}
 80016f2:	af00      	add	r7, sp, #0

  /* USER CODE END DebugMonitor_IRQn 0 */
  /* USER CODE BEGIN DebugMonitor_IRQn 1 */

  /* USER CODE END DebugMonitor_IRQn 1 */
}
 80016f4:	bf00      	nop
 80016f6:	46bd      	mov	sp, r7
 80016f8:	bc80      	pop	{r7}
 80016fa:	4770      	bx	lr

080016fc <PendSV_Handler>:

/**
  * @brief This function handles Pendable request for system service.
  */
void PendSV_Handler(void)
{
 80016fc:	b480      	push	{r7}
 80016fe:	af00      	add	r7, sp, #0

  /* USER CODE END PendSV_IRQn 0 */
  /* USER CODE BEGIN PendSV_IRQn 1 */

  /* USER CODE END PendSV_IRQn 1 */
}
 8001700:	bf00      	nop
 8001702:	46bd      	mov	sp, r7
 8001704:	bc80      	pop	{r7}
 8001706:	4770      	bx	lr

08001708 <SysTick_Handler>:

/**
  * @brief This function handles System tick timer.
  */
void SysTick_Handler(void)
{
 8001708:	b580      	push	{r7, lr}
 800170a:	af00      	add	r7, sp, #0
  /* USER CODE BEGIN SysTick_IRQn 0 */

  /* USER CODE END SysTick_IRQn 0 */
  HAL_IncTick();
 800170c:	f000 f87e 	bl	800180c <HAL_IncTick>
  /* USER CODE BEGIN SysTick_IRQn 1 */

  /* USER CODE END SysTick_IRQn 1 */
}
 8001710:	bf00      	nop
 8001712:	bd80      	pop	{r7, pc}

08001714 <DMA1_Channel1_IRQHandler>:

/**
  * @brief This function handles DMA1 channel1 global interrupt.
  */
void DMA1_Channel1_IRQHandler(void)
{
 8001714:	b580      	push	{r7, lr}
 8001716:	af00      	add	r7, sp, #0
  /* USER CODE BEGIN DMA1_Channel1_IRQn 0 */

  /* USER CODE END DMA1_Channel1_IRQn 0 */
  HAL_DMA_IRQHandler(&hdma_adc1);
 8001718:	4802      	ldr	r0, [pc, #8]	@ (8001724 <DMA1_Channel1_IRQHandler+0x10>)
 800171a:	f000 fe15 	bl	8002348 <HAL_DMA_IRQHandler>
  /* USER CODE BEGIN DMA1_Channel1_IRQn 1 */

  /* USER CODE END DMA1_Channel1_IRQn 1 */
}
 800171e:	bf00      	nop
 8001720:	bd80      	pop	{r7, pc}
 8001722:	bf00      	nop
 8001724:	200000bc 	.word	0x200000bc

08001728 <SystemInit>:
  * @note   This function should be used only after reset.
  * @param  None
  * @retval None
  */
void SystemInit (void)
{
 8001728:	b480      	push	{r7}
 800172a:	af00      	add	r7, sp, #0

  /* Configure the Vector Table location -------------------------------------*/
#if defined(USER_VECT_TAB_ADDRESS)
  SCB->VTOR = VECT_TAB_BASE_ADDRESS | VECT_TAB_OFFSET; /* Vector Table Relocation in Internal SRAM. */
#endif /* USER_VECT_TAB_ADDRESS */
}
 800172c:	bf00      	nop
 800172e:	46bd      	mov	sp, r7
 8001730:	bc80      	pop	{r7}
 8001732:	4770      	bx	lr

08001734 <Reset_Handler>:
  .weak Reset_Handler
  .type Reset_Handler, %function
Reset_Handler:

/* Call the clock system initialization function.*/
    bl  SystemInit
 8001734:	f7ff fff8 	bl	8001728 <SystemInit>

/* Copy the data segment initializers from flash to SRAM */
  ldr r0, =_sdata
 8001738:	480b      	ldr	r0, [pc, #44]	@ (8001768 <LoopFillZerobss+0xe>)
  ldr r1, =_edata
 800173a:	490c      	ldr	r1, [pc, #48]	@ (800176c <LoopFillZerobss+0x12>)
  ldr r2, =_sidata
 800173c:	4a0c      	ldr	r2, [pc, #48]	@ (8001770 <LoopFillZerobss+0x16>)
  movs r3, #0
 800173e:	2300      	movs	r3, #0
  b LoopCopyDataInit
 8001740:	e002      	b.n	8001748 <LoopCopyDataInit>

08001742 <CopyDataInit>:

CopyDataInit:
  ldr r4, [r2, r3]
 8001742:	58d4      	ldr	r4, [r2, r3]
  str r4, [r0, r3]
 8001744:	50c4      	str	r4, [r0, r3]
  adds r3, r3, #4
 8001746:	3304      	adds	r3, #4

08001748 <LoopCopyDataInit>:

LoopCopyDataInit:
  adds r4, r0, r3
 8001748:	18c4      	adds	r4, r0, r3
  cmp r4, r1
 800174a:	428c      	cmp	r4, r1
  bcc CopyDataInit
 800174c:	d3f9      	bcc.n	8001742 <CopyDataInit>
  
/* Zero fill the bss segment. */
  ldr r2, =_sbss
 800174e:	4a09      	ldr	r2, [pc, #36]	@ (8001774 <LoopFillZerobss+0x1a>)
  ldr r4, =_ebss
 8001750:	4c09      	ldr	r4, [pc, #36]	@ (8001778 <LoopFillZerobss+0x1e>)
  movs r3, #0
 8001752:	2300      	movs	r3, #0
  b LoopFillZerobss
 8001754:	e001      	b.n	800175a <LoopFillZerobss>

08001756 <FillZerobss>:

FillZerobss:
  str  r3, [r2]
 8001756:	6013      	str	r3, [r2, #0]
  adds r2, r2, #4
 8001758:	3204      	adds	r2, #4

0800175a <LoopFillZerobss>:

LoopFillZerobss:
  cmp r2, r4
 800175a:	42a2      	cmp	r2, r4
  bcc FillZerobss
 800175c:	d3fb      	bcc.n	8001756 <FillZerobss>

/* Call static constructors */
    bl __libc_init_array
 800175e:	f002 fabf 	bl	8003ce0 <__libc_init_array>
/* Call the application's entry point.*/
  bl main
 8001762:	f7ff fb9b 	bl	8000e9c <main>
  bx lr
 8001766:	4770      	bx	lr
  ldr r0, =_sdata
 8001768:	20000000 	.word	0x20000000
  ldr r1, =_edata
 800176c:	20000070 	.word	0x20000070
  ldr r2, =_sidata
 8001770:	080050e8 	.word	0x080050e8
  ldr r2, =_sbss
 8001774:	20000070 	.word	0x20000070
  ldr r4, =_ebss
 8001778:	2000064c 	.word	0x2000064c

0800177c <ADC1_2_IRQHandler>:
 * @retval : None
*/
    .section .text.Default_Handler,"ax",%progbits
Default_Handler:
Infinite_Loop:
  b Infinite_Loop
 800177c:	e7fe      	b.n	800177c <ADC1_2_IRQHandler>
	...

08001780 <HAL_Init>:
  *         need to ensure that the SysTick time base is always set to 1 millisecond
  *         to have correct HAL operation.
  * @retval HAL status
  */
HAL_StatusTypeDef HAL_Init(void)
{
 8001780:	b580      	push	{r7, lr}
 8001782:	af00      	add	r7, sp, #0
    defined(STM32F102x6) || defined(STM32F102xB) || \
    defined(STM32F103x6) || defined(STM32F103xB) || defined(STM32F103xE) || defined(STM32F103xG) || \
    defined(STM32F105xC) || defined(STM32F107xC)

  /* Prefetch buffer is not available on value line devices */
  __HAL_FLASH_PREFETCH_BUFFER_ENABLE();
 8001784:	4b08      	ldr	r3, [pc, #32]	@ (80017a8 <HAL_Init+0x28>)
 8001786:	681b      	ldr	r3, [r3, #0]
 8001788:	4a07      	ldr	r2, [pc, #28]	@ (80017a8 <HAL_Init+0x28>)
 800178a:	f043 0310 	orr.w	r3, r3, #16
 800178e:	6013      	str	r3, [r2, #0]
#endif
#endif /* PREFETCH_ENABLE */

  /* Set Interrupt Group Priority */
  HAL_NVIC_SetPriorityGrouping(NVIC_PRIORITYGROUP_4);
 8001790:	2003      	movs	r0, #3
 8001792:	f000 fcdd 	bl	8002150 <HAL_NVIC_SetPriorityGrouping>

  /* Use systick as time base source and configure 1ms tick (default clock after Reset is HSI) */
  HAL_InitTick(TICK_INT_PRIORITY);
 8001796:	200f      	movs	r0, #15
 8001798:	f000 f808 	bl	80017ac <HAL_InitTick>

  /* Init the low level hardware */
  HAL_MspInit();
 800179c:	f7ff fed6 	bl	800154c <HAL_MspInit>

  /* Return function status */
  return HAL_OK;
 80017a0:	2300      	movs	r3, #0
}
 80017a2:	4618      	mov	r0, r3
 80017a4:	bd80      	pop	{r7, pc}
 80017a6:	bf00      	nop
 80017a8:	40022000 	.word	0x40022000

080017ac <HAL_InitTick>:
  *       implementation  in user file.
  * @param TickPriority Tick interrupt priority.
  * @retval HAL status
  */
__weak HAL_StatusTypeDef HAL_InitTick(uint32_t TickPriority)
{
 80017ac:	b580      	push	{r7, lr}
 80017ae:	b082      	sub	sp, #8
 80017b0:	af00      	add	r7, sp, #0
 80017b2:	6078      	str	r0, [r7, #4]
  /* Configure the SysTick to have interrupt in 1ms time basis*/
  if (HAL_SYSTICK_Config(SystemCoreClock / (1000U / uwTickFreq)) > 0U)
 80017b4:	4b12      	ldr	r3, [pc, #72]	@ (8001800 <HAL_InitTick+0x54>)
 80017b6:	681a      	ldr	r2, [r3, #0]
 80017b8:	4b12      	ldr	r3, [pc, #72]	@ (8001804 <HAL_InitTick+0x58>)
 80017ba:	781b      	ldrb	r3, [r3, #0]
 80017bc:	4619      	mov	r1, r3
 80017be:	f44f 737a 	mov.w	r3, #1000	@ 0x3e8
 80017c2:	fbb3 f3f1 	udiv	r3, r3, r1
 80017c6:	fbb2 f3f3 	udiv	r3, r2, r3
 80017ca:	4618      	mov	r0, r3
 80017cc:	f000 fcf5 	bl	80021ba <HAL_SYSTICK_Config>
 80017d0:	4603      	mov	r3, r0
 80017d2:	2b00      	cmp	r3, #0
 80017d4:	d001      	beq.n	80017da <HAL_InitTick+0x2e>
  {
    return HAL_ERROR;
 80017d6:	2301      	movs	r3, #1
 80017d8:	e00e      	b.n	80017f8 <HAL_InitTick+0x4c>
  }

  /* Configure the SysTick IRQ priority */
  if (TickPriority < (1UL << __NVIC_PRIO_BITS))
 80017da:	687b      	ldr	r3, [r7, #4]
 80017dc:	2b0f      	cmp	r3, #15
 80017de:	d80a      	bhi.n	80017f6 <HAL_InitTick+0x4a>
  {
    HAL_NVIC_SetPriority(SysTick_IRQn, TickPriority, 0U);
 80017e0:	2200      	movs	r2, #0
 80017e2:	6879      	ldr	r1, [r7, #4]
 80017e4:	f04f 30ff 	mov.w	r0, #4294967295
 80017e8:	f000 fcbd 	bl	8002166 <HAL_NVIC_SetPriority>
    uwTickPrio = TickPriority;
 80017ec:	4a06      	ldr	r2, [pc, #24]	@ (8001808 <HAL_InitTick+0x5c>)
 80017ee:	687b      	ldr	r3, [r7, #4]
 80017f0:	6013      	str	r3, [r2, #0]
  {
    return HAL_ERROR;
  }

  /* Return function status */
  return HAL_OK;
 80017f2:	2300      	movs	r3, #0
 80017f4:	e000      	b.n	80017f8 <HAL_InitTick+0x4c>
    return HAL_ERROR;
 80017f6:	2301      	movs	r3, #1
}
 80017f8:	4618      	mov	r0, r3
 80017fa:	3708      	adds	r7, #8
 80017fc:	46bd      	mov	sp, r7
 80017fe:	bd80      	pop	{r7, pc}
 8001800:	20000000 	.word	0x20000000
 8001804:	20000008 	.word	0x20000008
 8001808:	20000004 	.word	0x20000004

0800180c <HAL_IncTick>:
  * @note This function is declared as __weak to be overwritten in case of other
  *      implementations in user file.
  * @retval None
  */
__weak void HAL_IncTick(void)
{
 800180c:	b480      	push	{r7}
 800180e:	af00      	add	r7, sp, #0
  uwTick += uwTickFreq;
 8001810:	4b05      	ldr	r3, [pc, #20]	@ (8001828 <HAL_IncTick+0x1c>)
 8001812:	781b      	ldrb	r3, [r3, #0]
 8001814:	461a      	mov	r2, r3
 8001816:	4b05      	ldr	r3, [pc, #20]	@ (800182c <HAL_IncTick+0x20>)
 8001818:	681b      	ldr	r3, [r3, #0]
 800181a:	4413      	add	r3, r2
 800181c:	4a03      	ldr	r2, [pc, #12]	@ (800182c <HAL_IncTick+0x20>)
 800181e:	6013      	str	r3, [r2, #0]
}
 8001820:	bf00      	nop
 8001822:	46bd      	mov	sp, r7
 8001824:	bc80      	pop	{r7}
 8001826:	4770      	bx	lr
 8001828:	20000008 	.word	0x20000008
 800182c:	20000510 	.word	0x20000510

08001830 <HAL_GetTick>:
  * @note  This function is declared as __weak to be overwritten in case of other
  *       implementations in user file.
  * @retval tick value
  */
__weak uint32_t HAL_GetTick(void)
{
 8001830:	b480      	push	{r7}
 8001832:	af00      	add	r7, sp, #0
  return uwTick;
 8001834:	4b02      	ldr	r3, [pc, #8]	@ (8001840 <HAL_GetTick+0x10>)
 8001836:	681b      	ldr	r3, [r3, #0]
}
 8001838:	4618      	mov	r0, r3
 800183a:	46bd      	mov	sp, r7
 800183c:	bc80      	pop	{r7}
 800183e:	4770      	bx	lr
 8001840:	20000510 	.word	0x20000510

08001844 <HAL_ADC_Init>:
  *         of structure "ADC_InitTypeDef".
  * @param  hadc: ADC handle
  * @retval HAL status
  */
HAL_StatusTypeDef HAL_ADC_Init(ADC_HandleTypeDef* hadc)
{
 8001844:	b580      	push	{r7, lr}
 8001846:	b086      	sub	sp, #24
 8001848:	af00      	add	r7, sp, #0
 800184a:	6078      	str	r0, [r7, #4]
  HAL_StatusTypeDef tmp_hal_status = HAL_OK;
 800184c:	2300      	movs	r3, #0
 800184e:	75fb      	strb	r3, [r7, #23]
  uint32_t tmp_cr1 = 0U;
 8001850:	2300      	movs	r3, #0
 8001852:	613b      	str	r3, [r7, #16]
  uint32_t tmp_cr2 = 0U;
 8001854:	2300      	movs	r3, #0
 8001856:	60bb      	str	r3, [r7, #8]
  uint32_t tmp_sqr1 = 0U;
 8001858:	2300      	movs	r3, #0
 800185a:	60fb      	str	r3, [r7, #12]
  
  /* Check ADC handle */
  if(hadc == NULL)
 800185c:	687b      	ldr	r3, [r7, #4]
 800185e:	2b00      	cmp	r3, #0
 8001860:	d101      	bne.n	8001866 <HAL_ADC_Init+0x22>
  {
    return HAL_ERROR;
 8001862:	2301      	movs	r3, #1
 8001864:	e0be      	b.n	80019e4 <HAL_ADC_Init+0x1a0>
  assert_param(IS_ADC_DATA_ALIGN(hadc->Init.DataAlign));
  assert_param(IS_ADC_SCAN_MODE(hadc->Init.ScanConvMode));
  assert_param(IS_FUNCTIONAL_STATE(hadc->Init.ContinuousConvMode));
  assert_param(IS_ADC_EXTTRIG(hadc->Init.ExternalTrigConv));
  
  if(hadc->Init.ScanConvMode != ADC_SCAN_DISABLE)
 8001866:	687b      	ldr	r3, [r7, #4]
 8001868:	689b      	ldr	r3, [r3, #8]
 800186a:	2b00      	cmp	r3, #0
  /* Refer to header of this file for more details on clock enabling          */
  /* procedure.                                                               */

  /* Actions performed only if ADC is coming from state reset:                */
  /* - Initialization of ADC MSP                                              */
  if (hadc->State == HAL_ADC_STATE_RESET)
 800186c:	687b      	ldr	r3, [r7, #4]
 800186e:	6a9b      	ldr	r3, [r3, #40]	@ 0x28
 8001870:	2b00      	cmp	r3, #0
 8001872:	d109      	bne.n	8001888 <HAL_ADC_Init+0x44>
  {
    /* Initialize ADC error code */
    ADC_CLEAR_ERRORCODE(hadc);
 8001874:	687b      	ldr	r3, [r7, #4]
 8001876:	2200      	movs	r2, #0
 8001878:	62da      	str	r2, [r3, #44]	@ 0x2c
    
    /* Allocate lock resource and initialize it */
    hadc->Lock = HAL_UNLOCKED;
 800187a:	687b      	ldr	r3, [r7, #4]
 800187c:	2200      	movs	r2, #0
 800187e:	f883 2024 	strb.w	r2, [r3, #36]	@ 0x24
    
    /* Init the low level hardware */
    hadc->MspInitCallback(hadc);
#else
    /* Init the low level hardware */
    HAL_ADC_MspInit(hadc);
 8001882:	6878      	ldr	r0, [r7, #4]
 8001884:	f7ff fe94 	bl	80015b0 <HAL_ADC_MspInit>
  /* Stop potential conversion on going, on regular and injected groups */
  /* Disable ADC peripheral */
  /* Note: In case of ADC already enabled, precaution to not launch an        */
  /*       unwanted conversion while modifying register CR2 by writing 1 to   */
  /*       bit ADON.                                                          */
  tmp_hal_status = ADC_ConversionStop_Disable(hadc);
 8001888:	6878      	ldr	r0, [r7, #4]
 800188a:	f000 faed 	bl	8001e68 <ADC_ConversionStop_Disable>
 800188e:	4603      	mov	r3, r0
 8001890:	75fb      	strb	r3, [r7, #23]
  
  
  /* Configuration of ADC parameters if previous preliminary actions are      */ 
  /* correctly completed.                                                     */
  if (HAL_IS_BIT_CLR(hadc->State, HAL_ADC_STATE_ERROR_INTERNAL) &&
 8001892:	687b      	ldr	r3, [r7, #4]
 8001894:	6a9b      	ldr	r3, [r3, #40]	@ 0x28
 8001896:	f003 0310 	and.w	r3, r3, #16
 800189a:	2b00      	cmp	r3, #0
 800189c:	f040 8099 	bne.w	80019d2 <HAL_ADC_Init+0x18e>
 80018a0:	7dfb      	ldrb	r3, [r7, #23]
 80018a2:	2b00      	cmp	r3, #0
 80018a4:	f040 8095 	bne.w	80019d2 <HAL_ADC_Init+0x18e>
      (tmp_hal_status == HAL_OK)                                  )
  {
    /* Set ADC state */
    ADC_STATE_CLR_SET(hadc->State,
 80018a8:	687b      	ldr	r3, [r7, #4]
 80018aa:	6a9b      	ldr	r3, [r3, #40]	@ 0x28
 80018ac:	f423 5388 	bic.w	r3, r3, #4352	@ 0x1100
 80018b0:	f023 0302 	bic.w	r3, r3, #2
 80018b4:	f043 0202 	orr.w	r2, r3, #2
 80018b8:	687b      	ldr	r3, [r7, #4]
 80018ba:	629a      	str	r2, [r3, #40]	@ 0x28
    /*  - continuous conversion mode                                          */
    /* Note: External trigger polarity (ADC_CR2_EXTTRIG) is set into          */
    /*       HAL_ADC_Start_xxx functions because if set in this function,     */
    /*       a conversion on injected group would start a conversion also on  */
    /*       regular group after ADC enabling.                                */
    tmp_cr2 |= (hadc->Init.DataAlign                                          |
 80018bc:	687b      	ldr	r3, [r7, #4]
 80018be:	685a      	ldr	r2, [r3, #4]
                ADC_CFGR_EXTSEL(hadc, hadc->Init.ExternalTrigConv)            |
 80018c0:	687b      	ldr	r3, [r7, #4]
 80018c2:	69db      	ldr	r3, [r3, #28]
    tmp_cr2 |= (hadc->Init.DataAlign                                          |
 80018c4:	431a      	orrs	r2, r3
                ADC_CR2_CONTINUOUS((uint32_t)hadc->Init.ContinuousConvMode)   );
 80018c6:	687b      	ldr	r3, [r7, #4]
 80018c8:	7b1b      	ldrb	r3, [r3, #12]
 80018ca:	005b      	lsls	r3, r3, #1
                ADC_CFGR_EXTSEL(hadc, hadc->Init.ExternalTrigConv)            |
 80018cc:	4313      	orrs	r3, r2
    tmp_cr2 |= (hadc->Init.DataAlign                                          |
 80018ce:	68ba      	ldr	r2, [r7, #8]
 80018d0:	4313      	orrs	r3, r2
 80018d2:	60bb      	str	r3, [r7, #8]

    /* Configuration of ADC:                                                  */
    /*  - scan mode                                                           */
    /*  - discontinuous mode disable/enable                                   */
    /*  - discontinuous mode number of conversions                            */
    tmp_cr1 |= (ADC_CR1_SCAN_SET(hadc->Init.ScanConvMode));
 80018d4:	687b      	ldr	r3, [r7, #4]
 80018d6:	689b      	ldr	r3, [r3, #8]
 80018d8:	f5b3 7f80 	cmp.w	r3, #256	@ 0x100
 80018dc:	d003      	beq.n	80018e6 <HAL_ADC_Init+0xa2>
 80018de:	687b      	ldr	r3, [r7, #4]
 80018e0:	689b      	ldr	r3, [r3, #8]
 80018e2:	2b01      	cmp	r3, #1
 80018e4:	d102      	bne.n	80018ec <HAL_ADC_Init+0xa8>
 80018e6:	f44f 7380 	mov.w	r3, #256	@ 0x100
 80018ea:	e000      	b.n	80018ee <HAL_ADC_Init+0xaa>
 80018ec:	2300      	movs	r3, #0
 80018ee:	693a      	ldr	r2, [r7, #16]
 80018f0:	4313      	orrs	r3, r2
 80018f2:	613b      	str	r3, [r7, #16]
    
    /* Enable discontinuous mode only if continuous mode is disabled */
    /* Note: If parameter "Init.ScanConvMode" is set to disable, parameter    */
    /*       discontinuous is set anyway, but will have no effect on ADC HW.  */
    if (hadc->Init.DiscontinuousConvMode == ENABLE)
 80018f4:	687b      	ldr	r3, [r7, #4]
 80018f6:	7d1b      	ldrb	r3, [r3, #20]
 80018f8:	2b01      	cmp	r3, #1
 80018fa:	d119      	bne.n	8001930 <HAL_ADC_Init+0xec>
    {
      if (hadc->Init.ContinuousConvMode == DISABLE)
 80018fc:	687b      	ldr	r3, [r7, #4]
 80018fe:	7b1b      	ldrb	r3, [r3, #12]
 8001900:	2b00      	cmp	r3, #0
 8001902:	d109      	bne.n	8001918 <HAL_ADC_Init+0xd4>
      {
        /* Enable the selected ADC regular discontinuous mode */
        /* Set the number of channels to be converted in discontinuous mode */
        SET_BIT(tmp_cr1, ADC_CR1_DISCEN                                            |
 8001904:	687b      	ldr	r3, [r7, #4]
 8001906:	699b      	ldr	r3, [r3, #24]
 8001908:	3b01      	subs	r3, #1
 800190a:	035a      	lsls	r2, r3, #13
 800190c:	693b      	ldr	r3, [r7, #16]
 800190e:	4313      	orrs	r3, r2
 8001910:	f443 6300 	orr.w	r3, r3, #2048	@ 0x800
 8001914:	613b      	str	r3, [r7, #16]
 8001916:	e00b      	b.n	8001930 <HAL_ADC_Init+0xec>
      {
        /* ADC regular group settings continuous and sequencer discontinuous*/
        /* cannot be enabled simultaneously.                                */
        
        /* Update ADC state machine to error */
        SET_BIT(hadc->State, HAL_ADC_STATE_ERROR_CONFIG);
 8001918:	687b      	ldr	r3, [r7, #4]
 800191a:	6a9b      	ldr	r3, [r3, #40]	@ 0x28
 800191c:	f043 0220 	orr.w	r2, r3, #32
 8001920:	687b      	ldr	r3, [r7, #4]
 8001922:	629a      	str	r2, [r3, #40]	@ 0x28
        
        /* Set ADC error code to ADC IP internal error */
        SET_BIT(hadc->ErrorCode, HAL_ADC_ERROR_INTERNAL);
 8001924:	687b      	ldr	r3, [r7, #4]
 8001926:	6adb      	ldr	r3, [r3, #44]	@ 0x2c
 8001928:	f043 0201 	orr.w	r2, r3, #1
 800192c:	687b      	ldr	r3, [r7, #4]
 800192e:	62da      	str	r2, [r3, #44]	@ 0x2c
      }
    }
    
    /* Update ADC configuration register CR1 with previous settings */
      MODIFY_REG(hadc->Instance->CR1,
 8001930:	687b      	ldr	r3, [r7, #4]
 8001932:	681b      	ldr	r3, [r3, #0]
 8001934:	685b      	ldr	r3, [r3, #4]
 8001936:	f423 4169 	bic.w	r1, r3, #59648	@ 0xe900
 800193a:	687b      	ldr	r3, [r7, #4]
 800193c:	681b      	ldr	r3, [r3, #0]
 800193e:	693a      	ldr	r2, [r7, #16]
 8001940:	430a      	orrs	r2, r1
 8001942:	605a      	str	r2, [r3, #4]
                 ADC_CR1_DISCEN  |
                 ADC_CR1_DISCNUM    ,
                 tmp_cr1             );
    
    /* Update ADC configuration register CR2 with previous settings */
      MODIFY_REG(hadc->Instance->CR2,
 8001944:	687b      	ldr	r3, [r7, #4]
 8001946:	681b      	ldr	r3, [r3, #0]
 8001948:	689a      	ldr	r2, [r3, #8]
 800194a:	4b28      	ldr	r3, [pc, #160]	@ (80019ec <HAL_ADC_Init+0x1a8>)
 800194c:	4013      	ands	r3, r2
 800194e:	687a      	ldr	r2, [r7, #4]
 8001950:	6812      	ldr	r2, [r2, #0]
 8001952:	68b9      	ldr	r1, [r7, #8]
 8001954:	430b      	orrs	r3, r1
 8001956:	6093      	str	r3, [r2, #8]
    /*   Note: Scan mode is present by hardware on this device and, if        */
    /*   disabled, discards automatically nb of conversions. Anyway, nb of    */
    /*   conversions is forced to 0x00 for alignment over all STM32 devices.  */
    /* - if scan mode is enabled, regular channels sequence length is set to  */
    /*   parameter "NbrOfConversion"                                          */
    if (ADC_CR1_SCAN_SET(hadc->Init.ScanConvMode) == ADC_SCAN_ENABLE)
 8001958:	687b      	ldr	r3, [r7, #4]
 800195a:	689b      	ldr	r3, [r3, #8]
 800195c:	f5b3 7f80 	cmp.w	r3, #256	@ 0x100
 8001960:	d003      	beq.n	800196a <HAL_ADC_Init+0x126>
 8001962:	687b      	ldr	r3, [r7, #4]
 8001964:	689b      	ldr	r3, [r3, #8]
 8001966:	2b01      	cmp	r3, #1
 8001968:	d104      	bne.n	8001974 <HAL_ADC_Init+0x130>
    {
      tmp_sqr1 = ADC_SQR1_L_SHIFT(hadc->Init.NbrOfConversion);
 800196a:	687b      	ldr	r3, [r7, #4]
 800196c:	691b      	ldr	r3, [r3, #16]
 800196e:	3b01      	subs	r3, #1
 8001970:	051b      	lsls	r3, r3, #20
 8001972:	60fb      	str	r3, [r7, #12]
    }
      
    MODIFY_REG(hadc->Instance->SQR1,
 8001974:	687b      	ldr	r3, [r7, #4]
 8001976:	681b      	ldr	r3, [r3, #0]
 8001978:	6adb      	ldr	r3, [r3, #44]	@ 0x2c
 800197a:	f423 0170 	bic.w	r1, r3, #15728640	@ 0xf00000
 800197e:	687b      	ldr	r3, [r7, #4]
 8001980:	681b      	ldr	r3, [r3, #0]
 8001982:	68fa      	ldr	r2, [r7, #12]
 8001984:	430a      	orrs	r2, r1
 8001986:	62da      	str	r2, [r3, #44]	@ 0x2c
    /* ensure of no potential problem of ADC core IP clocking.                */
    /* Check through register CR2 (excluding bits set in other functions:     */
    /* execution control bits (ADON, JSWSTART, SWSTART), regular group bits   */
    /* (DMA), injected group bits (JEXTTRIG and JEXTSEL), channel internal    */
    /* measurement path bit (TSVREFE).                                        */
    if (READ_BIT(hadc->Instance->CR2, ~(ADC_CR2_ADON | ADC_CR2_DMA |
 8001988:	687b      	ldr	r3, [r7, #4]
 800198a:	681b      	ldr	r3, [r3, #0]
 800198c:	689a      	ldr	r2, [r3, #8]
 800198e:	4b18      	ldr	r3, [pc, #96]	@ (80019f0 <HAL_ADC_Init+0x1ac>)
 8001990:	4013      	ands	r3, r2
 8001992:	68ba      	ldr	r2, [r7, #8]
 8001994:	429a      	cmp	r2, r3
 8001996:	d10b      	bne.n	80019b0 <HAL_ADC_Init+0x16c>
                                        ADC_CR2_JEXTTRIG | ADC_CR2_JEXTSEL |
                                        ADC_CR2_TSVREFE                     ))
         == tmp_cr2)
    {
      /* Set ADC error code to none */
      ADC_CLEAR_ERRORCODE(hadc);
 8001998:	687b      	ldr	r3, [r7, #4]
 800199a:	2200      	movs	r2, #0
 800199c:	62da      	str	r2, [r3, #44]	@ 0x2c
      
      /* Set the ADC state */
      ADC_STATE_CLR_SET(hadc->State,
 800199e:	687b      	ldr	r3, [r7, #4]
 80019a0:	6a9b      	ldr	r3, [r3, #40]	@ 0x28
 80019a2:	f023 0303 	bic.w	r3, r3, #3
 80019a6:	f043 0201 	orr.w	r2, r3, #1
 80019aa:	687b      	ldr	r3, [r7, #4]
 80019ac:	629a      	str	r2, [r3, #40]	@ 0x28
    if (READ_BIT(hadc->Instance->CR2, ~(ADC_CR2_ADON | ADC_CR2_DMA |
 80019ae:	e018      	b.n	80019e2 <HAL_ADC_Init+0x19e>
                        HAL_ADC_STATE_READY);
    }
    else
    {
      /* Update ADC state machine to error */
      ADC_STATE_CLR_SET(hadc->State,
 80019b0:	687b      	ldr	r3, [r7, #4]
 80019b2:	6a9b      	ldr	r3, [r3, #40]	@ 0x28
 80019b4:	f023 0312 	bic.w	r3, r3, #18
 80019b8:	f043 0210 	orr.w	r2, r3, #16
 80019bc:	687b      	ldr	r3, [r7, #4]
 80019be:	629a      	str	r2, [r3, #40]	@ 0x28
                        HAL_ADC_STATE_BUSY_INTERNAL,
                        HAL_ADC_STATE_ERROR_INTERNAL);
      
      /* Set ADC error code to ADC IP internal error */
      SET_BIT(hadc->ErrorCode, HAL_ADC_ERROR_INTERNAL);
 80019c0:	687b      	ldr	r3, [r7, #4]
 80019c2:	6adb      	ldr	r3, [r3, #44]	@ 0x2c
 80019c4:	f043 0201 	orr.w	r2, r3, #1
 80019c8:	687b      	ldr	r3, [r7, #4]
 80019ca:	62da      	str	r2, [r3, #44]	@ 0x2c
      
      tmp_hal_status = HAL_ERROR;
 80019cc:	2301      	movs	r3, #1
 80019ce:	75fb      	strb	r3, [r7, #23]
    if (READ_BIT(hadc->Instance->CR2, ~(ADC_CR2_ADON | ADC_CR2_DMA |
 80019d0:	e007      	b.n	80019e2 <HAL_ADC_Init+0x19e>
  
  }
  else
  {
    /* Update ADC state machine to error */
    SET_BIT(hadc->State, HAL_ADC_STATE_ERROR_INTERNAL);
 80019d2:	687b      	ldr	r3, [r7, #4]
 80019d4:	6a9b      	ldr	r3, [r3, #40]	@ 0x28
 80019d6:	f043 0210 	orr.w	r2, r3, #16
 80019da:	687b      	ldr	r3, [r7, #4]
 80019dc:	629a      	str	r2, [r3, #40]	@ 0x28
        
    tmp_hal_status = HAL_ERROR;
 80019de:	2301      	movs	r3, #1
 80019e0:	75fb      	strb	r3, [r7, #23]
  }
  
  /* Return function status */
  return tmp_hal_status;
 80019e2:	7dfb      	ldrb	r3, [r7, #23]
}
 80019e4:	4618      	mov	r0, r3
 80019e6:	3718      	adds	r7, #24
 80019e8:	46bd      	mov	sp, r7
 80019ea:	bd80      	pop	{r7, pc}
 80019ec:	ffe1f7fd 	.word	0xffe1f7fd
 80019f0:	ff1f0efe 	.word	0xff1f0efe

080019f4 <HAL_ADC_Start_DMA>:
  * @param  pData: The destination Buffer address.
  * @param  Length: The length of data to be transferred from ADC peripheral to memory.
  * @retval None
  */
HAL_StatusTypeDef HAL_ADC_Start_DMA(ADC_HandleTypeDef* hadc, uint32_t* pData, uint32_t Length)
{
 80019f4:	b580      	push	{r7, lr}
 80019f6:	b086      	sub	sp, #24
 80019f8:	af00      	add	r7, sp, #0
 80019fa:	60f8      	str	r0, [r7, #12]
 80019fc:	60b9      	str	r1, [r7, #8]
 80019fe:	607a      	str	r2, [r7, #4]
  HAL_StatusTypeDef tmp_hal_status = HAL_OK;
 8001a00:	2300      	movs	r3, #0
 8001a02:	75fb      	strb	r3, [r7, #23]
  assert_param(IS_ADC_DMA_CAPABILITY_INSTANCE(hadc->Instance));
    
  /* Verification if multimode is disabled (for devices with several ADC)     */
  /* If multimode is enabled, dedicated function multimode conversion         */
  /* start DMA must be used.                                                  */
  if(ADC_MULTIMODE_IS_ENABLE(hadc) == RESET)
 8001a04:	68fb      	ldr	r3, [r7, #12]
 8001a06:	681b      	ldr	r3, [r3, #0]
 8001a08:	4a64      	ldr	r2, [pc, #400]	@ (8001b9c <HAL_ADC_Start_DMA+0x1a8>)
 8001a0a:	4293      	cmp	r3, r2
 8001a0c:	d004      	beq.n	8001a18 <HAL_ADC_Start_DMA+0x24>
 8001a0e:	68fb      	ldr	r3, [r7, #12]
 8001a10:	681b      	ldr	r3, [r3, #0]
 8001a12:	4a63      	ldr	r2, [pc, #396]	@ (8001ba0 <HAL_ADC_Start_DMA+0x1ac>)
 8001a14:	4293      	cmp	r3, r2
 8001a16:	d106      	bne.n	8001a26 <HAL_ADC_Start_DMA+0x32>
 8001a18:	4b60      	ldr	r3, [pc, #384]	@ (8001b9c <HAL_ADC_Start_DMA+0x1a8>)
 8001a1a:	685b      	ldr	r3, [r3, #4]
 8001a1c:	f403 2370 	and.w	r3, r3, #983040	@ 0xf0000
 8001a20:	2b00      	cmp	r3, #0
 8001a22:	f040 80b3 	bne.w	8001b8c <HAL_ADC_Start_DMA+0x198>
  {
    /* Process locked */
    __HAL_LOCK(hadc);
 8001a26:	68fb      	ldr	r3, [r7, #12]
 8001a28:	f893 3024 	ldrb.w	r3, [r3, #36]	@ 0x24
 8001a2c:	2b01      	cmp	r3, #1
 8001a2e:	d101      	bne.n	8001a34 <HAL_ADC_Start_DMA+0x40>
 8001a30:	2302      	movs	r3, #2
 8001a32:	e0ae      	b.n	8001b92 <HAL_ADC_Start_DMA+0x19e>
 8001a34:	68fb      	ldr	r3, [r7, #12]
 8001a36:	2201      	movs	r2, #1
 8001a38:	f883 2024 	strb.w	r2, [r3, #36]	@ 0x24
    
    /* Enable the ADC peripheral */
    tmp_hal_status = ADC_Enable(hadc);
 8001a3c:	68f8      	ldr	r0, [r7, #12]
 8001a3e:	f000 f9b9 	bl	8001db4 <ADC_Enable>
 8001a42:	4603      	mov	r3, r0
 8001a44:	75fb      	strb	r3, [r7, #23]
    
    /* Start conversion if ADC is effectively enabled */
    if (tmp_hal_status == HAL_OK)
 8001a46:	7dfb      	ldrb	r3, [r7, #23]
 8001a48:	2b00      	cmp	r3, #0
 8001a4a:	f040 809a 	bne.w	8001b82 <HAL_ADC_Start_DMA+0x18e>
    {
      /* Set ADC state                                                        */
      /* - Clear state bitfield related to regular group conversion results   */
      /* - Set state bitfield related to regular operation                    */
      ADC_STATE_CLR_SET(hadc->State,
 8001a4e:	68fb      	ldr	r3, [r7, #12]
 8001a50:	6a9b      	ldr	r3, [r3, #40]	@ 0x28
 8001a52:	f423 6370 	bic.w	r3, r3, #3840	@ 0xf00
 8001a56:	f023 0301 	bic.w	r3, r3, #1
 8001a5a:	f443 7280 	orr.w	r2, r3, #256	@ 0x100
 8001a5e:	68fb      	ldr	r3, [r7, #12]
 8001a60:	629a      	str	r2, [r3, #40]	@ 0x28
                        HAL_ADC_STATE_REG_BUSY);
    
    /* Set group injected state (from auto-injection) and multimode state     */
    /* for all cases of multimode: independent mode, multimode ADC master     */
    /* or multimode ADC slave (for devices with several ADCs):                */
    if (ADC_NONMULTIMODE_OR_MULTIMODEMASTER(hadc))
 8001a62:	68fb      	ldr	r3, [r7, #12]
 8001a64:	681b      	ldr	r3, [r3, #0]
 8001a66:	4a4e      	ldr	r2, [pc, #312]	@ (8001ba0 <HAL_ADC_Start_DMA+0x1ac>)
 8001a68:	4293      	cmp	r3, r2
 8001a6a:	d105      	bne.n	8001a78 <HAL_ADC_Start_DMA+0x84>
 8001a6c:	4b4b      	ldr	r3, [pc, #300]	@ (8001b9c <HAL_ADC_Start_DMA+0x1a8>)
 8001a6e:	685b      	ldr	r3, [r3, #4]
 8001a70:	f403 2370 	and.w	r3, r3, #983040	@ 0xf0000
 8001a74:	2b00      	cmp	r3, #0
 8001a76:	d115      	bne.n	8001aa4 <HAL_ADC_Start_DMA+0xb0>
    {
      /* Set ADC state (ADC independent or master) */
      CLEAR_BIT(hadc->State, HAL_ADC_STATE_MULTIMODE_SLAVE);
 8001a78:	68fb      	ldr	r3, [r7, #12]
 8001a7a:	6a9b      	ldr	r3, [r3, #40]	@ 0x28
 8001a7c:	f423 1280 	bic.w	r2, r3, #1048576	@ 0x100000
 8001a80:	68fb      	ldr	r3, [r7, #12]
 8001a82:	629a      	str	r2, [r3, #40]	@ 0x28
      
      /* If conversions on group regular are also triggering group injected,  */
      /* update ADC state.                                                    */
      if (READ_BIT(hadc->Instance->CR1, ADC_CR1_JAUTO) != RESET)
 8001a84:	68fb      	ldr	r3, [r7, #12]
 8001a86:	681b      	ldr	r3, [r3, #0]
 8001a88:	685b      	ldr	r3, [r3, #4]
 8001a8a:	f403 6380 	and.w	r3, r3, #1024	@ 0x400
 8001a8e:	2b00      	cmp	r3, #0
 8001a90:	d026      	beq.n	8001ae0 <HAL_ADC_Start_DMA+0xec>
      {
        ADC_STATE_CLR_SET(hadc->State, HAL_ADC_STATE_INJ_EOC, HAL_ADC_STATE_INJ_BUSY);  
 8001a92:	68fb      	ldr	r3, [r7, #12]
 8001a94:	6a9b      	ldr	r3, [r3, #40]	@ 0x28
 8001a96:	f423 5340 	bic.w	r3, r3, #12288	@ 0x3000
 8001a9a:	f443 5280 	orr.w	r2, r3, #4096	@ 0x1000
 8001a9e:	68fb      	ldr	r3, [r7, #12]
 8001aa0:	629a      	str	r2, [r3, #40]	@ 0x28
      if (READ_BIT(hadc->Instance->CR1, ADC_CR1_JAUTO) != RESET)
 8001aa2:	e01d      	b.n	8001ae0 <HAL_ADC_Start_DMA+0xec>
      }
    }
    else
    {
      /* Set ADC state (ADC slave) */
      SET_BIT(hadc->State, HAL_ADC_STATE_MULTIMODE_SLAVE);
 8001aa4:	68fb      	ldr	r3, [r7, #12]
 8001aa6:	6a9b      	ldr	r3, [r3, #40]	@ 0x28
 8001aa8:	f443 1280 	orr.w	r2, r3, #1048576	@ 0x100000
 8001aac:	68fb      	ldr	r3, [r7, #12]
 8001aae:	629a      	str	r2, [r3, #40]	@ 0x28
      
      /* If conversions on group regular are also triggering group injected,  */
      /* update ADC state.                                                    */
      if (ADC_MULTIMODE_AUTO_INJECTED(hadc))
 8001ab0:	68fb      	ldr	r3, [r7, #12]
 8001ab2:	681b      	ldr	r3, [r3, #0]
 8001ab4:	4a39      	ldr	r2, [pc, #228]	@ (8001b9c <HAL_ADC_Start_DMA+0x1a8>)
 8001ab6:	4293      	cmp	r3, r2
 8001ab8:	d004      	beq.n	8001ac4 <HAL_ADC_Start_DMA+0xd0>
 8001aba:	68fb      	ldr	r3, [r7, #12]
 8001abc:	681b      	ldr	r3, [r3, #0]
 8001abe:	4a38      	ldr	r2, [pc, #224]	@ (8001ba0 <HAL_ADC_Start_DMA+0x1ac>)
 8001ac0:	4293      	cmp	r3, r2
 8001ac2:	d10d      	bne.n	8001ae0 <HAL_ADC_Start_DMA+0xec>
 8001ac4:	4b35      	ldr	r3, [pc, #212]	@ (8001b9c <HAL_ADC_Start_DMA+0x1a8>)
 8001ac6:	685b      	ldr	r3, [r3, #4]
 8001ac8:	f403 6380 	and.w	r3, r3, #1024	@ 0x400
 8001acc:	2b00      	cmp	r3, #0
 8001ace:	d007      	beq.n	8001ae0 <HAL_ADC_Start_DMA+0xec>
      {
        ADC_STATE_CLR_SET(hadc->State, HAL_ADC_STATE_INJ_EOC, HAL_ADC_STATE_INJ_BUSY);
 8001ad0:	68fb      	ldr	r3, [r7, #12]
 8001ad2:	6a9b      	ldr	r3, [r3, #40]	@ 0x28
 8001ad4:	f423 5340 	bic.w	r3, r3, #12288	@ 0x3000
 8001ad8:	f443 5280 	orr.w	r2, r3, #4096	@ 0x1000
 8001adc:	68fb      	ldr	r3, [r7, #12]
 8001ade:	629a      	str	r2, [r3, #40]	@ 0x28
      }
    }
      
      /* State machine update: Check if an injected conversion is ongoing */
      if (HAL_IS_BIT_SET(hadc->State, HAL_ADC_STATE_INJ_BUSY))
 8001ae0:	68fb      	ldr	r3, [r7, #12]
 8001ae2:	6a9b      	ldr	r3, [r3, #40]	@ 0x28
 8001ae4:	f403 5380 	and.w	r3, r3, #4096	@ 0x1000
 8001ae8:	2b00      	cmp	r3, #0
 8001aea:	d006      	beq.n	8001afa <HAL_ADC_Start_DMA+0x106>
      {
        /* Reset ADC error code fields related to conversions on group regular */
        CLEAR_BIT(hadc->ErrorCode, (HAL_ADC_ERROR_OVR | HAL_ADC_ERROR_DMA));         
 8001aec:	68fb      	ldr	r3, [r7, #12]
 8001aee:	6adb      	ldr	r3, [r3, #44]	@ 0x2c
 8001af0:	f023 0206 	bic.w	r2, r3, #6
 8001af4:	68fb      	ldr	r3, [r7, #12]
 8001af6:	62da      	str	r2, [r3, #44]	@ 0x2c
 8001af8:	e002      	b.n	8001b00 <HAL_ADC_Start_DMA+0x10c>
      }
      else
      {
        /* Reset ADC all error code fields */
        ADC_CLEAR_ERRORCODE(hadc);
 8001afa:	68fb      	ldr	r3, [r7, #12]
 8001afc:	2200      	movs	r2, #0
 8001afe:	62da      	str	r2, [r3, #44]	@ 0x2c
      }
      
      /* Process unlocked */
      /* Unlock before starting ADC conversions: in case of potential         */
      /* interruption, to let the process to ADC IRQ Handler.                 */
      __HAL_UNLOCK(hadc);
 8001b00:	68fb      	ldr	r3, [r7, #12]
 8001b02:	2200      	movs	r2, #0
 8001b04:	f883 2024 	strb.w	r2, [r3, #36]	@ 0x24
      
      /* Set the DMA transfer complete callback */
      hadc->DMA_Handle->XferCpltCallback = ADC_DMAConvCplt;
 8001b08:	68fb      	ldr	r3, [r7, #12]
 8001b0a:	6a1b      	ldr	r3, [r3, #32]
 8001b0c:	4a25      	ldr	r2, [pc, #148]	@ (8001ba4 <HAL_ADC_Start_DMA+0x1b0>)
 8001b0e:	629a      	str	r2, [r3, #40]	@ 0x28

      /* Set the DMA half transfer complete callback */
      hadc->DMA_Handle->XferHalfCpltCallback = ADC_DMAHalfConvCplt;
 8001b10:	68fb      	ldr	r3, [r7, #12]
 8001b12:	6a1b      	ldr	r3, [r3, #32]
 8001b14:	4a24      	ldr	r2, [pc, #144]	@ (8001ba8 <HAL_ADC_Start_DMA+0x1b4>)
 8001b16:	62da      	str	r2, [r3, #44]	@ 0x2c
      
      /* Set the DMA error callback */
      hadc->DMA_Handle->XferErrorCallback = ADC_DMAError;
 8001b18:	68fb      	ldr	r3, [r7, #12]
 8001b1a:	6a1b      	ldr	r3, [r3, #32]
 8001b1c:	4a23      	ldr	r2, [pc, #140]	@ (8001bac <HAL_ADC_Start_DMA+0x1b8>)
 8001b1e:	631a      	str	r2, [r3, #48]	@ 0x30
      /* start (in case of SW start):                                         */
      
      /* Clear regular group conversion flag and overrun flag */
      /* (To ensure of no unknown state from potential previous ADC           */
      /* operations)                                                          */
      __HAL_ADC_CLEAR_FLAG(hadc, ADC_FLAG_EOC);
 8001b20:	68fb      	ldr	r3, [r7, #12]
 8001b22:	681b      	ldr	r3, [r3, #0]
 8001b24:	f06f 0202 	mvn.w	r2, #2
 8001b28:	601a      	str	r2, [r3, #0]
      
      /* Enable ADC DMA mode */
      SET_BIT(hadc->Instance->CR2, ADC_CR2_DMA);
 8001b2a:	68fb      	ldr	r3, [r7, #12]
 8001b2c:	681b      	ldr	r3, [r3, #0]
 8001b2e:	689a      	ldr	r2, [r3, #8]
 8001b30:	68fb      	ldr	r3, [r7, #12]
 8001b32:	681b      	ldr	r3, [r3, #0]
 8001b34:	f442 7280 	orr.w	r2, r2, #256	@ 0x100
 8001b38:	609a      	str	r2, [r3, #8]
      
      /* Start the DMA channel */
      HAL_DMA_Start_IT(hadc->DMA_Handle, (uint32_t)&hadc->Instance->DR, (uint32_t)pData, Length);
 8001b3a:	68fb      	ldr	r3, [r7, #12]
 8001b3c:	6a18      	ldr	r0, [r3, #32]
 8001b3e:	68fb      	ldr	r3, [r7, #12]
 8001b40:	681b      	ldr	r3, [r3, #0]
 8001b42:	334c      	adds	r3, #76	@ 0x4c
 8001b44:	4619      	mov	r1, r3
 8001b46:	68ba      	ldr	r2, [r7, #8]
 8001b48:	687b      	ldr	r3, [r7, #4]
 8001b4a:	f000 fb9d 	bl	8002288 <HAL_DMA_Start_IT>
      
      /* Enable conversion of regular group.                                  */
      /* If software start has been selected, conversion starts immediately.  */
      /* If external trigger has been selected, conversion will start at next */
      /* trigger event.                                                       */
      if (ADC_IS_SOFTWARE_START_REGULAR(hadc))
 8001b4e:	68fb      	ldr	r3, [r7, #12]
 8001b50:	681b      	ldr	r3, [r3, #0]
 8001b52:	689b      	ldr	r3, [r3, #8]
 8001b54:	f403 2360 	and.w	r3, r3, #917504	@ 0xe0000
 8001b58:	f5b3 2f60 	cmp.w	r3, #917504	@ 0xe0000
 8001b5c:	d108      	bne.n	8001b70 <HAL_ADC_Start_DMA+0x17c>
      {
        /* Start ADC conversion on regular group with SW start */
        SET_BIT(hadc->Instance->CR2, (ADC_CR2_SWSTART | ADC_CR2_EXTTRIG));
 8001b5e:	68fb      	ldr	r3, [r7, #12]
 8001b60:	681b      	ldr	r3, [r3, #0]
 8001b62:	689a      	ldr	r2, [r3, #8]
 8001b64:	68fb      	ldr	r3, [r7, #12]
 8001b66:	681b      	ldr	r3, [r3, #0]
 8001b68:	f442 02a0 	orr.w	r2, r2, #5242880	@ 0x500000
 8001b6c:	609a      	str	r2, [r3, #8]
    if (tmp_hal_status == HAL_OK)
 8001b6e:	e00f      	b.n	8001b90 <HAL_ADC_Start_DMA+0x19c>
      }
      else
      {
        /* Start ADC conversion on regular group with external trigger */
        SET_BIT(hadc->Instance->CR2, ADC_CR2_EXTTRIG);
 8001b70:	68fb      	ldr	r3, [r7, #12]
 8001b72:	681b      	ldr	r3, [r3, #0]
 8001b74:	689a      	ldr	r2, [r3, #8]
 8001b76:	68fb      	ldr	r3, [r7, #12]
 8001b78:	681b      	ldr	r3, [r3, #0]
 8001b7a:	f442 1280 	orr.w	r2, r2, #1048576	@ 0x100000
 8001b7e:	609a      	str	r2, [r3, #8]
    if (tmp_hal_status == HAL_OK)
 8001b80:	e006      	b.n	8001b90 <HAL_ADC_Start_DMA+0x19c>
      }
    }
    else
    {
      /* Process unlocked */
      __HAL_UNLOCK(hadc);
 8001b82:	68fb      	ldr	r3, [r7, #12]
 8001b84:	2200      	movs	r2, #0
 8001b86:	f883 2024 	strb.w	r2, [r3, #36]	@ 0x24
    if (tmp_hal_status == HAL_OK)
 8001b8a:	e001      	b.n	8001b90 <HAL_ADC_Start_DMA+0x19c>
    }
  }
  else
  {
    tmp_hal_status = HAL_ERROR;
 8001b8c:	2301      	movs	r3, #1
 8001b8e:	75fb      	strb	r3, [r7, #23]
  }
  
  /* Return function status */
  return tmp_hal_status;
 8001b90:	7dfb      	ldrb	r3, [r7, #23]
}
 8001b92:	4618      	mov	r0, r3
 8001b94:	3718      	adds	r7, #24
 8001b96:	46bd      	mov	sp, r7
 8001b98:	bd80      	pop	{r7, pc}
 8001b9a:	bf00      	nop
 8001b9c:	40012400 	.word	0x40012400
 8001ba0:	40012800 	.word	0x40012800
 8001ba4:	08001eeb 	.word	0x08001eeb
 8001ba8:	08001f67 	.word	0x08001f67
 8001bac:	08001f83 	.word	0x08001f83

08001bb0 <HAL_ADC_ErrorCallback>:
  *        (ADC conversion with interruption or transfer by DMA)
  * @param  hadc: ADC handle
  * @retval None
  */
__weak void HAL_ADC_ErrorCallback(ADC_HandleTypeDef *hadc)
{
 8001bb0:	b480      	push	{r7}
 8001bb2:	b083      	sub	sp, #12
 8001bb4:	af00      	add	r7, sp, #0
 8001bb6:	6078      	str	r0, [r7, #4]
  /* Prevent unused argument(s) compilation warning */
  UNUSED(hadc);
  /* NOTE : This function should not be modified. When the callback is needed,
            function HAL_ADC_ErrorCallback must be implemented in the user file.
  */
}
 8001bb8:	bf00      	nop
 8001bba:	370c      	adds	r7, #12
 8001bbc:	46bd      	mov	sp, r7
 8001bbe:	bc80      	pop	{r7}
 8001bc0:	4770      	bx	lr
	...

08001bc4 <HAL_ADC_ConfigChannel>:
  * @param  hadc: ADC handle
  * @param  sConfig: Structure of ADC channel for regular group.
  * @retval HAL status
  */
HAL_StatusTypeDef HAL_ADC_ConfigChannel(ADC_HandleTypeDef* hadc, ADC_ChannelConfTypeDef* sConfig)
{ 
 8001bc4:	b480      	push	{r7}
 8001bc6:	b085      	sub	sp, #20
 8001bc8:	af00      	add	r7, sp, #0
 8001bca:	6078      	str	r0, [r7, #4]
 8001bcc:	6039      	str	r1, [r7, #0]
  HAL_StatusTypeDef tmp_hal_status = HAL_OK;
 8001bce:	2300      	movs	r3, #0
 8001bd0:	73fb      	strb	r3, [r7, #15]
  __IO uint32_t wait_loop_index = 0U;
 8001bd2:	2300      	movs	r3, #0
 8001bd4:	60bb      	str	r3, [r7, #8]
  assert_param(IS_ADC_CHANNEL(sConfig->Channel));
  assert_param(IS_ADC_REGULAR_RANK(sConfig->Rank));
  assert_param(IS_ADC_SAMPLE_TIME(sConfig->SamplingTime));
  
  /* Process locked */
  __HAL_LOCK(hadc);
 8001bd6:	687b      	ldr	r3, [r7, #4]
 8001bd8:	f893 3024 	ldrb.w	r3, [r3, #36]	@ 0x24
 8001bdc:	2b01      	cmp	r3, #1
 8001bde:	d101      	bne.n	8001be4 <HAL_ADC_ConfigChannel+0x20>
 8001be0:	2302      	movs	r3, #2
 8001be2:	e0dc      	b.n	8001d9e <HAL_ADC_ConfigChannel+0x1da>
 8001be4:	687b      	ldr	r3, [r7, #4]
 8001be6:	2201      	movs	r2, #1
 8001be8:	f883 2024 	strb.w	r2, [r3, #36]	@ 0x24
  
  
  /* Regular sequence configuration */
  /* For Rank 1 to 6 */
  if (sConfig->Rank < 7U)
 8001bec:	683b      	ldr	r3, [r7, #0]
 8001bee:	685b      	ldr	r3, [r3, #4]
 8001bf0:	2b06      	cmp	r3, #6
 8001bf2:	d81c      	bhi.n	8001c2e <HAL_ADC_ConfigChannel+0x6a>
  {
    MODIFY_REG(hadc->Instance->SQR3                        ,
 8001bf4:	687b      	ldr	r3, [r7, #4]
 8001bf6:	681b      	ldr	r3, [r3, #0]
 8001bf8:	6b59      	ldr	r1, [r3, #52]	@ 0x34
 8001bfa:	683b      	ldr	r3, [r7, #0]
 8001bfc:	685a      	ldr	r2, [r3, #4]
 8001bfe:	4613      	mov	r3, r2
 8001c00:	009b      	lsls	r3, r3, #2
 8001c02:	4413      	add	r3, r2
 8001c04:	3b05      	subs	r3, #5
 8001c06:	221f      	movs	r2, #31
 8001c08:	fa02 f303 	lsl.w	r3, r2, r3
 8001c0c:	43db      	mvns	r3, r3
 8001c0e:	4019      	ands	r1, r3
 8001c10:	683b      	ldr	r3, [r7, #0]
 8001c12:	6818      	ldr	r0, [r3, #0]
 8001c14:	683b      	ldr	r3, [r7, #0]
 8001c16:	685a      	ldr	r2, [r3, #4]
 8001c18:	4613      	mov	r3, r2
 8001c1a:	009b      	lsls	r3, r3, #2
 8001c1c:	4413      	add	r3, r2
 8001c1e:	3b05      	subs	r3, #5
 8001c20:	fa00 f203 	lsl.w	r2, r0, r3
 8001c24:	687b      	ldr	r3, [r7, #4]
 8001c26:	681b      	ldr	r3, [r3, #0]
 8001c28:	430a      	orrs	r2, r1
 8001c2a:	635a      	str	r2, [r3, #52]	@ 0x34
 8001c2c:	e03c      	b.n	8001ca8 <HAL_ADC_ConfigChannel+0xe4>
               ADC_SQR3_RK(ADC_SQR3_SQ1, sConfig->Rank)    ,
               ADC_SQR3_RK(sConfig->Channel, sConfig->Rank) );
  }
  /* For Rank 7 to 12 */
  else if (sConfig->Rank < 13U)
 8001c2e:	683b      	ldr	r3, [r7, #0]
 8001c30:	685b      	ldr	r3, [r3, #4]
 8001c32:	2b0c      	cmp	r3, #12
 8001c34:	d81c      	bhi.n	8001c70 <HAL_ADC_ConfigChannel+0xac>
  {
    MODIFY_REG(hadc->Instance->SQR2                        ,
 8001c36:	687b      	ldr	r3, [r7, #4]
 8001c38:	681b      	ldr	r3, [r3, #0]
 8001c3a:	6b19      	ldr	r1, [r3, #48]	@ 0x30
 8001c3c:	683b      	ldr	r3, [r7, #0]
 8001c3e:	685a      	ldr	r2, [r3, #4]
 8001c40:	4613      	mov	r3, r2
 8001c42:	009b      	lsls	r3, r3, #2
 8001c44:	4413      	add	r3, r2
 8001c46:	3b23      	subs	r3, #35	@ 0x23
 8001c48:	221f      	movs	r2, #31
 8001c4a:	fa02 f303 	lsl.w	r3, r2, r3
 8001c4e:	43db      	mvns	r3, r3
 8001c50:	4019      	ands	r1, r3
 8001c52:	683b      	ldr	r3, [r7, #0]
 8001c54:	6818      	ldr	r0, [r3, #0]
 8001c56:	683b      	ldr	r3, [r7, #0]
 8001c58:	685a      	ldr	r2, [r3, #4]
 8001c5a:	4613      	mov	r3, r2
 8001c5c:	009b      	lsls	r3, r3, #2
 8001c5e:	4413      	add	r3, r2
 8001c60:	3b23      	subs	r3, #35	@ 0x23
 8001c62:	fa00 f203 	lsl.w	r2, r0, r3
 8001c66:	687b      	ldr	r3, [r7, #4]
 8001c68:	681b      	ldr	r3, [r3, #0]
 8001c6a:	430a      	orrs	r2, r1
 8001c6c:	631a      	str	r2, [r3, #48]	@ 0x30
 8001c6e:	e01b      	b.n	8001ca8 <HAL_ADC_ConfigChannel+0xe4>
               ADC_SQR2_RK(sConfig->Channel, sConfig->Rank) );
  }
  /* For Rank 13 to 16 */
  else
  {
    MODIFY_REG(hadc->Instance->SQR1                        ,
 8001c70:	687b      	ldr	r3, [r7, #4]
 8001c72:	681b      	ldr	r3, [r3, #0]
 8001c74:	6ad9      	ldr	r1, [r3, #44]	@ 0x2c
 8001c76:	683b      	ldr	r3, [r7, #0]
 8001c78:	685a      	ldr	r2, [r3, #4]
 8001c7a:	4613      	mov	r3, r2
 8001c7c:	009b      	lsls	r3, r3, #2
 8001c7e:	4413      	add	r3, r2
 8001c80:	3b41      	subs	r3, #65	@ 0x41
 8001c82:	221f      	movs	r2, #31
 8001c84:	fa02 f303 	lsl.w	r3, r2, r3
 8001c88:	43db      	mvns	r3, r3
 8001c8a:	4019      	ands	r1, r3
 8001c8c:	683b      	ldr	r3, [r7, #0]
 8001c8e:	6818      	ldr	r0, [r3, #0]
 8001c90:	683b      	ldr	r3, [r7, #0]
 8001c92:	685a      	ldr	r2, [r3, #4]
 8001c94:	4613      	mov	r3, r2
 8001c96:	009b      	lsls	r3, r3, #2
 8001c98:	4413      	add	r3, r2
 8001c9a:	3b41      	subs	r3, #65	@ 0x41
 8001c9c:	fa00 f203 	lsl.w	r2, r0, r3
 8001ca0:	687b      	ldr	r3, [r7, #4]
 8001ca2:	681b      	ldr	r3, [r3, #0]
 8001ca4:	430a      	orrs	r2, r1
 8001ca6:	62da      	str	r2, [r3, #44]	@ 0x2c
  }
  
  
  /* Channel sampling time configuration */
  /* For channels 10 to 17 */
  if (sConfig->Channel >= ADC_CHANNEL_10)
 8001ca8:	683b      	ldr	r3, [r7, #0]
 8001caa:	681b      	ldr	r3, [r3, #0]
 8001cac:	2b09      	cmp	r3, #9
 8001cae:	d91c      	bls.n	8001cea <HAL_ADC_ConfigChannel+0x126>
  {
    MODIFY_REG(hadc->Instance->SMPR1                             ,
 8001cb0:	687b      	ldr	r3, [r7, #4]
 8001cb2:	681b      	ldr	r3, [r3, #0]
 8001cb4:	68d9      	ldr	r1, [r3, #12]
 8001cb6:	683b      	ldr	r3, [r7, #0]
 8001cb8:	681a      	ldr	r2, [r3, #0]
 8001cba:	4613      	mov	r3, r2
 8001cbc:	005b      	lsls	r3, r3, #1
 8001cbe:	4413      	add	r3, r2
 8001cc0:	3b1e      	subs	r3, #30
 8001cc2:	2207      	movs	r2, #7
 8001cc4:	fa02 f303 	lsl.w	r3, r2, r3
 8001cc8:	43db      	mvns	r3, r3
 8001cca:	4019      	ands	r1, r3
 8001ccc:	683b      	ldr	r3, [r7, #0]
 8001cce:	6898      	ldr	r0, [r3, #8]
 8001cd0:	683b      	ldr	r3, [r7, #0]
 8001cd2:	681a      	ldr	r2, [r3, #0]
 8001cd4:	4613      	mov	r3, r2
 8001cd6:	005b      	lsls	r3, r3, #1
 8001cd8:	4413      	add	r3, r2
 8001cda:	3b1e      	subs	r3, #30
 8001cdc:	fa00 f203 	lsl.w	r2, r0, r3
 8001ce0:	687b      	ldr	r3, [r7, #4]
 8001ce2:	681b      	ldr	r3, [r3, #0]
 8001ce4:	430a      	orrs	r2, r1
 8001ce6:	60da      	str	r2, [r3, #12]
 8001ce8:	e019      	b.n	8001d1e <HAL_ADC_ConfigChannel+0x15a>
               ADC_SMPR1(ADC_SMPR1_SMP10, sConfig->Channel)      ,
               ADC_SMPR1(sConfig->SamplingTime, sConfig->Channel) );
  }
  else /* For channels 0 to 9 */
  {
    MODIFY_REG(hadc->Instance->SMPR2                             ,
 8001cea:	687b      	ldr	r3, [r7, #4]
 8001cec:	681b      	ldr	r3, [r3, #0]
 8001cee:	6919      	ldr	r1, [r3, #16]
 8001cf0:	683b      	ldr	r3, [r7, #0]
 8001cf2:	681a      	ldr	r2, [r3, #0]
 8001cf4:	4613      	mov	r3, r2
 8001cf6:	005b      	lsls	r3, r3, #1
 8001cf8:	4413      	add	r3, r2
 8001cfa:	2207      	movs	r2, #7
 8001cfc:	fa02 f303 	lsl.w	r3, r2, r3
 8001d00:	43db      	mvns	r3, r3
 8001d02:	4019      	ands	r1, r3
 8001d04:	683b      	ldr	r3, [r7, #0]
 8001d06:	6898      	ldr	r0, [r3, #8]
 8001d08:	683b      	ldr	r3, [r7, #0]
 8001d0a:	681a      	ldr	r2, [r3, #0]
 8001d0c:	4613      	mov	r3, r2
 8001d0e:	005b      	lsls	r3, r3, #1
 8001d10:	4413      	add	r3, r2
 8001d12:	fa00 f203 	lsl.w	r2, r0, r3
 8001d16:	687b      	ldr	r3, [r7, #4]
 8001d18:	681b      	ldr	r3, [r3, #0]
 8001d1a:	430a      	orrs	r2, r1
 8001d1c:	611a      	str	r2, [r3, #16]
               ADC_SMPR2(sConfig->SamplingTime, sConfig->Channel) );
  }
  
  /* If ADC1 Channel_16 or Channel_17 is selected, enable Temperature sensor  */
  /* and VREFINT measurement path.                                            */
  if ((sConfig->Channel == ADC_CHANNEL_TEMPSENSOR) ||
 8001d1e:	683b      	ldr	r3, [r7, #0]
 8001d20:	681b      	ldr	r3, [r3, #0]
 8001d22:	2b10      	cmp	r3, #16
 8001d24:	d003      	beq.n	8001d2e <HAL_ADC_ConfigChannel+0x16a>
      (sConfig->Channel == ADC_CHANNEL_VREFINT)      )
 8001d26:	683b      	ldr	r3, [r7, #0]
 8001d28:	681b      	ldr	r3, [r3, #0]
  if ((sConfig->Channel == ADC_CHANNEL_TEMPSENSOR) ||
 8001d2a:	2b11      	cmp	r3, #17
 8001d2c:	d132      	bne.n	8001d94 <HAL_ADC_ConfigChannel+0x1d0>
  {
    /* For STM32F1 devices with several ADC: Only ADC1 can access internal    */
    /* measurement channels (VrefInt/TempSensor). If these channels are       */
    /* intended to be set on other ADC instances, an error is reported.       */
    if (hadc->Instance == ADC1)
 8001d2e:	687b      	ldr	r3, [r7, #4]
 8001d30:	681b      	ldr	r3, [r3, #0]
 8001d32:	4a1d      	ldr	r2, [pc, #116]	@ (8001da8 <HAL_ADC_ConfigChannel+0x1e4>)
 8001d34:	4293      	cmp	r3, r2
 8001d36:	d125      	bne.n	8001d84 <HAL_ADC_ConfigChannel+0x1c0>
    {
      if (READ_BIT(hadc->Instance->CR2, ADC_CR2_TSVREFE) == RESET)
 8001d38:	687b      	ldr	r3, [r7, #4]
 8001d3a:	681b      	ldr	r3, [r3, #0]
 8001d3c:	689b      	ldr	r3, [r3, #8]
 8001d3e:	f403 0300 	and.w	r3, r3, #8388608	@ 0x800000
 8001d42:	2b00      	cmp	r3, #0
 8001d44:	d126      	bne.n	8001d94 <HAL_ADC_ConfigChannel+0x1d0>
      {
        SET_BIT(hadc->Instance->CR2, ADC_CR2_TSVREFE);
 8001d46:	687b      	ldr	r3, [r7, #4]
 8001d48:	681b      	ldr	r3, [r3, #0]
 8001d4a:	689a      	ldr	r2, [r3, #8]
 8001d4c:	687b      	ldr	r3, [r7, #4]
 8001d4e:	681b      	ldr	r3, [r3, #0]
 8001d50:	f442 0200 	orr.w	r2, r2, #8388608	@ 0x800000
 8001d54:	609a      	str	r2, [r3, #8]
        
        if (sConfig->Channel == ADC_CHANNEL_TEMPSENSOR)
 8001d56:	683b      	ldr	r3, [r7, #0]
 8001d58:	681b      	ldr	r3, [r3, #0]
 8001d5a:	2b10      	cmp	r3, #16
 8001d5c:	d11a      	bne.n	8001d94 <HAL_ADC_ConfigChannel+0x1d0>
        {
          /* Delay for temperature sensor stabilization time */
          /* Compute number of CPU cycles to wait for */
          wait_loop_index = (ADC_TEMPSENSOR_DELAY_US * (SystemCoreClock / 1000000U));
 8001d5e:	4b13      	ldr	r3, [pc, #76]	@ (8001dac <HAL_ADC_ConfigChannel+0x1e8>)
 8001d60:	681b      	ldr	r3, [r3, #0]
 8001d62:	4a13      	ldr	r2, [pc, #76]	@ (8001db0 <HAL_ADC_ConfigChannel+0x1ec>)
 8001d64:	fba2 2303 	umull	r2, r3, r2, r3
 8001d68:	0c9a      	lsrs	r2, r3, #18
 8001d6a:	4613      	mov	r3, r2
 8001d6c:	009b      	lsls	r3, r3, #2
 8001d6e:	4413      	add	r3, r2
 8001d70:	005b      	lsls	r3, r3, #1
 8001d72:	60bb      	str	r3, [r7, #8]
          while(wait_loop_index != 0U)
 8001d74:	e002      	b.n	8001d7c <HAL_ADC_ConfigChannel+0x1b8>
          {
            wait_loop_index--;
 8001d76:	68bb      	ldr	r3, [r7, #8]
 8001d78:	3b01      	subs	r3, #1
 8001d7a:	60bb      	str	r3, [r7, #8]
          while(wait_loop_index != 0U)
 8001d7c:	68bb      	ldr	r3, [r7, #8]
 8001d7e:	2b00      	cmp	r3, #0
 8001d80:	d1f9      	bne.n	8001d76 <HAL_ADC_ConfigChannel+0x1b2>
 8001d82:	e007      	b.n	8001d94 <HAL_ADC_ConfigChannel+0x1d0>
      }
    }
    else
    {
      /* Update ADC state machine to error */
      SET_BIT(hadc->State, HAL_ADC_STATE_ERROR_CONFIG);
 8001d84:	687b      	ldr	r3, [r7, #4]
 8001d86:	6a9b      	ldr	r3, [r3, #40]	@ 0x28
 8001d88:	f043 0220 	orr.w	r2, r3, #32
 8001d8c:	687b      	ldr	r3, [r7, #4]
 8001d8e:	629a      	str	r2, [r3, #40]	@ 0x28
      
      tmp_hal_status = HAL_ERROR;
 8001d90:	2301      	movs	r3, #1
 8001d92:	73fb      	strb	r3, [r7, #15]
    }
  }
  
  /* Process unlocked */
  __HAL_UNLOCK(hadc);
 8001d94:	687b      	ldr	r3, [r7, #4]
 8001d96:	2200      	movs	r2, #0
 8001d98:	f883 2024 	strb.w	r2, [r3, #36]	@ 0x24
  
  /* Return function status */
  return tmp_hal_status;
 8001d9c:	7bfb      	ldrb	r3, [r7, #15]
}
 8001d9e:	4618      	mov	r0, r3
 8001da0:	3714      	adds	r7, #20
 8001da2:	46bd      	mov	sp, r7
 8001da4:	bc80      	pop	{r7}
 8001da6:	4770      	bx	lr
 8001da8:	40012400 	.word	0x40012400
 8001dac:	20000000 	.word	0x20000000
 8001db0:	431bde83 	.word	0x431bde83

08001db4 <ADC_Enable>:
  *         and voltage regulator must be enabled (done into HAL_ADC_Init()).
  * @param  hadc: ADC handle
  * @retval HAL status.
  */
HAL_StatusTypeDef ADC_Enable(ADC_HandleTypeDef* hadc)
{
 8001db4:	b580      	push	{r7, lr}
 8001db6:	b084      	sub	sp, #16
 8001db8:	af00      	add	r7, sp, #0
 8001dba:	6078      	str	r0, [r7, #4]
  uint32_t tickstart = 0U;
 8001dbc:	2300      	movs	r3, #0
 8001dbe:	60fb      	str	r3, [r7, #12]
  __IO uint32_t wait_loop_index = 0U;
 8001dc0:	2300      	movs	r3, #0
 8001dc2:	60bb      	str	r3, [r7, #8]
  
  /* ADC enable and wait for ADC ready (in case of ADC is disabled or         */
  /* enabling phase not yet completed: flag ADC ready not yet set).           */
  /* Timeout implemented to not be stuck if ADC cannot be enabled (possible   */
  /* causes: ADC clock not running, ...).                                     */
  if (ADC_IS_ENABLE(hadc) == RESET)
 8001dc4:	687b      	ldr	r3, [r7, #4]
 8001dc6:	681b      	ldr	r3, [r3, #0]
 8001dc8:	689b      	ldr	r3, [r3, #8]
 8001dca:	f003 0301 	and.w	r3, r3, #1
 8001dce:	2b01      	cmp	r3, #1
 8001dd0:	d040      	beq.n	8001e54 <ADC_Enable+0xa0>
  {
    /* Enable the Peripheral */
    __HAL_ADC_ENABLE(hadc);
 8001dd2:	687b      	ldr	r3, [r7, #4]
 8001dd4:	681b      	ldr	r3, [r3, #0]
 8001dd6:	689a      	ldr	r2, [r3, #8]
 8001dd8:	687b      	ldr	r3, [r7, #4]
 8001dda:	681b      	ldr	r3, [r3, #0]
 8001ddc:	f042 0201 	orr.w	r2, r2, #1
 8001de0:	609a      	str	r2, [r3, #8]
    
    /* Delay for ADC stabilization time */
    /* Compute number of CPU cycles to wait for */
    wait_loop_index = (ADC_STAB_DELAY_US * (SystemCoreClock / 1000000U));
 8001de2:	4b1f      	ldr	r3, [pc, #124]	@ (8001e60 <ADC_Enable+0xac>)
 8001de4:	681b      	ldr	r3, [r3, #0]
 8001de6:	4a1f      	ldr	r2, [pc, #124]	@ (8001e64 <ADC_Enable+0xb0>)
 8001de8:	fba2 2303 	umull	r2, r3, r2, r3
 8001dec:	0c9b      	lsrs	r3, r3, #18
 8001dee:	60bb      	str	r3, [r7, #8]
    while(wait_loop_index != 0U)
 8001df0:	e002      	b.n	8001df8 <ADC_Enable+0x44>
    {
      wait_loop_index--;
 8001df2:	68bb      	ldr	r3, [r7, #8]
 8001df4:	3b01      	subs	r3, #1
 8001df6:	60bb      	str	r3, [r7, #8]
    while(wait_loop_index != 0U)
 8001df8:	68bb      	ldr	r3, [r7, #8]
 8001dfa:	2b00      	cmp	r3, #0
 8001dfc:	d1f9      	bne.n	8001df2 <ADC_Enable+0x3e>
    }
    
    /* Get tick count */
    tickstart = HAL_GetTick();
 8001dfe:	f7ff fd17 	bl	8001830 <HAL_GetTick>
 8001e02:	60f8      	str	r0, [r7, #12]

    /* Wait for ADC effectively enabled */
    while(ADC_IS_ENABLE(hadc) == RESET)
 8001e04:	e01f      	b.n	8001e46 <ADC_Enable+0x92>
    {
      if((HAL_GetTick() - tickstart) > ADC_ENABLE_TIMEOUT)
 8001e06:	f7ff fd13 	bl	8001830 <HAL_GetTick>
 8001e0a:	4602      	mov	r2, r0
 8001e0c:	68fb      	ldr	r3, [r7, #12]
 8001e0e:	1ad3      	subs	r3, r2, r3
 8001e10:	2b02      	cmp	r3, #2
 8001e12:	d918      	bls.n	8001e46 <ADC_Enable+0x92>
      {
        /* New check to avoid false timeout detection in case of preemption */
        if(ADC_IS_ENABLE(hadc) == RESET)
 8001e14:	687b      	ldr	r3, [r7, #4]
 8001e16:	681b      	ldr	r3, [r3, #0]
 8001e18:	689b      	ldr	r3, [r3, #8]
 8001e1a:	f003 0301 	and.w	r3, r3, #1
 8001e1e:	2b01      	cmp	r3, #1
 8001e20:	d011      	beq.n	8001e46 <ADC_Enable+0x92>
        {
          /* Update ADC state machine to error */
          SET_BIT(hadc->State, HAL_ADC_STATE_ERROR_INTERNAL);
 8001e22:	687b      	ldr	r3, [r7, #4]
 8001e24:	6a9b      	ldr	r3, [r3, #40]	@ 0x28
 8001e26:	f043 0210 	orr.w	r2, r3, #16
 8001e2a:	687b      	ldr	r3, [r7, #4]
 8001e2c:	629a      	str	r2, [r3, #40]	@ 0x28

          /* Set ADC error code to ADC IP internal error */
          SET_BIT(hadc->ErrorCode, HAL_ADC_ERROR_INTERNAL);
 8001e2e:	687b      	ldr	r3, [r7, #4]
 8001e30:	6adb      	ldr	r3, [r3, #44]	@ 0x2c
 8001e32:	f043 0201 	orr.w	r2, r3, #1
 8001e36:	687b      	ldr	r3, [r7, #4]
 8001e38:	62da      	str	r2, [r3, #44]	@ 0x2c

          /* Process unlocked */
          __HAL_UNLOCK(hadc);
 8001e3a:	687b      	ldr	r3, [r7, #4]
 8001e3c:	2200      	movs	r2, #0
 8001e3e:	f883 2024 	strb.w	r2, [r3, #36]	@ 0x24

          return HAL_ERROR;
 8001e42:	2301      	movs	r3, #1
 8001e44:	e007      	b.n	8001e56 <ADC_Enable+0xa2>
    while(ADC_IS_ENABLE(hadc) == RESET)
 8001e46:	687b      	ldr	r3, [r7, #4]
 8001e48:	681b      	ldr	r3, [r3, #0]
 8001e4a:	689b      	ldr	r3, [r3, #8]
 8001e4c:	f003 0301 	and.w	r3, r3, #1
 8001e50:	2b01      	cmp	r3, #1
 8001e52:	d1d8      	bne.n	8001e06 <ADC_Enable+0x52>
      }
    }
  }
   
  /* Return HAL status */
  return HAL_OK;
 8001e54:	2300      	movs	r3, #0
}
 8001e56:	4618      	mov	r0, r3
 8001e58:	3710      	adds	r7, #16
 8001e5a:	46bd      	mov	sp, r7
 8001e5c:	bd80      	pop	{r7, pc}
 8001e5e:	bf00      	nop
 8001e60:	20000000 	.word	0x20000000
 8001e64:	431bde83 	.word	0x431bde83

08001e68 <ADC_ConversionStop_Disable>:
  *         stopped to disable the ADC.
  * @param  hadc: ADC handle
  * @retval HAL status.
  */
HAL_StatusTypeDef ADC_ConversionStop_Disable(ADC_HandleTypeDef* hadc)
{
 8001e68:	b580      	push	{r7, lr}
 8001e6a:	b084      	sub	sp, #16
 8001e6c:	af00      	add	r7, sp, #0
 8001e6e:	6078      	str	r0, [r7, #4]
  uint32_t tickstart = 0U;
 8001e70:	2300      	movs	r3, #0
 8001e72:	60fb      	str	r3, [r7, #12]
  
  /* Verification if ADC is not already disabled */
  if (ADC_IS_ENABLE(hadc) != RESET)
 8001e74:	687b      	ldr	r3, [r7, #4]
 8001e76:	681b      	ldr	r3, [r3, #0]
 8001e78:	689b      	ldr	r3, [r3, #8]
 8001e7a:	f003 0301 	and.w	r3, r3, #1
 8001e7e:	2b01      	cmp	r3, #1
 8001e80:	d12e      	bne.n	8001ee0 <ADC_ConversionStop_Disable+0x78>
  {
    /* Disable the ADC peripheral */
    __HAL_ADC_DISABLE(hadc);
 8001e82:	687b      	ldr	r3, [r7, #4]
 8001e84:	681b      	ldr	r3, [r3, #0]
 8001e86:	689a      	ldr	r2, [r3, #8]
 8001e88:	687b      	ldr	r3, [r7, #4]
 8001e8a:	681b      	ldr	r3, [r3, #0]
 8001e8c:	f022 0201 	bic.w	r2, r2, #1
 8001e90:	609a      	str	r2, [r3, #8]
     
    /* Get tick count */
    tickstart = HAL_GetTick();
 8001e92:	f7ff fccd 	bl	8001830 <HAL_GetTick>
 8001e96:	60f8      	str	r0, [r7, #12]
    
    /* Wait for ADC effectively disabled */
    while(ADC_IS_ENABLE(hadc) != RESET)
 8001e98:	e01b      	b.n	8001ed2 <ADC_ConversionStop_Disable+0x6a>
    {
      if((HAL_GetTick() - tickstart) > ADC_DISABLE_TIMEOUT)
 8001e9a:	f7ff fcc9 	bl	8001830 <HAL_GetTick>
 8001e9e:	4602      	mov	r2, r0
 8001ea0:	68fb      	ldr	r3, [r7, #12]
 8001ea2:	1ad3      	subs	r3, r2, r3
 8001ea4:	2b02      	cmp	r3, #2
 8001ea6:	d914      	bls.n	8001ed2 <ADC_ConversionStop_Disable+0x6a>
      {
        /* New check to avoid false timeout detection in case of preemption */
        if(ADC_IS_ENABLE(hadc) != RESET)
 8001ea8:	687b      	ldr	r3, [r7, #4]
 8001eaa:	681b      	ldr	r3, [r3, #0]
 8001eac:	689b      	ldr	r3, [r3, #8]
 8001eae:	f003 0301 	and.w	r3, r3, #1
 8001eb2:	2b01      	cmp	r3, #1
 8001eb4:	d10d      	bne.n	8001ed2 <ADC_ConversionStop_Disable+0x6a>
        {
          /* Update ADC state machine to error */
          SET_BIT(hadc->State, HAL_ADC_STATE_ERROR_INTERNAL);
 8001eb6:	687b      	ldr	r3, [r7, #4]
 8001eb8:	6a9b      	ldr	r3, [r3, #40]	@ 0x28
 8001eba:	f043 0210 	orr.w	r2, r3, #16
 8001ebe:	687b      	ldr	r3, [r7, #4]
 8001ec0:	629a      	str	r2, [r3, #40]	@ 0x28

          /* Set ADC error code to ADC IP internal error */
          SET_BIT(hadc->ErrorCode, HAL_ADC_ERROR_INTERNAL);
 8001ec2:	687b      	ldr	r3, [r7, #4]
 8001ec4:	6adb      	ldr	r3, [r3, #44]	@ 0x2c
 8001ec6:	f043 0201 	orr.w	r2, r3, #1
 8001eca:	687b      	ldr	r3, [r7, #4]
 8001ecc:	62da      	str	r2, [r3, #44]	@ 0x2c

          return HAL_ERROR;
 8001ece:	2301      	movs	r3, #1
 8001ed0:	e007      	b.n	8001ee2 <ADC_ConversionStop_Disable+0x7a>
    while(ADC_IS_ENABLE(hadc) != RESET)
 8001ed2:	687b      	ldr	r3, [r7, #4]
 8001ed4:	681b      	ldr	r3, [r3, #0]
 8001ed6:	689b      	ldr	r3, [r3, #8]
 8001ed8:	f003 0301 	and.w	r3, r3, #1
 8001edc:	2b01      	cmp	r3, #1
 8001ede:	d0dc      	beq.n	8001e9a <ADC_ConversionStop_Disable+0x32>
      }
    }
  }
  
  /* Return HAL status */
  return HAL_OK;
 8001ee0:	2300      	movs	r3, #0
}
 8001ee2:	4618      	mov	r0, r3
 8001ee4:	3710      	adds	r7, #16
 8001ee6:	46bd      	mov	sp, r7
 8001ee8:	bd80      	pop	{r7, pc}

08001eea <ADC_DMAConvCplt>:
  * @brief  DMA transfer complete callback. 
  * @param  hdma: pointer to DMA handle.
  * @retval None
  */
void ADC_DMAConvCplt(DMA_HandleTypeDef *hdma)
{
 8001eea:	b580      	push	{r7, lr}
 8001eec:	b084      	sub	sp, #16
 8001eee:	af00      	add	r7, sp, #0
 8001ef0:	6078      	str	r0, [r7, #4]
  /* Retrieve ADC handle corresponding to current DMA handle */
  ADC_HandleTypeDef* hadc = ( ADC_HandleTypeDef* )((DMA_HandleTypeDef* )hdma)->Parent;
 8001ef2:	687b      	ldr	r3, [r7, #4]
 8001ef4:	6a5b      	ldr	r3, [r3, #36]	@ 0x24
 8001ef6:	60fb      	str	r3, [r7, #12]
 
  /* Update state machine on conversion status if not in error state */
  if (HAL_IS_BIT_CLR(hadc->State, HAL_ADC_STATE_ERROR_INTERNAL | HAL_ADC_STATE_ERROR_DMA))
 8001ef8:	68fb      	ldr	r3, [r7, #12]
 8001efa:	6a9b      	ldr	r3, [r3, #40]	@ 0x28
 8001efc:	f003 0350 	and.w	r3, r3, #80	@ 0x50
 8001f00:	2b00      	cmp	r3, #0
 8001f02:	d127      	bne.n	8001f54 <ADC_DMAConvCplt+0x6a>
  {
    /* Update ADC state machine */
    SET_BIT(hadc->State, HAL_ADC_STATE_REG_EOC);
 8001f04:	68fb      	ldr	r3, [r7, #12]
 8001f06:	6a9b      	ldr	r3, [r3, #40]	@ 0x28
 8001f08:	f443 7200 	orr.w	r2, r3, #512	@ 0x200
 8001f0c:	68fb      	ldr	r3, [r7, #12]
 8001f0e:	629a      	str	r2, [r3, #40]	@ 0x28
    /* Determine whether any further conversion upcoming on group regular     */
    /* by external trigger, continuous mode or scan sequence on going.        */
    /* Note: On STM32F1 devices, in case of sequencer enabled                 */
    /*       (several ranks selected), end of conversion flag is raised       */
    /*       at the end of the sequence.                                      */
    if(ADC_IS_SOFTWARE_START_REGULAR(hadc)        && 
 8001f10:	68fb      	ldr	r3, [r7, #12]
 8001f12:	681b      	ldr	r3, [r3, #0]
 8001f14:	689b      	ldr	r3, [r3, #8]
 8001f16:	f403 2360 	and.w	r3, r3, #917504	@ 0xe0000
 8001f1a:	f5b3 2f60 	cmp.w	r3, #917504	@ 0xe0000
 8001f1e:	d115      	bne.n	8001f4c <ADC_DMAConvCplt+0x62>
       (hadc->Init.ContinuousConvMode == DISABLE)   )
 8001f20:	68fb      	ldr	r3, [r7, #12]
 8001f22:	7b1b      	ldrb	r3, [r3, #12]
    if(ADC_IS_SOFTWARE_START_REGULAR(hadc)        && 
 8001f24:	2b00      	cmp	r3, #0
 8001f26:	d111      	bne.n	8001f4c <ADC_DMAConvCplt+0x62>
    {
      /* Set ADC state */
      CLEAR_BIT(hadc->State, HAL_ADC_STATE_REG_BUSY);   
 8001f28:	68fb      	ldr	r3, [r7, #12]
 8001f2a:	6a9b      	ldr	r3, [r3, #40]	@ 0x28
 8001f2c:	f423 7280 	bic.w	r2, r3, #256	@ 0x100
 8001f30:	68fb      	ldr	r3, [r7, #12]
 8001f32:	629a      	str	r2, [r3, #40]	@ 0x28
      
      if (HAL_IS_BIT_CLR(hadc->State, HAL_ADC_STATE_INJ_BUSY))
 8001f34:	68fb      	ldr	r3, [r7, #12]
 8001f36:	6a9b      	ldr	r3, [r3, #40]	@ 0x28
 8001f38:	f403 5380 	and.w	r3, r3, #4096	@ 0x1000
 8001f3c:	2b00      	cmp	r3, #0
 8001f3e:	d105      	bne.n	8001f4c <ADC_DMAConvCplt+0x62>
      {
        SET_BIT(hadc->State, HAL_ADC_STATE_READY);
 8001f40:	68fb      	ldr	r3, [r7, #12]
 8001f42:	6a9b      	ldr	r3, [r3, #40]	@ 0x28
 8001f44:	f043 0201 	orr.w	r2, r3, #1
 8001f48:	68fb      	ldr	r3, [r7, #12]
 8001f4a:	629a      	str	r2, [r3, #40]	@ 0x28
    
    /* Conversion complete callback */
#if (USE_HAL_ADC_REGISTER_CALLBACKS == 1)
    hadc->ConvCpltCallback(hadc);
#else
    HAL_ADC_ConvCpltCallback(hadc);
 8001f4c:	68f8      	ldr	r0, [r7, #12]
 8001f4e:	f7ff fa2b 	bl	80013a8 <HAL_ADC_ConvCpltCallback>
  else
  {
    /* Call DMA error callback */
    hadc->DMA_Handle->XferErrorCallback(hdma);
  }
}
 8001f52:	e004      	b.n	8001f5e <ADC_DMAConvCplt+0x74>
    hadc->DMA_Handle->XferErrorCallback(hdma);
 8001f54:	68fb      	ldr	r3, [r7, #12]
 8001f56:	6a1b      	ldr	r3, [r3, #32]
 8001f58:	6b1b      	ldr	r3, [r3, #48]	@ 0x30
 8001f5a:	6878      	ldr	r0, [r7, #4]
 8001f5c:	4798      	blx	r3
}
 8001f5e:	bf00      	nop
 8001f60:	3710      	adds	r7, #16
 8001f62:	46bd      	mov	sp, r7
 8001f64:	bd80      	pop	{r7, pc}

08001f66 <ADC_DMAHalfConvCplt>:
  * @brief  DMA half transfer complete callback. 
  * @param  hdma: pointer to DMA handle.
  * @retval None
  */
void ADC_DMAHalfConvCplt(DMA_HandleTypeDef *hdma)   
{
 8001f66:	b580      	push	{r7, lr}
 8001f68:	b084      	sub	sp, #16
 8001f6a:	af00      	add	r7, sp, #0
 8001f6c:	6078      	str	r0, [r7, #4]
  /* Retrieve ADC handle corresponding to current DMA handle */
  ADC_HandleTypeDef* hadc = ( ADC_HandleTypeDef* )((DMA_HandleTypeDef* )hdma)->Parent;
 8001f6e:	687b      	ldr	r3, [r7, #4]
 8001f70:	6a5b      	ldr	r3, [r3, #36]	@ 0x24
 8001f72:	60fb      	str	r3, [r7, #12]
  
  /* Half conversion callback */
#if (USE_HAL_ADC_REGISTER_CALLBACKS == 1)
    hadc->ConvHalfCpltCallback(hadc);
#else
  HAL_ADC_ConvHalfCpltCallback(hadc);
 8001f74:	68f8      	ldr	r0, [r7, #12]
 8001f76:	f7ff f94b 	bl	8001210 <HAL_ADC_ConvHalfCpltCallback>
#endif /* USE_HAL_ADC_REGISTER_CALLBACKS */
}
 8001f7a:	bf00      	nop
 8001f7c:	3710      	adds	r7, #16
 8001f7e:	46bd      	mov	sp, r7
 8001f80:	bd80      	pop	{r7, pc}

08001f82 <ADC_DMAError>:
  * @brief  DMA error callback 
  * @param  hdma: pointer to DMA handle.
  * @retval None
  */
void ADC_DMAError(DMA_HandleTypeDef *hdma)   
{
 8001f82:	b580      	push	{r7, lr}
 8001f84:	b084      	sub	sp, #16
 8001f86:	af00      	add	r7, sp, #0
 8001f88:	6078      	str	r0, [r7, #4]
  /* Retrieve ADC handle corresponding to current DMA handle */
  ADC_HandleTypeDef* hadc = ( ADC_HandleTypeDef* )((DMA_HandleTypeDef* )hdma)->Parent;
 8001f8a:	687b      	ldr	r3, [r7, #4]
 8001f8c:	6a5b      	ldr	r3, [r3, #36]	@ 0x24
 8001f8e:	60fb      	str	r3, [r7, #12]
  
  /* Set ADC state */
  SET_BIT(hadc->State, HAL_ADC_STATE_ERROR_DMA);
 8001f90:	68fb      	ldr	r3, [r7, #12]
 8001f92:	6a9b      	ldr	r3, [r3, #40]	@ 0x28
 8001f94:	f043 0240 	orr.w	r2, r3, #64	@ 0x40
 8001f98:	68fb      	ldr	r3, [r7, #12]
 8001f9a:	629a      	str	r2, [r3, #40]	@ 0x28
  
  /* Set ADC error code to DMA error */
  SET_BIT(hadc->ErrorCode, HAL_ADC_ERROR_DMA);
 8001f9c:	68fb      	ldr	r3, [r7, #12]
 8001f9e:	6adb      	ldr	r3, [r3, #44]	@ 0x2c
 8001fa0:	f043 0204 	orr.w	r2, r3, #4
 8001fa4:	68fb      	ldr	r3, [r7, #12]
 8001fa6:	62da      	str	r2, [r3, #44]	@ 0x2c
  
  /* Error callback */
#if (USE_HAL_ADC_REGISTER_CALLBACKS == 1)
  hadc->ErrorCallback(hadc);
#else
  HAL_ADC_ErrorCallback(hadc);
 8001fa8:	68f8      	ldr	r0, [r7, #12]
 8001faa:	f7ff fe01 	bl	8001bb0 <HAL_ADC_ErrorCallback>
#endif /* USE_HAL_ADC_REGISTER_CALLBACKS */
}
 8001fae:	bf00      	nop
 8001fb0:	3710      	adds	r7, #16
 8001fb2:	46bd      	mov	sp, r7
 8001fb4:	bd80      	pop	{r7, pc}
	...

08001fb8 <__NVIC_SetPriorityGrouping>:
           In case of a conflict between priority grouping and available
           priority bits (__NVIC_PRIO_BITS), the smallest possible priority group is set.
  \param [in]      PriorityGroup  Priority grouping field.
 */
__STATIC_INLINE void __NVIC_SetPriorityGrouping(uint32_t PriorityGroup)
{
 8001fb8:	b480      	push	{r7}
 8001fba:	b085      	sub	sp, #20
 8001fbc:	af00      	add	r7, sp, #0
 8001fbe:	6078      	str	r0, [r7, #4]
  uint32_t reg_value;
  uint32_t PriorityGroupTmp = (PriorityGroup & (uint32_t)0x07UL);             /* only values 0..7 are used          */
 8001fc0:	687b      	ldr	r3, [r7, #4]
 8001fc2:	f003 0307 	and.w	r3, r3, #7
 8001fc6:	60fb      	str	r3, [r7, #12]

  reg_value  =  SCB->AIRCR;                                                   /* read old register configuration    */
 8001fc8:	4b0c      	ldr	r3, [pc, #48]	@ (8001ffc <__NVIC_SetPriorityGrouping+0x44>)
 8001fca:	68db      	ldr	r3, [r3, #12]
 8001fcc:	60bb      	str	r3, [r7, #8]
  reg_value &= ~((uint32_t)(SCB_AIRCR_VECTKEY_Msk | SCB_AIRCR_PRIGROUP_Msk)); /* clear bits to change               */
 8001fce:	68ba      	ldr	r2, [r7, #8]
 8001fd0:	f64f 03ff 	movw	r3, #63743	@ 0xf8ff
 8001fd4:	4013      	ands	r3, r2
 8001fd6:	60bb      	str	r3, [r7, #8]
  reg_value  =  (reg_value                                   |
                ((uint32_t)0x5FAUL << SCB_AIRCR_VECTKEY_Pos) |
                (PriorityGroupTmp << SCB_AIRCR_PRIGROUP_Pos) );               /* Insert write key and priority group */
 8001fd8:	68fb      	ldr	r3, [r7, #12]
 8001fda:	021a      	lsls	r2, r3, #8
                ((uint32_t)0x5FAUL << SCB_AIRCR_VECTKEY_Pos) |
 8001fdc:	68bb      	ldr	r3, [r7, #8]
 8001fde:	4313      	orrs	r3, r2
  reg_value  =  (reg_value                                   |
 8001fe0:	f043 63bf 	orr.w	r3, r3, #100139008	@ 0x5f80000
 8001fe4:	f443 3300 	orr.w	r3, r3, #131072	@ 0x20000
 8001fe8:	60bb      	str	r3, [r7, #8]
  SCB->AIRCR =  reg_value;
 8001fea:	4a04      	ldr	r2, [pc, #16]	@ (8001ffc <__NVIC_SetPriorityGrouping+0x44>)
 8001fec:	68bb      	ldr	r3, [r7, #8]
 8001fee:	60d3      	str	r3, [r2, #12]
}
 8001ff0:	bf00      	nop
 8001ff2:	3714      	adds	r7, #20
 8001ff4:	46bd      	mov	sp, r7
 8001ff6:	bc80      	pop	{r7}
 8001ff8:	4770      	bx	lr
 8001ffa:	bf00      	nop
 8001ffc:	e000ed00 	.word	0xe000ed00

08002000 <__NVIC_GetPriorityGrouping>:
  \brief   Get Priority Grouping
  \details Reads the priority grouping field from the NVIC Interrupt Controller.
  \return                Priority grouping field (SCB->AIRCR [10:8] PRIGROUP field).
 */
__STATIC_INLINE uint32_t __NVIC_GetPriorityGrouping(void)
{
 8002000:	b480      	push	{r7}
 8002002:	af00      	add	r7, sp, #0
  return ((uint32_t)((SCB->AIRCR & SCB_AIRCR_PRIGROUP_Msk) >> SCB_AIRCR_PRIGROUP_Pos));
 8002004:	4b04      	ldr	r3, [pc, #16]	@ (8002018 <__NVIC_GetPriorityGrouping+0x18>)
 8002006:	68db      	ldr	r3, [r3, #12]
 8002008:	0a1b      	lsrs	r3, r3, #8
 800200a:	f003 0307 	and.w	r3, r3, #7
}
 800200e:	4618      	mov	r0, r3
 8002010:	46bd      	mov	sp, r7
 8002012:	bc80      	pop	{r7}
 8002014:	4770      	bx	lr
 8002016:	bf00      	nop
 8002018:	e000ed00 	.word	0xe000ed00

0800201c <__NVIC_EnableIRQ>:
  \details Enables a device specific interrupt in the NVIC interrupt controller.
  \param [in]      IRQn  Device specific interrupt number.
  \note    IRQn must not be negative.
 */
__STATIC_INLINE void __NVIC_EnableIRQ(IRQn_Type IRQn)
{
 800201c:	b480      	push	{r7}
 800201e:	b083      	sub	sp, #12
 8002020:	af00      	add	r7, sp, #0
 8002022:	4603      	mov	r3, r0
 8002024:	71fb      	strb	r3, [r7, #7]
  if ((int32_t)(IRQn) >= 0)
 8002026:	f997 3007 	ldrsb.w	r3, [r7, #7]
 800202a:	2b00      	cmp	r3, #0
 800202c:	db0b      	blt.n	8002046 <__NVIC_EnableIRQ+0x2a>
  {
    NVIC->ISER[(((uint32_t)IRQn) >> 5UL)] = (uint32_t)(1UL << (((uint32_t)IRQn) & 0x1FUL));
 800202e:	79fb      	ldrb	r3, [r7, #7]
 8002030:	f003 021f 	and.w	r2, r3, #31
 8002034:	4906      	ldr	r1, [pc, #24]	@ (8002050 <__NVIC_EnableIRQ+0x34>)
 8002036:	f997 3007 	ldrsb.w	r3, [r7, #7]
 800203a:	095b      	lsrs	r3, r3, #5
 800203c:	2001      	movs	r0, #1
 800203e:	fa00 f202 	lsl.w	r2, r0, r2
 8002042:	f841 2023 	str.w	r2, [r1, r3, lsl #2]
  }
}
 8002046:	bf00      	nop
 8002048:	370c      	adds	r7, #12
 800204a:	46bd      	mov	sp, r7
 800204c:	bc80      	pop	{r7}
 800204e:	4770      	bx	lr
 8002050:	e000e100 	.word	0xe000e100

08002054 <__NVIC_SetPriority>:
  \param [in]      IRQn  Interrupt number.
  \param [in]  priority  Priority to set.
  \note    The priority cannot be set for every processor exception.
 */
__STATIC_INLINE void __NVIC_SetPriority(IRQn_Type IRQn, uint32_t priority)
{
 8002054:	b480      	push	{r7}
 8002056:	b083      	sub	sp, #12
 8002058:	af00      	add	r7, sp, #0
 800205a:	4603      	mov	r3, r0
 800205c:	6039      	str	r1, [r7, #0]
 800205e:	71fb      	strb	r3, [r7, #7]
  if ((int32_t)(IRQn) >= 0)
 8002060:	f997 3007 	ldrsb.w	r3, [r7, #7]
 8002064:	2b00      	cmp	r3, #0
 8002066:	db0a      	blt.n	800207e <__NVIC_SetPriority+0x2a>
  {
    NVIC->IP[((uint32_t)IRQn)]               = (uint8_t)((priority << (8U - __NVIC_PRIO_BITS)) & (uint32_t)0xFFUL);
 8002068:	683b      	ldr	r3, [r7, #0]
 800206a:	b2da      	uxtb	r2, r3
 800206c:	490c      	ldr	r1, [pc, #48]	@ (80020a0 <__NVIC_SetPriority+0x4c>)
 800206e:	f997 3007 	ldrsb.w	r3, [r7, #7]
 8002072:	0112      	lsls	r2, r2, #4
 8002074:	b2d2      	uxtb	r2, r2
 8002076:	440b      	add	r3, r1
 8002078:	f883 2300 	strb.w	r2, [r3, #768]	@ 0x300
  }
  else
  {
    SCB->SHP[(((uint32_t)IRQn) & 0xFUL)-4UL] = (uint8_t)((priority << (8U - __NVIC_PRIO_BITS)) & (uint32_t)0xFFUL);
  }
}
 800207c:	e00a      	b.n	8002094 <__NVIC_SetPriority+0x40>
    SCB->SHP[(((uint32_t)IRQn) & 0xFUL)-4UL] = (uint8_t)((priority << (8U - __NVIC_PRIO_BITS)) & (uint32_t)0xFFUL);
 800207e:	683b      	ldr	r3, [r7, #0]
 8002080:	b2da      	uxtb	r2, r3
 8002082:	4908      	ldr	r1, [pc, #32]	@ (80020a4 <__NVIC_SetPriority+0x50>)
 8002084:	79fb      	ldrb	r3, [r7, #7]
 8002086:	f003 030f 	and.w	r3, r3, #15
 800208a:	3b04      	subs	r3, #4
 800208c:	0112      	lsls	r2, r2, #4
 800208e:	b2d2      	uxtb	r2, r2
 8002090:	440b      	add	r3, r1
 8002092:	761a      	strb	r2, [r3, #24]
}
 8002094:	bf00      	nop
 8002096:	370c      	adds	r7, #12
 8002098:	46bd      	mov	sp, r7
 800209a:	bc80      	pop	{r7}
 800209c:	4770      	bx	lr
 800209e:	bf00      	nop
 80020a0:	e000e100 	.word	0xe000e100
 80020a4:	e000ed00 	.word	0xe000ed00

080020a8 <NVIC_EncodePriority>:
  \param [in]   PreemptPriority  Preemptive priority value (starting from 0).
  \param [in]       SubPriority  Subpriority value (starting from 0).
  \return                        Encoded priority. Value can be used in the function \ref NVIC_SetPriority().
 */
__STATIC_INLINE uint32_t NVIC_EncodePriority (uint32_t PriorityGroup, uint32_t PreemptPriority, uint32_t SubPriority)
{
 80020a8:	b480      	push	{r7}
 80020aa:	b089      	sub	sp, #36	@ 0x24
 80020ac:	af00      	add	r7, sp, #0
 80020ae:	60f8      	str	r0, [r7, #12]
 80020b0:	60b9      	str	r1, [r7, #8]
 80020b2:	607a      	str	r2, [r7, #4]
  uint32_t PriorityGroupTmp = (PriorityGroup & (uint32_t)0x07UL);   /* only values 0..7 are used          */
 80020b4:	68fb      	ldr	r3, [r7, #12]
 80020b6:	f003 0307 	and.w	r3, r3, #7
 80020ba:	61fb      	str	r3, [r7, #28]
  uint32_t PreemptPriorityBits;
  uint32_t SubPriorityBits;

  PreemptPriorityBits = ((7UL - PriorityGroupTmp) > (uint32_t)(__NVIC_PRIO_BITS)) ? (uint32_t)(__NVIC_PRIO_BITS) : (uint32_t)(7UL - PriorityGroupTmp);
 80020bc:	69fb      	ldr	r3, [r7, #28]
 80020be:	f1c3 0307 	rsb	r3, r3, #7
 80020c2:	2b04      	cmp	r3, #4
 80020c4:	bf28      	it	cs
 80020c6:	2304      	movcs	r3, #4
 80020c8:	61bb      	str	r3, [r7, #24]
  SubPriorityBits     = ((PriorityGroupTmp + (uint32_t)(__NVIC_PRIO_BITS)) < (uint32_t)7UL) ? (uint32_t)0UL : (uint32_t)((PriorityGroupTmp - 7UL) + (uint32_t)(__NVIC_PRIO_BITS));
 80020ca:	69fb      	ldr	r3, [r7, #28]
 80020cc:	3304      	adds	r3, #4
 80020ce:	2b06      	cmp	r3, #6
 80020d0:	d902      	bls.n	80020d8 <NVIC_EncodePriority+0x30>
 80020d2:	69fb      	ldr	r3, [r7, #28]
 80020d4:	3b03      	subs	r3, #3
 80020d6:	e000      	b.n	80020da <NVIC_EncodePriority+0x32>
 80020d8:	2300      	movs	r3, #0
 80020da:	617b      	str	r3, [r7, #20]

  return (
           ((PreemptPriority & (uint32_t)((1UL << (PreemptPriorityBits)) - 1UL)) << SubPriorityBits) |
 80020dc:	f04f 32ff 	mov.w	r2, #4294967295
 80020e0:	69bb      	ldr	r3, [r7, #24]
 80020e2:	fa02 f303 	lsl.w	r3, r2, r3
 80020e6:	43da      	mvns	r2, r3
 80020e8:	68bb      	ldr	r3, [r7, #8]
 80020ea:	401a      	ands	r2, r3
 80020ec:	697b      	ldr	r3, [r7, #20]
 80020ee:	409a      	lsls	r2, r3
           ((SubPriority     & (uint32_t)((1UL << (SubPriorityBits    )) - 1UL)))
 80020f0:	f04f 31ff 	mov.w	r1, #4294967295
 80020f4:	697b      	ldr	r3, [r7, #20]
 80020f6:	fa01 f303 	lsl.w	r3, r1, r3
 80020fa:	43d9      	mvns	r1, r3
 80020fc:	687b      	ldr	r3, [r7, #4]
 80020fe:	400b      	ands	r3, r1
           ((PreemptPriority & (uint32_t)((1UL << (PreemptPriorityBits)) - 1UL)) << SubPriorityBits) |
 8002100:	4313      	orrs	r3, r2
         );
}
 8002102:	4618      	mov	r0, r3
 8002104:	3724      	adds	r7, #36	@ 0x24
 8002106:	46bd      	mov	sp, r7
 8002108:	bc80      	pop	{r7}
 800210a:	4770      	bx	lr

0800210c <SysTick_Config>:
  \note    When the variable <b>__Vendor_SysTickConfig</b> is set to 1, then the
           function <b>SysTick_Config</b> is not included. In this case, the file <b><i>device</i>.h</b>
           must contain a vendor-specific implementation of this function.
 */
__STATIC_INLINE uint32_t SysTick_Config(uint32_t ticks)
{
 800210c:	b580      	push	{r7, lr}
 800210e:	b082      	sub	sp, #8
 8002110:	af00      	add	r7, sp, #0
 8002112:	6078      	str	r0, [r7, #4]
  if ((ticks - 1UL) > SysTick_LOAD_RELOAD_Msk)
 8002114:	687b      	ldr	r3, [r7, #4]
 8002116:	3b01      	subs	r3, #1
 8002118:	f1b3 7f80 	cmp.w	r3, #16777216	@ 0x1000000
 800211c:	d301      	bcc.n	8002122 <SysTick_Config+0x16>
  {
    return (1UL);                                                   /* Reload value impossible */
 800211e:	2301      	movs	r3, #1
 8002120:	e00f      	b.n	8002142 <SysTick_Config+0x36>
  }

  SysTick->LOAD  = (uint32_t)(ticks - 1UL);                         /* set reload register */
 8002122:	4a0a      	ldr	r2, [pc, #40]	@ (800214c <SysTick_Config+0x40>)
 8002124:	687b      	ldr	r3, [r7, #4]
 8002126:	3b01      	subs	r3, #1
 8002128:	6053      	str	r3, [r2, #4]
  NVIC_SetPriority (SysTick_IRQn, (1UL << __NVIC_PRIO_BITS) - 1UL); /* set Priority for Systick Interrupt */
 800212a:	210f      	movs	r1, #15
 800212c:	f04f 30ff 	mov.w	r0, #4294967295
 8002130:	f7ff ff90 	bl	8002054 <__NVIC_SetPriority>
  SysTick->VAL   = 0UL;                                             /* Load the SysTick Counter Value */
 8002134:	4b05      	ldr	r3, [pc, #20]	@ (800214c <SysTick_Config+0x40>)
 8002136:	2200      	movs	r2, #0
 8002138:	609a      	str	r2, [r3, #8]
  SysTick->CTRL  = SysTick_CTRL_CLKSOURCE_Msk |
 800213a:	4b04      	ldr	r3, [pc, #16]	@ (800214c <SysTick_Config+0x40>)
 800213c:	2207      	movs	r2, #7
 800213e:	601a      	str	r2, [r3, #0]
                   SysTick_CTRL_TICKINT_Msk   |
                   SysTick_CTRL_ENABLE_Msk;                         /* Enable SysTick IRQ and SysTick Timer */
  return (0UL);                                                     /* Function successful */
 8002140:	2300      	movs	r3, #0
}
 8002142:	4618      	mov	r0, r3
 8002144:	3708      	adds	r7, #8
 8002146:	46bd      	mov	sp, r7
 8002148:	bd80      	pop	{r7, pc}
 800214a:	bf00      	nop
 800214c:	e000e010 	.word	0xe000e010

08002150 <HAL_NVIC_SetPriorityGrouping>:
  * @note   When the NVIC_PriorityGroup_0 is selected, IRQ preemption is no more possible. 
  *         The pending IRQ priority will be managed only by the subpriority. 
  * @retval None
  */
void HAL_NVIC_SetPriorityGrouping(uint32_t PriorityGroup)
{
 8002150:	b580      	push	{r7, lr}
 8002152:	b082      	sub	sp, #8
 8002154:	af00      	add	r7, sp, #0
 8002156:	6078      	str	r0, [r7, #4]
  /* Check the parameters */
  assert_param(IS_NVIC_PRIORITY_GROUP(PriorityGroup));
  
  /* Set the PRIGROUP[10:8] bits according to the PriorityGroup parameter value */
  NVIC_SetPriorityGrouping(PriorityGroup);
 8002158:	6878      	ldr	r0, [r7, #4]
 800215a:	f7ff ff2d 	bl	8001fb8 <__NVIC_SetPriorityGrouping>
}
 800215e:	bf00      	nop
 8002160:	3708      	adds	r7, #8
 8002162:	46bd      	mov	sp, r7
 8002164:	bd80      	pop	{r7, pc}

08002166 <HAL_NVIC_SetPriority>:
  *         This parameter can be a value between 0 and 15
  *         A lower priority value indicates a higher priority.          
  * @retval None
  */
void HAL_NVIC_SetPriority(IRQn_Type IRQn, uint32_t PreemptPriority, uint32_t SubPriority)
{ 
 8002166:	b580      	push	{r7, lr}
 8002168:	b086      	sub	sp, #24
 800216a:	af00      	add	r7, sp, #0
 800216c:	4603      	mov	r3, r0
 800216e:	60b9      	str	r1, [r7, #8]
 8002170:	607a      	str	r2, [r7, #4]
 8002172:	73fb      	strb	r3, [r7, #15]
  uint32_t prioritygroup = 0x00U;
 8002174:	2300      	movs	r3, #0
 8002176:	617b      	str	r3, [r7, #20]
  
  /* Check the parameters */
  assert_param(IS_NVIC_SUB_PRIORITY(SubPriority));
  assert_param(IS_NVIC_PREEMPTION_PRIORITY(PreemptPriority));
  
  prioritygroup = NVIC_GetPriorityGrouping();
 8002178:	f7ff ff42 	bl	8002000 <__NVIC_GetPriorityGrouping>
 800217c:	6178      	str	r0, [r7, #20]
  
  NVIC_SetPriority(IRQn, NVIC_EncodePriority(prioritygroup, PreemptPriority, SubPriority));
 800217e:	687a      	ldr	r2, [r7, #4]
 8002180:	68b9      	ldr	r1, [r7, #8]
 8002182:	6978      	ldr	r0, [r7, #20]
 8002184:	f7ff ff90 	bl	80020a8 <NVIC_EncodePriority>
 8002188:	4602      	mov	r2, r0
 800218a:	f997 300f 	ldrsb.w	r3, [r7, #15]
 800218e:	4611      	mov	r1, r2
 8002190:	4618      	mov	r0, r3
 8002192:	f7ff ff5f 	bl	8002054 <__NVIC_SetPriority>
}
 8002196:	bf00      	nop
 8002198:	3718      	adds	r7, #24
 800219a:	46bd      	mov	sp, r7
 800219c:	bd80      	pop	{r7, pc}

0800219e <HAL_NVIC_EnableIRQ>:
  *         This parameter can be an enumerator of IRQn_Type enumeration
  *         (For the complete STM32 Devices IRQ Channels list, please refer to the appropriate CMSIS device file (stm32f10xxx.h))
  * @retval None
  */
void HAL_NVIC_EnableIRQ(IRQn_Type IRQn)
{
 800219e:	b580      	push	{r7, lr}
 80021a0:	b082      	sub	sp, #8
 80021a2:	af00      	add	r7, sp, #0
 80021a4:	4603      	mov	r3, r0
 80021a6:	71fb      	strb	r3, [r7, #7]
  /* Check the parameters */
  assert_param(IS_NVIC_DEVICE_IRQ(IRQn));

  /* Enable interrupt */
  NVIC_EnableIRQ(IRQn);
 80021a8:	f997 3007 	ldrsb.w	r3, [r7, #7]
 80021ac:	4618      	mov	r0, r3
 80021ae:	f7ff ff35 	bl	800201c <__NVIC_EnableIRQ>
}
 80021b2:	bf00      	nop
 80021b4:	3708      	adds	r7, #8
 80021b6:	46bd      	mov	sp, r7
 80021b8:	bd80      	pop	{r7, pc}

080021ba <HAL_SYSTICK_Config>:
  * @param  TicksNumb: Specifies the ticks Number of ticks between two interrupts.
  * @retval status:  - 0  Function succeeded.
  *                  - 1  Function failed.
  */
uint32_t HAL_SYSTICK_Config(uint32_t TicksNumb)
{
 80021ba:	b580      	push	{r7, lr}
 80021bc:	b082      	sub	sp, #8
 80021be:	af00      	add	r7, sp, #0
 80021c0:	6078      	str	r0, [r7, #4]
   return SysTick_Config(TicksNumb);
 80021c2:	6878      	ldr	r0, [r7, #4]
 80021c4:	f7ff ffa2 	bl	800210c <SysTick_Config>
 80021c8:	4603      	mov	r3, r0
}
 80021ca:	4618      	mov	r0, r3
 80021cc:	3708      	adds	r7, #8
 80021ce:	46bd      	mov	sp, r7
 80021d0:	bd80      	pop	{r7, pc}
	...

080021d4 <HAL_DMA_Init>:
  * @param  hdma: Pointer to a DMA_HandleTypeDef structure that contains
  *               the configuration information for the specified DMA Channel.
  * @retval HAL status
  */
HAL_StatusTypeDef HAL_DMA_Init(DMA_HandleTypeDef *hdma)
{
 80021d4:	b480      	push	{r7}
 80021d6:	b085      	sub	sp, #20
 80021d8:	af00      	add	r7, sp, #0
 80021da:	6078      	str	r0, [r7, #4]
  uint32_t tmp = 0U;
 80021dc:	2300      	movs	r3, #0
 80021de:	60fb      	str	r3, [r7, #12]

  /* Check the DMA handle allocation */
  if(hdma == NULL)
 80021e0:	687b      	ldr	r3, [r7, #4]
 80021e2:	2b00      	cmp	r3, #0
 80021e4:	d101      	bne.n	80021ea <HAL_DMA_Init+0x16>
  {
    return HAL_ERROR;
 80021e6:	2301      	movs	r3, #1
 80021e8:	e043      	b.n	8002272 <HAL_DMA_Init+0x9e>
    hdma->ChannelIndex = (((uint32_t)hdma->Instance - (uint32_t)DMA2_Channel1) / ((uint32_t)DMA2_Channel2 - (uint32_t)DMA2_Channel1)) << 2;
    hdma->DmaBaseAddress = DMA2;
  }
#else
  /* DMA1 */
  hdma->ChannelIndex = (((uint32_t)hdma->Instance - (uint32_t)DMA1_Channel1) / ((uint32_t)DMA1_Channel2 - (uint32_t)DMA1_Channel1)) << 2;
 80021ea:	687b      	ldr	r3, [r7, #4]
 80021ec:	681b      	ldr	r3, [r3, #0]
 80021ee:	461a      	mov	r2, r3
 80021f0:	4b22      	ldr	r3, [pc, #136]	@ (800227c <HAL_DMA_Init+0xa8>)
 80021f2:	4413      	add	r3, r2
 80021f4:	4a22      	ldr	r2, [pc, #136]	@ (8002280 <HAL_DMA_Init+0xac>)
 80021f6:	fba2 2303 	umull	r2, r3, r2, r3
 80021fa:	091b      	lsrs	r3, r3, #4
 80021fc:	009a      	lsls	r2, r3, #2
 80021fe:	687b      	ldr	r3, [r7, #4]
 8002200:	641a      	str	r2, [r3, #64]	@ 0x40
  hdma->DmaBaseAddress = DMA1;
 8002202:	687b      	ldr	r3, [r7, #4]
 8002204:	4a1f      	ldr	r2, [pc, #124]	@ (8002284 <HAL_DMA_Init+0xb0>)
 8002206:	63da      	str	r2, [r3, #60]	@ 0x3c
#endif /* DMA2 */

  /* Change DMA peripheral state */
  hdma->State = HAL_DMA_STATE_BUSY;
 8002208:	687b      	ldr	r3, [r7, #4]
 800220a:	2202      	movs	r2, #2
 800220c:	f883 2021 	strb.w	r2, [r3, #33]	@ 0x21

  /* Get the CR register value */
  tmp = hdma->Instance->CCR;
 8002210:	687b      	ldr	r3, [r7, #4]
 8002212:	681b      	ldr	r3, [r3, #0]
 8002214:	681b      	ldr	r3, [r3, #0]
 8002216:	60fb      	str	r3, [r7, #12]

  /* Clear PL, MSIZE, PSIZE, MINC, PINC, CIRC and DIR bits */
  tmp &= ((uint32_t)~(DMA_CCR_PL    | DMA_CCR_MSIZE  | DMA_CCR_PSIZE  | \
 8002218:	68fb      	ldr	r3, [r7, #12]
 800221a:	f423 537f 	bic.w	r3, r3, #16320	@ 0x3fc0
 800221e:	f023 0330 	bic.w	r3, r3, #48	@ 0x30
 8002222:	60fb      	str	r3, [r7, #12]
                      DMA_CCR_MINC  | DMA_CCR_PINC   | DMA_CCR_CIRC   | \
                      DMA_CCR_DIR));

  /* Prepare the DMA Channel configuration */
  tmp |=  hdma->Init.Direction        |
 8002224:	687b      	ldr	r3, [r7, #4]
 8002226:	685a      	ldr	r2, [r3, #4]
          hdma->Init.PeriphInc           | hdma->Init.MemInc           |
 8002228:	687b      	ldr	r3, [r7, #4]
 800222a:	689b      	ldr	r3, [r3, #8]
  tmp |=  hdma->Init.Direction        |
 800222c:	431a      	orrs	r2, r3
          hdma->Init.PeriphInc           | hdma->Init.MemInc           |
 800222e:	687b      	ldr	r3, [r7, #4]
 8002230:	68db      	ldr	r3, [r3, #12]
 8002232:	431a      	orrs	r2, r3
          hdma->Init.PeriphDataAlignment | hdma->Init.MemDataAlignment |
 8002234:	687b      	ldr	r3, [r7, #4]
 8002236:	691b      	ldr	r3, [r3, #16]
          hdma->Init.PeriphInc           | hdma->Init.MemInc           |
 8002238:	431a      	orrs	r2, r3
          hdma->Init.PeriphDataAlignment | hdma->Init.MemDataAlignment |
 800223a:	687b      	ldr	r3, [r7, #4]
 800223c:	695b      	ldr	r3, [r3, #20]
 800223e:	431a      	orrs	r2, r3
          hdma->Init.Mode                | hdma->Init.Priority;
 8002240:	687b      	ldr	r3, [r7, #4]
 8002242:	699b      	ldr	r3, [r3, #24]
          hdma->Init.PeriphDataAlignment | hdma->Init.MemDataAlignment |
 8002244:	431a      	orrs	r2, r3
          hdma->Init.Mode                | hdma->Init.Priority;
 8002246:	687b      	ldr	r3, [r7, #4]
 8002248:	69db      	ldr	r3, [r3, #28]
 800224a:	4313      	orrs	r3, r2
  tmp |=  hdma->Init.Direction        |
 800224c:	68fa      	ldr	r2, [r7, #12]
 800224e:	4313      	orrs	r3, r2
 8002250:	60fb      	str	r3, [r7, #12]

  /* Write to DMA Channel CR register */
  hdma->Instance->CCR = tmp;
 8002252:	687b      	ldr	r3, [r7, #4]
 8002254:	681b      	ldr	r3, [r3, #0]
 8002256:	68fa      	ldr	r2, [r7, #12]
 8002258:	601a      	str	r2, [r3, #0]

  /* Initialise the error code */
  hdma->ErrorCode = HAL_DMA_ERROR_NONE;
 800225a:	687b      	ldr	r3, [r7, #4]
 800225c:	2200      	movs	r2, #0
 800225e:	639a      	str	r2, [r3, #56]	@ 0x38

  /* Initialize the DMA state*/
  hdma->State = HAL_DMA_STATE_READY;
 8002260:	687b      	ldr	r3, [r7, #4]
 8002262:	2201      	movs	r2, #1
 8002264:	f883 2021 	strb.w	r2, [r3, #33]	@ 0x21
  /* Allocate lock resource and initialize it */
  hdma->Lock = HAL_UNLOCKED;
 8002268:	687b      	ldr	r3, [r7, #4]
 800226a:	2200      	movs	r2, #0
 800226c:	f883 2020 	strb.w	r2, [r3, #32]

  return HAL_OK;
 8002270:	2300      	movs	r3, #0
}
 8002272:	4618      	mov	r0, r3
 8002274:	3714      	adds	r7, #20
 8002276:	46bd      	mov	sp, r7
 8002278:	bc80      	pop	{r7}
 800227a:	4770      	bx	lr
 800227c:	bffdfff8 	.word	0xbffdfff8
 8002280:	cccccccd 	.word	0xcccccccd
 8002284:	40020000 	.word	0x40020000

08002288 <HAL_DMA_Start_IT>:
  * @param  DstAddress: The destination memory Buffer address
  * @param  DataLength: The length of data to be transferred from source to destination
  * @retval HAL status
  */
HAL_StatusTypeDef HAL_DMA_Start_IT(DMA_HandleTypeDef *hdma, uint32_t SrcAddress, uint32_t DstAddress, uint32_t DataLength)
{
 8002288:	b580      	push	{r7, lr}
 800228a:	b086      	sub	sp, #24
 800228c:	af00      	add	r7, sp, #0
 800228e:	60f8      	str	r0, [r7, #12]
 8002290:	60b9      	str	r1, [r7, #8]
 8002292:	607a      	str	r2, [r7, #4]
 8002294:	603b      	str	r3, [r7, #0]
  HAL_StatusTypeDef status = HAL_OK;
 8002296:	2300      	movs	r3, #0
 8002298:	75fb      	strb	r3, [r7, #23]

  /* Check the parameters */
  assert_param(IS_DMA_BUFFER_SIZE(DataLength));

  /* Process locked */
  __HAL_LOCK(hdma);
 800229a:	68fb      	ldr	r3, [r7, #12]
 800229c:	f893 3020 	ldrb.w	r3, [r3, #32]
 80022a0:	2b01      	cmp	r3, #1
 80022a2:	d101      	bne.n	80022a8 <HAL_DMA_Start_IT+0x20>
 80022a4:	2302      	movs	r3, #2
 80022a6:	e04b      	b.n	8002340 <HAL_DMA_Start_IT+0xb8>
 80022a8:	68fb      	ldr	r3, [r7, #12]
 80022aa:	2201      	movs	r2, #1
 80022ac:	f883 2020 	strb.w	r2, [r3, #32]
  
  if(HAL_DMA_STATE_READY == hdma->State)
 80022b0:	68fb      	ldr	r3, [r7, #12]
 80022b2:	f893 3021 	ldrb.w	r3, [r3, #33]	@ 0x21
 80022b6:	b2db      	uxtb	r3, r3
 80022b8:	2b01      	cmp	r3, #1
 80022ba:	d13a      	bne.n	8002332 <HAL_DMA_Start_IT+0xaa>
  {
    /* Change DMA peripheral state */
    hdma->State = HAL_DMA_STATE_BUSY;
 80022bc:	68fb      	ldr	r3, [r7, #12]
 80022be:	2202      	movs	r2, #2
 80022c0:	f883 2021 	strb.w	r2, [r3, #33]	@ 0x21
    hdma->ErrorCode = HAL_DMA_ERROR_NONE;
 80022c4:	68fb      	ldr	r3, [r7, #12]
 80022c6:	2200      	movs	r2, #0
 80022c8:	639a      	str	r2, [r3, #56]	@ 0x38
    
    /* Disable the peripheral */
    __HAL_DMA_DISABLE(hdma);
 80022ca:	68fb      	ldr	r3, [r7, #12]
 80022cc:	681b      	ldr	r3, [r3, #0]
 80022ce:	681a      	ldr	r2, [r3, #0]
 80022d0:	68fb      	ldr	r3, [r7, #12]
 80022d2:	681b      	ldr	r3, [r3, #0]
 80022d4:	f022 0201 	bic.w	r2, r2, #1
 80022d8:	601a      	str	r2, [r3, #0]
    
    /* Configure the source, destination address and the data length & clear flags*/
    DMA_SetConfig(hdma, SrcAddress, DstAddress, DataLength);
 80022da:	683b      	ldr	r3, [r7, #0]
 80022dc:	687a      	ldr	r2, [r7, #4]
 80022de:	68b9      	ldr	r1, [r7, #8]
 80022e0:	68f8      	ldr	r0, [r7, #12]
 80022e2:	f000 f937 	bl	8002554 <DMA_SetConfig>
    
    /* Enable the transfer complete interrupt */
    /* Enable the transfer Error interrupt */
    if(NULL != hdma->XferHalfCpltCallback)
 80022e6:	68fb      	ldr	r3, [r7, #12]
 80022e8:	6adb      	ldr	r3, [r3, #44]	@ 0x2c
 80022ea:	2b00      	cmp	r3, #0
 80022ec:	d008      	beq.n	8002300 <HAL_DMA_Start_IT+0x78>
    {
      /* Enable the Half transfer complete interrupt as well */
      __HAL_DMA_ENABLE_IT(hdma, (DMA_IT_TC | DMA_IT_HT | DMA_IT_TE));
 80022ee:	68fb      	ldr	r3, [r7, #12]
 80022f0:	681b      	ldr	r3, [r3, #0]
 80022f2:	681a      	ldr	r2, [r3, #0]
 80022f4:	68fb      	ldr	r3, [r7, #12]
 80022f6:	681b      	ldr	r3, [r3, #0]
 80022f8:	f042 020e 	orr.w	r2, r2, #14
 80022fc:	601a      	str	r2, [r3, #0]
 80022fe:	e00f      	b.n	8002320 <HAL_DMA_Start_IT+0x98>
    }
    else
    {
      __HAL_DMA_DISABLE_IT(hdma, DMA_IT_HT);
 8002300:	68fb      	ldr	r3, [r7, #12]
 8002302:	681b      	ldr	r3, [r3, #0]
 8002304:	681a      	ldr	r2, [r3, #0]
 8002306:	68fb      	ldr	r3, [r7, #12]
 8002308:	681b      	ldr	r3, [r3, #0]
 800230a:	f022 0204 	bic.w	r2, r2, #4
 800230e:	601a      	str	r2, [r3, #0]
      __HAL_DMA_ENABLE_IT(hdma, (DMA_IT_TC | DMA_IT_TE));
 8002310:	68fb      	ldr	r3, [r7, #12]
 8002312:	681b      	ldr	r3, [r3, #0]
 8002314:	681a      	ldr	r2, [r3, #0]
 8002316:	68fb      	ldr	r3, [r7, #12]
 8002318:	681b      	ldr	r3, [r3, #0]
 800231a:	f042 020a 	orr.w	r2, r2, #10
 800231e:	601a      	str	r2, [r3, #0]
    }
    /* Enable the Peripheral */
    __HAL_DMA_ENABLE(hdma);
 8002320:	68fb      	ldr	r3, [r7, #12]
 8002322:	681b      	ldr	r3, [r3, #0]
 8002324:	681a      	ldr	r2, [r3, #0]
 8002326:	68fb      	ldr	r3, [r7, #12]
 8002328:	681b      	ldr	r3, [r3, #0]
 800232a:	f042 0201 	orr.w	r2, r2, #1
 800232e:	601a      	str	r2, [r3, #0]
 8002330:	e005      	b.n	800233e <HAL_DMA_Start_IT+0xb6>
  }
  else
  {      
    /* Process Unlocked */
    __HAL_UNLOCK(hdma); 
 8002332:	68fb      	ldr	r3, [r7, #12]
 8002334:	2200      	movs	r2, #0
 8002336:	f883 2020 	strb.w	r2, [r3, #32]

    /* Remain BUSY */
    status = HAL_BUSY;
 800233a:	2302      	movs	r3, #2
 800233c:	75fb      	strb	r3, [r7, #23]
  }    
  return status;
 800233e:	7dfb      	ldrb	r3, [r7, #23]
}
 8002340:	4618      	mov	r0, r3
 8002342:	3718      	adds	r7, #24
 8002344:	46bd      	mov	sp, r7
 8002346:	bd80      	pop	{r7, pc}

08002348 <HAL_DMA_IRQHandler>:
  * @param  hdma: pointer to a DMA_HandleTypeDef structure that contains
  *               the configuration information for the specified DMA Channel.  
  * @retval None
  */
void HAL_DMA_IRQHandler(DMA_HandleTypeDef *hdma)
{
 8002348:	b580      	push	{r7, lr}
 800234a:	b084      	sub	sp, #16
 800234c:	af00      	add	r7, sp, #0
 800234e:	6078      	str	r0, [r7, #4]
  uint32_t flag_it = hdma->DmaBaseAddress->ISR;
 8002350:	687b      	ldr	r3, [r7, #4]
 8002352:	6bdb      	ldr	r3, [r3, #60]	@ 0x3c
 8002354:	681b      	ldr	r3, [r3, #0]
 8002356:	60fb      	str	r3, [r7, #12]
  uint32_t source_it = hdma->Instance->CCR;
 8002358:	687b      	ldr	r3, [r7, #4]
 800235a:	681b      	ldr	r3, [r3, #0]
 800235c:	681b      	ldr	r3, [r3, #0]
 800235e:	60bb      	str	r3, [r7, #8]
  
  /* Half Transfer Complete Interrupt management ******************************/
  if (((flag_it & (DMA_FLAG_HT1 << hdma->ChannelIndex)) != RESET) && ((source_it & DMA_IT_HT) != RESET))
 8002360:	687b      	ldr	r3, [r7, #4]
 8002362:	6c1b      	ldr	r3, [r3, #64]	@ 0x40
 8002364:	2204      	movs	r2, #4
 8002366:	409a      	lsls	r2, r3
 8002368:	68fb      	ldr	r3, [r7, #12]
 800236a:	4013      	ands	r3, r2
 800236c:	2b00      	cmp	r3, #0
 800236e:	d04f      	beq.n	8002410 <HAL_DMA_IRQHandler+0xc8>
 8002370:	68bb      	ldr	r3, [r7, #8]
 8002372:	f003 0304 	and.w	r3, r3, #4
 8002376:	2b00      	cmp	r3, #0
 8002378:	d04a      	beq.n	8002410 <HAL_DMA_IRQHandler+0xc8>
  {
    /* Disable the half transfer interrupt if the DMA mode is not CIRCULAR */
    if((hdma->Instance->CCR & DMA_CCR_CIRC) == 0U)
 800237a:	687b      	ldr	r3, [r7, #4]
 800237c:	681b      	ldr	r3, [r3, #0]
 800237e:	681b      	ldr	r3, [r3, #0]
 8002380:	f003 0320 	and.w	r3, r3, #32
 8002384:	2b00      	cmp	r3, #0
 8002386:	d107      	bne.n	8002398 <HAL_DMA_IRQHandler+0x50>
    {
      /* Disable the half transfer interrupt */
      __HAL_DMA_DISABLE_IT(hdma, DMA_IT_HT);
 8002388:	687b      	ldr	r3, [r7, #4]
 800238a:	681b      	ldr	r3, [r3, #0]
 800238c:	681a      	ldr	r2, [r3, #0]
 800238e:	687b      	ldr	r3, [r7, #4]
 8002390:	681b      	ldr	r3, [r3, #0]
 8002392:	f022 0204 	bic.w	r2, r2, #4
 8002396:	601a      	str	r2, [r3, #0]
    }
    /* Clear the half transfer complete flag */
    __HAL_DMA_CLEAR_FLAG(hdma, __HAL_DMA_GET_HT_FLAG_INDEX(hdma));
 8002398:	687b      	ldr	r3, [r7, #4]
 800239a:	681b      	ldr	r3, [r3, #0]
 800239c:	4a66      	ldr	r2, [pc, #408]	@ (8002538 <HAL_DMA_IRQHandler+0x1f0>)
 800239e:	4293      	cmp	r3, r2
 80023a0:	d029      	beq.n	80023f6 <HAL_DMA_IRQHandler+0xae>
 80023a2:	687b      	ldr	r3, [r7, #4]
 80023a4:	681b      	ldr	r3, [r3, #0]
 80023a6:	4a65      	ldr	r2, [pc, #404]	@ (800253c <HAL_DMA_IRQHandler+0x1f4>)
 80023a8:	4293      	cmp	r3, r2
 80023aa:	d022      	beq.n	80023f2 <HAL_DMA_IRQHandler+0xaa>
 80023ac:	687b      	ldr	r3, [r7, #4]
 80023ae:	681b      	ldr	r3, [r3, #0]
 80023b0:	4a63      	ldr	r2, [pc, #396]	@ (8002540 <HAL_DMA_IRQHandler+0x1f8>)
 80023b2:	4293      	cmp	r3, r2
 80023b4:	d01a      	beq.n	80023ec <HAL_DMA_IRQHandler+0xa4>
 80023b6:	687b      	ldr	r3, [r7, #4]
 80023b8:	681b      	ldr	r3, [r3, #0]
 80023ba:	4a62      	ldr	r2, [pc, #392]	@ (8002544 <HAL_DMA_IRQHandler+0x1fc>)
 80023bc:	4293      	cmp	r3, r2
 80023be:	d012      	beq.n	80023e6 <HAL_DMA_IRQHandler+0x9e>
 80023c0:	687b      	ldr	r3, [r7, #4]
 80023c2:	681b      	ldr	r3, [r3, #0]
 80023c4:	4a60      	ldr	r2, [pc, #384]	@ (8002548 <HAL_DMA_IRQHandler+0x200>)
 80023c6:	4293      	cmp	r3, r2
 80023c8:	d00a      	beq.n	80023e0 <HAL_DMA_IRQHandler+0x98>
 80023ca:	687b      	ldr	r3, [r7, #4]
 80023cc:	681b      	ldr	r3, [r3, #0]
 80023ce:	4a5f      	ldr	r2, [pc, #380]	@ (800254c <HAL_DMA_IRQHandler+0x204>)
 80023d0:	4293      	cmp	r3, r2
 80023d2:	d102      	bne.n	80023da <HAL_DMA_IRQHandler+0x92>
 80023d4:	f44f 0380 	mov.w	r3, #4194304	@ 0x400000
 80023d8:	e00e      	b.n	80023f8 <HAL_DMA_IRQHandler+0xb0>
 80023da:	f04f 6380 	mov.w	r3, #67108864	@ 0x4000000
 80023de:	e00b      	b.n	80023f8 <HAL_DMA_IRQHandler+0xb0>
 80023e0:	f44f 2380 	mov.w	r3, #262144	@ 0x40000
 80023e4:	e008      	b.n	80023f8 <HAL_DMA_IRQHandler+0xb0>
 80023e6:	f44f 4380 	mov.w	r3, #16384	@ 0x4000
 80023ea:	e005      	b.n	80023f8 <HAL_DMA_IRQHandler+0xb0>
 80023ec:	f44f 6380 	mov.w	r3, #1024	@ 0x400
 80023f0:	e002      	b.n	80023f8 <HAL_DMA_IRQHandler+0xb0>
 80023f2:	2340      	movs	r3, #64	@ 0x40
 80023f4:	e000      	b.n	80023f8 <HAL_DMA_IRQHandler+0xb0>
 80023f6:	2304      	movs	r3, #4
 80023f8:	4a55      	ldr	r2, [pc, #340]	@ (8002550 <HAL_DMA_IRQHandler+0x208>)
 80023fa:	6053      	str	r3, [r2, #4]

    /* DMA peripheral state is not updated in Half Transfer */
    /* but in Transfer Complete case */

    if(hdma->XferHalfCpltCallback != NULL)
 80023fc:	687b      	ldr	r3, [r7, #4]
 80023fe:	6adb      	ldr	r3, [r3, #44]	@ 0x2c
 8002400:	2b00      	cmp	r3, #0
 8002402:	f000 8094 	beq.w	800252e <HAL_DMA_IRQHandler+0x1e6>
    {
      /* Half transfer callback */
      hdma->XferHalfCpltCallback(hdma);
 8002406:	687b      	ldr	r3, [r7, #4]
 8002408:	6adb      	ldr	r3, [r3, #44]	@ 0x2c
 800240a:	6878      	ldr	r0, [r7, #4]
 800240c:	4798      	blx	r3
    if(hdma->XferHalfCpltCallback != NULL)
 800240e:	e08e      	b.n	800252e <HAL_DMA_IRQHandler+0x1e6>
    }
  }

  /* Transfer Complete Interrupt management ***********************************/
  else if (((flag_it & (DMA_FLAG_TC1 << hdma->ChannelIndex)) != RESET) && ((source_it & DMA_IT_TC) != RESET))
 8002410:	687b      	ldr	r3, [r7, #4]
 8002412:	6c1b      	ldr	r3, [r3, #64]	@ 0x40
 8002414:	2202      	movs	r2, #2
 8002416:	409a      	lsls	r2, r3
 8002418:	68fb      	ldr	r3, [r7, #12]
 800241a:	4013      	ands	r3, r2
 800241c:	2b00      	cmp	r3, #0
 800241e:	d056      	beq.n	80024ce <HAL_DMA_IRQHandler+0x186>
 8002420:	68bb      	ldr	r3, [r7, #8]
 8002422:	f003 0302 	and.w	r3, r3, #2
 8002426:	2b00      	cmp	r3, #0
 8002428:	d051      	beq.n	80024ce <HAL_DMA_IRQHandler+0x186>
  {
    if((hdma->Instance->CCR & DMA_CCR_CIRC) == 0U)
 800242a:	687b      	ldr	r3, [r7, #4]
 800242c:	681b      	ldr	r3, [r3, #0]
 800242e:	681b      	ldr	r3, [r3, #0]
 8002430:	f003 0320 	and.w	r3, r3, #32
 8002434:	2b00      	cmp	r3, #0
 8002436:	d10b      	bne.n	8002450 <HAL_DMA_IRQHandler+0x108>
    {
      /* Disable the transfer complete and error interrupt */
      __HAL_DMA_DISABLE_IT(hdma, DMA_IT_TE | DMA_IT_TC);  
 8002438:	687b      	ldr	r3, [r7, #4]
 800243a:	681b      	ldr	r3, [r3, #0]
 800243c:	681a      	ldr	r2, [r3, #0]
 800243e:	687b      	ldr	r3, [r7, #4]
 8002440:	681b      	ldr	r3, [r3, #0]
 8002442:	f022 020a 	bic.w	r2, r2, #10
 8002446:	601a      	str	r2, [r3, #0]

      /* Change the DMA state */
      hdma->State = HAL_DMA_STATE_READY;
 8002448:	687b      	ldr	r3, [r7, #4]
 800244a:	2201      	movs	r2, #1
 800244c:	f883 2021 	strb.w	r2, [r3, #33]	@ 0x21
    }
    /* Clear the transfer complete flag */
      __HAL_DMA_CLEAR_FLAG(hdma, __HAL_DMA_GET_TC_FLAG_INDEX(hdma));
 8002450:	687b      	ldr	r3, [r7, #4]
 8002452:	681b      	ldr	r3, [r3, #0]
 8002454:	4a38      	ldr	r2, [pc, #224]	@ (8002538 <HAL_DMA_IRQHandler+0x1f0>)
 8002456:	4293      	cmp	r3, r2
 8002458:	d029      	beq.n	80024ae <HAL_DMA_IRQHandler+0x166>
 800245a:	687b      	ldr	r3, [r7, #4]
 800245c:	681b      	ldr	r3, [r3, #0]
 800245e:	4a37      	ldr	r2, [pc, #220]	@ (800253c <HAL_DMA_IRQHandler+0x1f4>)
 8002460:	4293      	cmp	r3, r2
 8002462:	d022      	beq.n	80024aa <HAL_DMA_IRQHandler+0x162>
 8002464:	687b      	ldr	r3, [r7, #4]
 8002466:	681b      	ldr	r3, [r3, #0]
 8002468:	4a35      	ldr	r2, [pc, #212]	@ (8002540 <HAL_DMA_IRQHandler+0x1f8>)
 800246a:	4293      	cmp	r3, r2
 800246c:	d01a      	beq.n	80024a4 <HAL_DMA_IRQHandler+0x15c>
 800246e:	687b      	ldr	r3, [r7, #4]
 8002470:	681b      	ldr	r3, [r3, #0]
 8002472:	4a34      	ldr	r2, [pc, #208]	@ (8002544 <HAL_DMA_IRQHandler+0x1fc>)
 8002474:	4293      	cmp	r3, r2
 8002476:	d012      	beq.n	800249e <HAL_DMA_IRQHandler+0x156>
 8002478:	687b      	ldr	r3, [r7, #4]
 800247a:	681b      	ldr	r3, [r3, #0]
 800247c:	4a32      	ldr	r2, [pc, #200]	@ (8002548 <HAL_DMA_IRQHandler+0x200>)
 800247e:	4293      	cmp	r3, r2
 8002480:	d00a      	beq.n	8002498 <HAL_DMA_IRQHandler+0x150>
 8002482:	687b      	ldr	r3, [r7, #4]
 8002484:	681b      	ldr	r3, [r3, #0]
 8002486:	4a31      	ldr	r2, [pc, #196]	@ (800254c <HAL_DMA_IRQHandler+0x204>)
 8002488:	4293      	cmp	r3, r2
 800248a:	d102      	bne.n	8002492 <HAL_DMA_IRQHandler+0x14a>
 800248c:	f44f 1300 	mov.w	r3, #2097152	@ 0x200000
 8002490:	e00e      	b.n	80024b0 <HAL_DMA_IRQHandler+0x168>
 8002492:	f04f 7300 	mov.w	r3, #33554432	@ 0x2000000
 8002496:	e00b      	b.n	80024b0 <HAL_DMA_IRQHandler+0x168>
 8002498:	f44f 3300 	mov.w	r3, #131072	@ 0x20000
 800249c:	e008      	b.n	80024b0 <HAL_DMA_IRQHandler+0x168>
 800249e:	f44f 5300 	mov.w	r3, #8192	@ 0x2000
 80024a2:	e005      	b.n	80024b0 <HAL_DMA_IRQHandler+0x168>
 80024a4:	f44f 7300 	mov.w	r3, #512	@ 0x200
 80024a8:	e002      	b.n	80024b0 <HAL_DMA_IRQHandler+0x168>
 80024aa:	2320      	movs	r3, #32
 80024ac:	e000      	b.n	80024b0 <HAL_DMA_IRQHandler+0x168>
 80024ae:	2302      	movs	r3, #2
 80024b0:	4a27      	ldr	r2, [pc, #156]	@ (8002550 <HAL_DMA_IRQHandler+0x208>)
 80024b2:	6053      	str	r3, [r2, #4]

    /* Process Unlocked */
    __HAL_UNLOCK(hdma);
 80024b4:	687b      	ldr	r3, [r7, #4]
 80024b6:	2200      	movs	r2, #0
 80024b8:	f883 2020 	strb.w	r2, [r3, #32]

    if(hdma->XferCpltCallback != NULL)
 80024bc:	687b      	ldr	r3, [r7, #4]
 80024be:	6a9b      	ldr	r3, [r3, #40]	@ 0x28
 80024c0:	2b00      	cmp	r3, #0
 80024c2:	d034      	beq.n	800252e <HAL_DMA_IRQHandler+0x1e6>
    {
      /* Transfer complete callback */
      hdma->XferCpltCallback(hdma);
 80024c4:	687b      	ldr	r3, [r7, #4]
 80024c6:	6a9b      	ldr	r3, [r3, #40]	@ 0x28
 80024c8:	6878      	ldr	r0, [r7, #4]
 80024ca:	4798      	blx	r3
    if(hdma->XferCpltCallback != NULL)
 80024cc:	e02f      	b.n	800252e <HAL_DMA_IRQHandler+0x1e6>
    }
  }

  /* Transfer Error Interrupt management **************************************/
  else if (( RESET != (flag_it & (DMA_FLAG_TE1 << hdma->ChannelIndex))) && (RESET != (source_it & DMA_IT_TE)))
 80024ce:	687b      	ldr	r3, [r7, #4]
 80024d0:	6c1b      	ldr	r3, [r3, #64]	@ 0x40
 80024d2:	2208      	movs	r2, #8
 80024d4:	409a      	lsls	r2, r3
 80024d6:	68fb      	ldr	r3, [r7, #12]
 80024d8:	4013      	ands	r3, r2
 80024da:	2b00      	cmp	r3, #0
 80024dc:	d028      	beq.n	8002530 <HAL_DMA_IRQHandler+0x1e8>
 80024de:	68bb      	ldr	r3, [r7, #8]
 80024e0:	f003 0308 	and.w	r3, r3, #8
 80024e4:	2b00      	cmp	r3, #0
 80024e6:	d023      	beq.n	8002530 <HAL_DMA_IRQHandler+0x1e8>
  {
    /* When a DMA transfer error occurs */
    /* A hardware clear of its EN bits is performed */
    /* Disable ALL DMA IT */
    __HAL_DMA_DISABLE_IT(hdma, (DMA_IT_TC | DMA_IT_HT | DMA_IT_TE));
 80024e8:	687b      	ldr	r3, [r7, #4]
 80024ea:	681b      	ldr	r3, [r3, #0]
 80024ec:	681a      	ldr	r2, [r3, #0]
 80024ee:	687b      	ldr	r3, [r7, #4]
 80024f0:	681b      	ldr	r3, [r3, #0]
 80024f2:	f022 020e 	bic.w	r2, r2, #14
 80024f6:	601a      	str	r2, [r3, #0]

    /* Clear all flags */
    hdma->DmaBaseAddress->IFCR = (DMA_ISR_GIF1 << hdma->ChannelIndex);
 80024f8:	687b      	ldr	r3, [r7, #4]
 80024fa:	6c1a      	ldr	r2, [r3, #64]	@ 0x40
 80024fc:	687b      	ldr	r3, [r7, #4]
 80024fe:	6bdb      	ldr	r3, [r3, #60]	@ 0x3c
 8002500:	2101      	movs	r1, #1
 8002502:	fa01 f202 	lsl.w	r2, r1, r2
 8002506:	605a      	str	r2, [r3, #4]

    /* Update error code */
    hdma->ErrorCode = HAL_DMA_ERROR_TE;
 8002508:	687b      	ldr	r3, [r7, #4]
 800250a:	2201      	movs	r2, #1
 800250c:	639a      	str	r2, [r3, #56]	@ 0x38

    /* Change the DMA state */
    hdma->State = HAL_DMA_STATE_READY;
 800250e:	687b      	ldr	r3, [r7, #4]
 8002510:	2201      	movs	r2, #1
 8002512:	f883 2021 	strb.w	r2, [r3, #33]	@ 0x21

    /* Process Unlocked */
    __HAL_UNLOCK(hdma);
 8002516:	687b      	ldr	r3, [r7, #4]
 8002518:	2200      	movs	r2, #0
 800251a:	f883 2020 	strb.w	r2, [r3, #32]

    if (hdma->XferErrorCallback != NULL)
 800251e:	687b      	ldr	r3, [r7, #4]
 8002520:	6b1b      	ldr	r3, [r3, #48]	@ 0x30
 8002522:	2b00      	cmp	r3, #0
 8002524:	d004      	beq.n	8002530 <HAL_DMA_IRQHandler+0x1e8>
    {
      /* Transfer error callback */
      hdma->XferErrorCallback(hdma);
 8002526:	687b      	ldr	r3, [r7, #4]
 8002528:	6b1b      	ldr	r3, [r3, #48]	@ 0x30
 800252a:	6878      	ldr	r0, [r7, #4]
 800252c:	4798      	blx	r3
    }
  }
  return;
 800252e:	bf00      	nop
 8002530:	bf00      	nop
}
 8002532:	3710      	adds	r7, #16
 8002534:	46bd      	mov	sp, r7
 8002536:	bd80      	pop	{r7, pc}
 8002538:	40020008 	.word	0x40020008
 800253c:	4002001c 	.word	0x4002001c
 8002540:	40020030 	.word	0x40020030
 8002544:	40020044 	.word	0x40020044
 8002548:	40020058 	.word	0x40020058
 800254c:	4002006c 	.word	0x4002006c
 8002550:	40020000 	.word	0x40020000

08002554 <DMA_SetConfig>:
  * @param  DstAddress: The destination memory Buffer address
  * @param  DataLength: The length of data to be transferred from source to destination
  * @retval HAL status
  */
static void DMA_SetConfig(DMA_HandleTypeDef *hdma, uint32_t SrcAddress, uint32_t DstAddress, uint32_t DataLength)
{
 8002554:	b480      	push	{r7}
 8002556:	b085      	sub	sp, #20
 8002558:	af00      	add	r7, sp, #0
 800255a:	60f8      	str	r0, [r7, #12]
 800255c:	60b9      	str	r1, [r7, #8]
 800255e:	607a      	str	r2, [r7, #4]
 8002560:	603b      	str	r3, [r7, #0]
  /* Clear all flags */
  hdma->DmaBaseAddress->IFCR = (DMA_ISR_GIF1 << hdma->ChannelIndex);
 8002562:	68fb      	ldr	r3, [r7, #12]
 8002564:	6c1a      	ldr	r2, [r3, #64]	@ 0x40
 8002566:	68fb      	ldr	r3, [r7, #12]
 8002568:	6bdb      	ldr	r3, [r3, #60]	@ 0x3c
 800256a:	2101      	movs	r1, #1
 800256c:	fa01 f202 	lsl.w	r2, r1, r2
 8002570:	605a      	str	r2, [r3, #4]

  /* Configure DMA Channel data length */
  hdma->Instance->CNDTR = DataLength;
 8002572:	68fb      	ldr	r3, [r7, #12]
 8002574:	681b      	ldr	r3, [r3, #0]
 8002576:	683a      	ldr	r2, [r7, #0]
 8002578:	605a      	str	r2, [r3, #4]

  /* Memory to Peripheral */
  if((hdma->Init.Direction) == DMA_MEMORY_TO_PERIPH)
 800257a:	68fb      	ldr	r3, [r7, #12]
 800257c:	685b      	ldr	r3, [r3, #4]
 800257e:	2b10      	cmp	r3, #16
 8002580:	d108      	bne.n	8002594 <DMA_SetConfig+0x40>
  {
    /* Configure DMA Channel destination address */
    hdma->Instance->CPAR = DstAddress;
 8002582:	68fb      	ldr	r3, [r7, #12]
 8002584:	681b      	ldr	r3, [r3, #0]
 8002586:	687a      	ldr	r2, [r7, #4]
 8002588:	609a      	str	r2, [r3, #8]

    /* Configure DMA Channel source address */
    hdma->Instance->CMAR = SrcAddress;
 800258a:	68fb      	ldr	r3, [r7, #12]
 800258c:	681b      	ldr	r3, [r3, #0]
 800258e:	68ba      	ldr	r2, [r7, #8]
 8002590:	60da      	str	r2, [r3, #12]
    hdma->Instance->CPAR = SrcAddress;

    /* Configure DMA Channel destination address */
    hdma->Instance->CMAR = DstAddress;
  }
}
 8002592:	e007      	b.n	80025a4 <DMA_SetConfig+0x50>
    hdma->Instance->CPAR = SrcAddress;
 8002594:	68fb      	ldr	r3, [r7, #12]
 8002596:	681b      	ldr	r3, [r3, #0]
 8002598:	68ba      	ldr	r2, [r7, #8]
 800259a:	609a      	str	r2, [r3, #8]
    hdma->Instance->CMAR = DstAddress;
 800259c:	68fb      	ldr	r3, [r7, #12]
 800259e:	681b      	ldr	r3, [r3, #0]
 80025a0:	687a      	ldr	r2, [r7, #4]
 80025a2:	60da      	str	r2, [r3, #12]
}
 80025a4:	bf00      	nop
 80025a6:	3714      	adds	r7, #20
 80025a8:	46bd      	mov	sp, r7
 80025aa:	bc80      	pop	{r7}
 80025ac:	4770      	bx	lr
	...

080025b0 <HAL_GPIO_Init>:
  * @param  GPIO_Init: pointer to a GPIO_InitTypeDef structure that contains
  *         the configuration information for the specified GPIO peripheral.
  * @retval None
  */
void HAL_GPIO_Init(GPIO_TypeDef  *GPIOx, GPIO_InitTypeDef *GPIO_Init)
{
 80025b0:	b480      	push	{r7}
 80025b2:	b08b      	sub	sp, #44	@ 0x2c
 80025b4:	af00      	add	r7, sp, #0
 80025b6:	6078      	str	r0, [r7, #4]
 80025b8:	6039      	str	r1, [r7, #0]
  uint32_t position = 0x00u;
 80025ba:	2300      	movs	r3, #0
 80025bc:	627b      	str	r3, [r7, #36]	@ 0x24
  uint32_t ioposition;
  uint32_t iocurrent;
  uint32_t temp;
  uint32_t config = 0x00u;
 80025be:	2300      	movs	r3, #0
 80025c0:	623b      	str	r3, [r7, #32]
  assert_param(IS_GPIO_ALL_INSTANCE(GPIOx));
  assert_param(IS_GPIO_PIN(GPIO_Init->Pin));
  assert_param(IS_GPIO_MODE(GPIO_Init->Mode));

  /* Configure the port pins */
  while (((GPIO_Init->Pin) >> position) != 0x00u)
 80025c2:	e169      	b.n	8002898 <HAL_GPIO_Init+0x2e8>
  {
    /* Get the IO position */
    ioposition = (0x01uL << position);
 80025c4:	2201      	movs	r2, #1
 80025c6:	6a7b      	ldr	r3, [r7, #36]	@ 0x24
 80025c8:	fa02 f303 	lsl.w	r3, r2, r3
 80025cc:	61fb      	str	r3, [r7, #28]

    /* Get the current IO position */
    iocurrent = (uint32_t)(GPIO_Init->Pin) & ioposition;
 80025ce:	683b      	ldr	r3, [r7, #0]
 80025d0:	681b      	ldr	r3, [r3, #0]
 80025d2:	69fa      	ldr	r2, [r7, #28]
 80025d4:	4013      	ands	r3, r2
 80025d6:	61bb      	str	r3, [r7, #24]

    if (iocurrent == ioposition)
 80025d8:	69ba      	ldr	r2, [r7, #24]
 80025da:	69fb      	ldr	r3, [r7, #28]
 80025dc:	429a      	cmp	r2, r3
 80025de:	f040 8158 	bne.w	8002892 <HAL_GPIO_Init+0x2e2>
    {
      /* Check the Alternate function parameters */
      assert_param(IS_GPIO_AF_INSTANCE(GPIOx));

      /* Based on the required mode, filling config variable with MODEy[1:0] and CNFy[3:2] corresponding bits */
      switch (GPIO_Init->Mode)
 80025e2:	683b      	ldr	r3, [r7, #0]
 80025e4:	685b      	ldr	r3, [r3, #4]
 80025e6:	4a9a      	ldr	r2, [pc, #616]	@ (8002850 <HAL_GPIO_Init+0x2a0>)
 80025e8:	4293      	cmp	r3, r2
 80025ea:	d05e      	beq.n	80026aa <HAL_GPIO_Init+0xfa>
 80025ec:	4a98      	ldr	r2, [pc, #608]	@ (8002850 <HAL_GPIO_Init+0x2a0>)
 80025ee:	4293      	cmp	r3, r2
 80025f0:	d875      	bhi.n	80026de <HAL_GPIO_Init+0x12e>
 80025f2:	4a98      	ldr	r2, [pc, #608]	@ (8002854 <HAL_GPIO_Init+0x2a4>)
 80025f4:	4293      	cmp	r3, r2
 80025f6:	d058      	beq.n	80026aa <HAL_GPIO_Init+0xfa>
 80025f8:	4a96      	ldr	r2, [pc, #600]	@ (8002854 <HAL_GPIO_Init+0x2a4>)
 80025fa:	4293      	cmp	r3, r2
 80025fc:	d86f      	bhi.n	80026de <HAL_GPIO_Init+0x12e>
 80025fe:	4a96      	ldr	r2, [pc, #600]	@ (8002858 <HAL_GPIO_Init+0x2a8>)
 8002600:	4293      	cmp	r3, r2
 8002602:	d052      	beq.n	80026aa <HAL_GPIO_Init+0xfa>
 8002604:	4a94      	ldr	r2, [pc, #592]	@ (8002858 <HAL_GPIO_Init+0x2a8>)
 8002606:	4293      	cmp	r3, r2
 8002608:	d869      	bhi.n	80026de <HAL_GPIO_Init+0x12e>
 800260a:	4a94      	ldr	r2, [pc, #592]	@ (800285c <HAL_GPIO_Init+0x2ac>)
 800260c:	4293      	cmp	r3, r2
 800260e:	d04c      	beq.n	80026aa <HAL_GPIO_Init+0xfa>
 8002610:	4a92      	ldr	r2, [pc, #584]	@ (800285c <HAL_GPIO_Init+0x2ac>)
 8002612:	4293      	cmp	r3, r2
 8002614:	d863      	bhi.n	80026de <HAL_GPIO_Init+0x12e>
 8002616:	4a92      	ldr	r2, [pc, #584]	@ (8002860 <HAL_GPIO_Init+0x2b0>)
 8002618:	4293      	cmp	r3, r2
 800261a:	d046      	beq.n	80026aa <HAL_GPIO_Init+0xfa>
 800261c:	4a90      	ldr	r2, [pc, #576]	@ (8002860 <HAL_GPIO_Init+0x2b0>)
 800261e:	4293      	cmp	r3, r2
 8002620:	d85d      	bhi.n	80026de <HAL_GPIO_Init+0x12e>
 8002622:	2b12      	cmp	r3, #18
 8002624:	d82a      	bhi.n	800267c <HAL_GPIO_Init+0xcc>
 8002626:	2b12      	cmp	r3, #18
 8002628:	d859      	bhi.n	80026de <HAL_GPIO_Init+0x12e>
 800262a:	a201      	add	r2, pc, #4	@ (adr r2, 8002630 <HAL_GPIO_Init+0x80>)
 800262c:	f852 f023 	ldr.w	pc, [r2, r3, lsl #2]
 8002630:	080026ab 	.word	0x080026ab
 8002634:	08002685 	.word	0x08002685
 8002638:	08002697 	.word	0x08002697
 800263c:	080026d9 	.word	0x080026d9
 8002640:	080026df 	.word	0x080026df
 8002644:	080026df 	.word	0x080026df
 8002648:	080026df 	.word	0x080026df
 800264c:	080026df 	.word	0x080026df
 8002650:	080026df 	.word	0x080026df
 8002654:	080026df 	.word	0x080026df
 8002658:	080026df 	.word	0x080026df
 800265c:	080026df 	.word	0x080026df
 8002660:	080026df 	.word	0x080026df
 8002664:	080026df 	.word	0x080026df
 8002668:	080026df 	.word	0x080026df
 800266c:	080026df 	.word	0x080026df
 8002670:	080026df 	.word	0x080026df
 8002674:	0800268d 	.word	0x0800268d
 8002678:	080026a1 	.word	0x080026a1
 800267c:	4a79      	ldr	r2, [pc, #484]	@ (8002864 <HAL_GPIO_Init+0x2b4>)
 800267e:	4293      	cmp	r3, r2
 8002680:	d013      	beq.n	80026aa <HAL_GPIO_Init+0xfa>
          config = GPIO_CR_MODE_INPUT + GPIO_CR_CNF_ANALOG;
          break;

        /* Parameters are checked with assert_param */
        default:
          break;
 8002682:	e02c      	b.n	80026de <HAL_GPIO_Init+0x12e>
          config = GPIO_Init->Speed + GPIO_CR_CNF_GP_OUTPUT_PP;
 8002684:	683b      	ldr	r3, [r7, #0]
 8002686:	68db      	ldr	r3, [r3, #12]
 8002688:	623b      	str	r3, [r7, #32]
          break;
 800268a:	e029      	b.n	80026e0 <HAL_GPIO_Init+0x130>
          config = GPIO_Init->Speed + GPIO_CR_CNF_GP_OUTPUT_OD;
 800268c:	683b      	ldr	r3, [r7, #0]
 800268e:	68db      	ldr	r3, [r3, #12]
 8002690:	3304      	adds	r3, #4
 8002692:	623b      	str	r3, [r7, #32]
          break;
 8002694:	e024      	b.n	80026e0 <HAL_GPIO_Init+0x130>
          config = GPIO_Init->Speed + GPIO_CR_CNF_AF_OUTPUT_PP;
 8002696:	683b      	ldr	r3, [r7, #0]
 8002698:	68db      	ldr	r3, [r3, #12]
 800269a:	3308      	adds	r3, #8
 800269c:	623b      	str	r3, [r7, #32]
          break;
 800269e:	e01f      	b.n	80026e0 <HAL_GPIO_Init+0x130>
          config = GPIO_Init->Speed + GPIO_CR_CNF_AF_OUTPUT_OD;
 80026a0:	683b      	ldr	r3, [r7, #0]
 80026a2:	68db      	ldr	r3, [r3, #12]
 80026a4:	330c      	adds	r3, #12
 80026a6:	623b      	str	r3, [r7, #32]
          break;
 80026a8:	e01a      	b.n	80026e0 <HAL_GPIO_Init+0x130>
          if (GPIO_Init->Pull == GPIO_NOPULL)
 80026aa:	683b      	ldr	r3, [r7, #0]
 80026ac:	689b      	ldr	r3, [r3, #8]
 80026ae:	2b00      	cmp	r3, #0
 80026b0:	d102      	bne.n	80026b8 <HAL_GPIO_Init+0x108>
            config = GPIO_CR_MODE_INPUT + GPIO_CR_CNF_INPUT_FLOATING;
 80026b2:	2304      	movs	r3, #4
 80026b4:	623b      	str	r3, [r7, #32]
          break;
 80026b6:	e013      	b.n	80026e0 <HAL_GPIO_Init+0x130>
          else if (GPIO_Init->Pull == GPIO_PULLUP)
 80026b8:	683b      	ldr	r3, [r7, #0]
 80026ba:	689b      	ldr	r3, [r3, #8]
 80026bc:	2b01      	cmp	r3, #1
 80026be:	d105      	bne.n	80026cc <HAL_GPIO_Init+0x11c>
            config = GPIO_CR_MODE_INPUT + GPIO_CR_CNF_INPUT_PU_PD;
 80026c0:	2308      	movs	r3, #8
 80026c2:	623b      	str	r3, [r7, #32]
            GPIOx->BSRR = ioposition;
 80026c4:	687b      	ldr	r3, [r7, #4]
 80026c6:	69fa      	ldr	r2, [r7, #28]
 80026c8:	611a      	str	r2, [r3, #16]
          break;
 80026ca:	e009      	b.n	80026e0 <HAL_GPIO_Init+0x130>
            config = GPIO_CR_MODE_INPUT + GPIO_CR_CNF_INPUT_PU_PD;
 80026cc:	2308      	movs	r3, #8
 80026ce:	623b      	str	r3, [r7, #32]
            GPIOx->BRR = ioposition;
 80026d0:	687b      	ldr	r3, [r7, #4]
 80026d2:	69fa      	ldr	r2, [r7, #28]
 80026d4:	615a      	str	r2, [r3, #20]
          break;
 80026d6:	e003      	b.n	80026e0 <HAL_GPIO_Init+0x130>
          config = GPIO_CR_MODE_INPUT + GPIO_CR_CNF_ANALOG;
 80026d8:	2300      	movs	r3, #0
 80026da:	623b      	str	r3, [r7, #32]
          break;
 80026dc:	e000      	b.n	80026e0 <HAL_GPIO_Init+0x130>
          break;
 80026de:	bf00      	nop
      }

      /* Check if the current bit belongs to first half or last half of the pin count number
       in order to address CRH or CRL register*/
      configregister = (iocurrent < GPIO_PIN_8) ? &GPIOx->CRL     : &GPIOx->CRH;
 80026e0:	69bb      	ldr	r3, [r7, #24]
 80026e2:	2bff      	cmp	r3, #255	@ 0xff
 80026e4:	d801      	bhi.n	80026ea <HAL_GPIO_Init+0x13a>
 80026e6:	687b      	ldr	r3, [r7, #4]
 80026e8:	e001      	b.n	80026ee <HAL_GPIO_Init+0x13e>
 80026ea:	687b      	ldr	r3, [r7, #4]
 80026ec:	3304      	adds	r3, #4
 80026ee:	617b      	str	r3, [r7, #20]
      registeroffset = (iocurrent < GPIO_PIN_8) ? (position << 2u) : ((position - 8u) << 2u);
 80026f0:	69bb      	ldr	r3, [r7, #24]
 80026f2:	2bff      	cmp	r3, #255	@ 0xff
 80026f4:	d802      	bhi.n	80026fc <HAL_GPIO_Init+0x14c>
 80026f6:	6a7b      	ldr	r3, [r7, #36]	@ 0x24
 80026f8:	009b      	lsls	r3, r3, #2
 80026fa:	e002      	b.n	8002702 <HAL_GPIO_Init+0x152>
 80026fc:	6a7b      	ldr	r3, [r7, #36]	@ 0x24
 80026fe:	3b08      	subs	r3, #8
 8002700:	009b      	lsls	r3, r3, #2
 8002702:	613b      	str	r3, [r7, #16]

      /* Apply the new configuration of the pin to the register */
      MODIFY_REG((*configregister), ((GPIO_CRL_MODE0 | GPIO_CRL_CNF0) << registeroffset), (config << registeroffset));
 8002704:	697b      	ldr	r3, [r7, #20]
 8002706:	681a      	ldr	r2, [r3, #0]
 8002708:	210f      	movs	r1, #15
 800270a:	693b      	ldr	r3, [r7, #16]
 800270c:	fa01 f303 	lsl.w	r3, r1, r3
 8002710:	43db      	mvns	r3, r3
 8002712:	401a      	ands	r2, r3
 8002714:	6a39      	ldr	r1, [r7, #32]
 8002716:	693b      	ldr	r3, [r7, #16]
 8002718:	fa01 f303 	lsl.w	r3, r1, r3
 800271c:	431a      	orrs	r2, r3
 800271e:	697b      	ldr	r3, [r7, #20]
 8002720:	601a      	str	r2, [r3, #0]

      /*--------------------- EXTI Mode Configuration ------------------------*/
      /* Configure the External Interrupt or event for the current IO */
      if ((GPIO_Init->Mode & EXTI_MODE) == EXTI_MODE)
 8002722:	683b      	ldr	r3, [r7, #0]
 8002724:	685b      	ldr	r3, [r3, #4]
 8002726:	f003 5380 	and.w	r3, r3, #268435456	@ 0x10000000
 800272a:	2b00      	cmp	r3, #0
 800272c:	f000 80b1 	beq.w	8002892 <HAL_GPIO_Init+0x2e2>
      {
        /* Enable AFIO Clock */
        __HAL_RCC_AFIO_CLK_ENABLE();
 8002730:	4b4d      	ldr	r3, [pc, #308]	@ (8002868 <HAL_GPIO_Init+0x2b8>)
 8002732:	699b      	ldr	r3, [r3, #24]
 8002734:	4a4c      	ldr	r2, [pc, #304]	@ (8002868 <HAL_GPIO_Init+0x2b8>)
 8002736:	f043 0301 	orr.w	r3, r3, #1
 800273a:	6193      	str	r3, [r2, #24]
 800273c:	4b4a      	ldr	r3, [pc, #296]	@ (8002868 <HAL_GPIO_Init+0x2b8>)
 800273e:	699b      	ldr	r3, [r3, #24]
 8002740:	f003 0301 	and.w	r3, r3, #1
 8002744:	60bb      	str	r3, [r7, #8]
 8002746:	68bb      	ldr	r3, [r7, #8]
        temp = AFIO->EXTICR[position >> 2u];
 8002748:	4a48      	ldr	r2, [pc, #288]	@ (800286c <HAL_GPIO_Init+0x2bc>)
 800274a:	6a7b      	ldr	r3, [r7, #36]	@ 0x24
 800274c:	089b      	lsrs	r3, r3, #2
 800274e:	3302      	adds	r3, #2
 8002750:	f852 3023 	ldr.w	r3, [r2, r3, lsl #2]
 8002754:	60fb      	str	r3, [r7, #12]
        CLEAR_BIT(temp, (0x0Fu) << (4u * (position & 0x03u)));
 8002756:	6a7b      	ldr	r3, [r7, #36]	@ 0x24
 8002758:	f003 0303 	and.w	r3, r3, #3
 800275c:	009b      	lsls	r3, r3, #2
 800275e:	220f      	movs	r2, #15
 8002760:	fa02 f303 	lsl.w	r3, r2, r3
 8002764:	43db      	mvns	r3, r3
 8002766:	68fa      	ldr	r2, [r7, #12]
 8002768:	4013      	ands	r3, r2
 800276a:	60fb      	str	r3, [r7, #12]
        SET_BIT(temp, (GPIO_GET_INDEX(GPIOx)) << (4u * (position & 0x03u)));
 800276c:	687b      	ldr	r3, [r7, #4]
 800276e:	4a40      	ldr	r2, [pc, #256]	@ (8002870 <HAL_GPIO_Init+0x2c0>)
 8002770:	4293      	cmp	r3, r2
 8002772:	d013      	beq.n	800279c <HAL_GPIO_Init+0x1ec>
 8002774:	687b      	ldr	r3, [r7, #4]
 8002776:	4a3f      	ldr	r2, [pc, #252]	@ (8002874 <HAL_GPIO_Init+0x2c4>)
 8002778:	4293      	cmp	r3, r2
 800277a:	d00d      	beq.n	8002798 <HAL_GPIO_Init+0x1e8>
 800277c:	687b      	ldr	r3, [r7, #4]
 800277e:	4a3e      	ldr	r2, [pc, #248]	@ (8002878 <HAL_GPIO_Init+0x2c8>)
 8002780:	4293      	cmp	r3, r2
 8002782:	d007      	beq.n	8002794 <HAL_GPIO_Init+0x1e4>
 8002784:	687b      	ldr	r3, [r7, #4]
 8002786:	4a3d      	ldr	r2, [pc, #244]	@ (800287c <HAL_GPIO_Init+0x2cc>)
 8002788:	4293      	cmp	r3, r2
 800278a:	d101      	bne.n	8002790 <HAL_GPIO_Init+0x1e0>
 800278c:	2303      	movs	r3, #3
 800278e:	e006      	b.n	800279e <HAL_GPIO_Init+0x1ee>
 8002790:	2304      	movs	r3, #4
 8002792:	e004      	b.n	800279e <HAL_GPIO_Init+0x1ee>
 8002794:	2302      	movs	r3, #2
 8002796:	e002      	b.n	800279e <HAL_GPIO_Init+0x1ee>
 8002798:	2301      	movs	r3, #1
 800279a:	e000      	b.n	800279e <HAL_GPIO_Init+0x1ee>
 800279c:	2300      	movs	r3, #0
 800279e:	6a7a      	ldr	r2, [r7, #36]	@ 0x24
 80027a0:	f002 0203 	and.w	r2, r2, #3
 80027a4:	0092      	lsls	r2, r2, #2
 80027a6:	4093      	lsls	r3, r2
 80027a8:	68fa      	ldr	r2, [r7, #12]
 80027aa:	4313      	orrs	r3, r2
 80027ac:	60fb      	str	r3, [r7, #12]
        AFIO->EXTICR[position >> 2u] = temp;
 80027ae:	492f      	ldr	r1, [pc, #188]	@ (800286c <HAL_GPIO_Init+0x2bc>)
 80027b0:	6a7b      	ldr	r3, [r7, #36]	@ 0x24
 80027b2:	089b      	lsrs	r3, r3, #2
 80027b4:	3302      	adds	r3, #2
 80027b6:	68fa      	ldr	r2, [r7, #12]
 80027b8:	f841 2023 	str.w	r2, [r1, r3, lsl #2]


        /* Enable or disable the rising trigger */
        if ((GPIO_Init->Mode & RISING_EDGE) == RISING_EDGE)
 80027bc:	683b      	ldr	r3, [r7, #0]
 80027be:	685b      	ldr	r3, [r3, #4]
 80027c0:	f403 1380 	and.w	r3, r3, #1048576	@ 0x100000
 80027c4:	2b00      	cmp	r3, #0
 80027c6:	d006      	beq.n	80027d6 <HAL_GPIO_Init+0x226>
        {
          SET_BIT(EXTI->RTSR, iocurrent);
 80027c8:	4b2d      	ldr	r3, [pc, #180]	@ (8002880 <HAL_GPIO_Init+0x2d0>)
 80027ca:	689a      	ldr	r2, [r3, #8]
 80027cc:	492c      	ldr	r1, [pc, #176]	@ (8002880 <HAL_GPIO_Init+0x2d0>)
 80027ce:	69bb      	ldr	r3, [r7, #24]
 80027d0:	4313      	orrs	r3, r2
 80027d2:	608b      	str	r3, [r1, #8]
 80027d4:	e006      	b.n	80027e4 <HAL_GPIO_Init+0x234>
        }
        else
        {
          CLEAR_BIT(EXTI->RTSR, iocurrent);
 80027d6:	4b2a      	ldr	r3, [pc, #168]	@ (8002880 <HAL_GPIO_Init+0x2d0>)
 80027d8:	689a      	ldr	r2, [r3, #8]
 80027da:	69bb      	ldr	r3, [r7, #24]
 80027dc:	43db      	mvns	r3, r3
 80027de:	4928      	ldr	r1, [pc, #160]	@ (8002880 <HAL_GPIO_Init+0x2d0>)
 80027e0:	4013      	ands	r3, r2
 80027e2:	608b      	str	r3, [r1, #8]
        }

        /* Enable or disable the falling trigger */
        if ((GPIO_Init->Mode & FALLING_EDGE) == FALLING_EDGE)
 80027e4:	683b      	ldr	r3, [r7, #0]
 80027e6:	685b      	ldr	r3, [r3, #4]
 80027e8:	f403 1300 	and.w	r3, r3, #2097152	@ 0x200000
 80027ec:	2b00      	cmp	r3, #0
 80027ee:	d006      	beq.n	80027fe <HAL_GPIO_Init+0x24e>
        {
          SET_BIT(EXTI->FTSR, iocurrent);
 80027f0:	4b23      	ldr	r3, [pc, #140]	@ (8002880 <HAL_GPIO_Init+0x2d0>)
 80027f2:	68da      	ldr	r2, [r3, #12]
 80027f4:	4922      	ldr	r1, [pc, #136]	@ (8002880 <HAL_GPIO_Init+0x2d0>)
 80027f6:	69bb      	ldr	r3, [r7, #24]
 80027f8:	4313      	orrs	r3, r2
 80027fa:	60cb      	str	r3, [r1, #12]
 80027fc:	e006      	b.n	800280c <HAL_GPIO_Init+0x25c>
        }
        else
        {
          CLEAR_BIT(EXTI->FTSR, iocurrent);
 80027fe:	4b20      	ldr	r3, [pc, #128]	@ (8002880 <HAL_GPIO_Init+0x2d0>)
 8002800:	68da      	ldr	r2, [r3, #12]
 8002802:	69bb      	ldr	r3, [r7, #24]
 8002804:	43db      	mvns	r3, r3
 8002806:	491e      	ldr	r1, [pc, #120]	@ (8002880 <HAL_GPIO_Init+0x2d0>)
 8002808:	4013      	ands	r3, r2
 800280a:	60cb      	str	r3, [r1, #12]
        }

        /* Configure the event mask */
        if ((GPIO_Init->Mode & GPIO_MODE_EVT) == GPIO_MODE_EVT)
 800280c:	683b      	ldr	r3, [r7, #0]
 800280e:	685b      	ldr	r3, [r3, #4]
 8002810:	f403 3300 	and.w	r3, r3, #131072	@ 0x20000
 8002814:	2b00      	cmp	r3, #0
 8002816:	d006      	beq.n	8002826 <HAL_GPIO_Init+0x276>
        {
          SET_BIT(EXTI->EMR, iocurrent);
 8002818:	4b19      	ldr	r3, [pc, #100]	@ (8002880 <HAL_GPIO_Init+0x2d0>)
 800281a:	685a      	ldr	r2, [r3, #4]
 800281c:	4918      	ldr	r1, [pc, #96]	@ (8002880 <HAL_GPIO_Init+0x2d0>)
 800281e:	69bb      	ldr	r3, [r7, #24]
 8002820:	4313      	orrs	r3, r2
 8002822:	604b      	str	r3, [r1, #4]
 8002824:	e006      	b.n	8002834 <HAL_GPIO_Init+0x284>
        }
        else
        {
          CLEAR_BIT(EXTI->EMR, iocurrent);
 8002826:	4b16      	ldr	r3, [pc, #88]	@ (8002880 <HAL_GPIO_Init+0x2d0>)
 8002828:	685a      	ldr	r2, [r3, #4]
 800282a:	69bb      	ldr	r3, [r7, #24]
 800282c:	43db      	mvns	r3, r3
 800282e:	4914      	ldr	r1, [pc, #80]	@ (8002880 <HAL_GPIO_Init+0x2d0>)
 8002830:	4013      	ands	r3, r2
 8002832:	604b      	str	r3, [r1, #4]
        }

        /* Configure the interrupt mask */
        if ((GPIO_Init->Mode & GPIO_MODE_IT) == GPIO_MODE_IT)
 8002834:	683b      	ldr	r3, [r7, #0]
 8002836:	685b      	ldr	r3, [r3, #4]
 8002838:	f403 3380 	and.w	r3, r3, #65536	@ 0x10000
 800283c:	2b00      	cmp	r3, #0
 800283e:	d021      	beq.n	8002884 <HAL_GPIO_Init+0x2d4>
        {
          SET_BIT(EXTI->IMR, iocurrent);
 8002840:	4b0f      	ldr	r3, [pc, #60]	@ (8002880 <HAL_GPIO_Init+0x2d0>)
 8002842:	681a      	ldr	r2, [r3, #0]
 8002844:	490e      	ldr	r1, [pc, #56]	@ (8002880 <HAL_GPIO_Init+0x2d0>)
 8002846:	69bb      	ldr	r3, [r7, #24]
 8002848:	4313      	orrs	r3, r2
 800284a:	600b      	str	r3, [r1, #0]
 800284c:	e021      	b.n	8002892 <HAL_GPIO_Init+0x2e2>
 800284e:	bf00      	nop
 8002850:	10320000 	.word	0x10320000
 8002854:	10310000 	.word	0x10310000
 8002858:	10220000 	.word	0x10220000
 800285c:	10210000 	.word	0x10210000
 8002860:	10120000 	.word	0x10120000
 8002864:	10110000 	.word	0x10110000
 8002868:	40021000 	.word	0x40021000
 800286c:	40010000 	.word	0x40010000
 8002870:	40010800 	.word	0x40010800
 8002874:	40010c00 	.word	0x40010c00
 8002878:	40011000 	.word	0x40011000
 800287c:	40011400 	.word	0x40011400
 8002880:	40010400 	.word	0x40010400
        }
        else
        {
          CLEAR_BIT(EXTI->IMR, iocurrent);
 8002884:	4b0b      	ldr	r3, [pc, #44]	@ (80028b4 <HAL_GPIO_Init+0x304>)
 8002886:	681a      	ldr	r2, [r3, #0]
 8002888:	69bb      	ldr	r3, [r7, #24]
 800288a:	43db      	mvns	r3, r3
 800288c:	4909      	ldr	r1, [pc, #36]	@ (80028b4 <HAL_GPIO_Init+0x304>)
 800288e:	4013      	ands	r3, r2
 8002890:	600b      	str	r3, [r1, #0]
        }
      }
    }

	position++;
 8002892:	6a7b      	ldr	r3, [r7, #36]	@ 0x24
 8002894:	3301      	adds	r3, #1
 8002896:	627b      	str	r3, [r7, #36]	@ 0x24
  while (((GPIO_Init->Pin) >> position) != 0x00u)
 8002898:	683b      	ldr	r3, [r7, #0]
 800289a:	681a      	ldr	r2, [r3, #0]
 800289c:	6a7b      	ldr	r3, [r7, #36]	@ 0x24
 800289e:	fa22 f303 	lsr.w	r3, r2, r3
 80028a2:	2b00      	cmp	r3, #0
 80028a4:	f47f ae8e 	bne.w	80025c4 <HAL_GPIO_Init+0x14>
  }
}
 80028a8:	bf00      	nop
 80028aa:	bf00      	nop
 80028ac:	372c      	adds	r7, #44	@ 0x2c
 80028ae:	46bd      	mov	sp, r7
 80028b0:	bc80      	pop	{r7}
 80028b2:	4770      	bx	lr
 80028b4:	40010400 	.word	0x40010400

080028b8 <HAL_GPIO_WritePin>:
  *            @arg GPIO_PIN_RESET: to clear the port pin
  *            @arg GPIO_PIN_SET: to set the port pin
  * @retval None
  */
void HAL_GPIO_WritePin(GPIO_TypeDef *GPIOx, uint16_t GPIO_Pin, GPIO_PinState PinState)
{
 80028b8:	b480      	push	{r7}
 80028ba:	b083      	sub	sp, #12
 80028bc:	af00      	add	r7, sp, #0
 80028be:	6078      	str	r0, [r7, #4]
 80028c0:	460b      	mov	r3, r1
 80028c2:	807b      	strh	r3, [r7, #2]
 80028c4:	4613      	mov	r3, r2
 80028c6:	707b      	strb	r3, [r7, #1]
  /* Check the parameters */
  assert_param(IS_GPIO_PIN(GPIO_Pin));
  assert_param(IS_GPIO_PIN_ACTION(PinState));

  if (PinState != GPIO_PIN_RESET)
 80028c8:	787b      	ldrb	r3, [r7, #1]
 80028ca:	2b00      	cmp	r3, #0
 80028cc:	d003      	beq.n	80028d6 <HAL_GPIO_WritePin+0x1e>
  {
    GPIOx->BSRR = GPIO_Pin;
 80028ce:	887a      	ldrh	r2, [r7, #2]
 80028d0:	687b      	ldr	r3, [r7, #4]
 80028d2:	611a      	str	r2, [r3, #16]
  }
  else
  {
    GPIOx->BSRR = (uint32_t)GPIO_Pin << 16u;
  }
}
 80028d4:	e003      	b.n	80028de <HAL_GPIO_WritePin+0x26>
    GPIOx->BSRR = (uint32_t)GPIO_Pin << 16u;
 80028d6:	887b      	ldrh	r3, [r7, #2]
 80028d8:	041a      	lsls	r2, r3, #16
 80028da:	687b      	ldr	r3, [r7, #4]
 80028dc:	611a      	str	r2, [r3, #16]
}
 80028de:	bf00      	nop
 80028e0:	370c      	adds	r7, #12
 80028e2:	46bd      	mov	sp, r7
 80028e4:	bc80      	pop	{r7}
 80028e6:	4770      	bx	lr

080028e8 <HAL_RCC_OscConfig>:
  *         supported by this macro. User should request a transition to HSE Off
  *         first and then HSE On or HSE Bypass.
  * @retval HAL status
  */
HAL_StatusTypeDef HAL_RCC_OscConfig(RCC_OscInitTypeDef  *RCC_OscInitStruct)
{
 80028e8:	b580      	push	{r7, lr}
 80028ea:	b086      	sub	sp, #24
 80028ec:	af00      	add	r7, sp, #0
 80028ee:	6078      	str	r0, [r7, #4]
  uint32_t tickstart;
  uint32_t pll_config;

  /* Check Null pointer */
  if (RCC_OscInitStruct == NULL)
 80028f0:	687b      	ldr	r3, [r7, #4]
 80028f2:	2b00      	cmp	r3, #0
 80028f4:	d101      	bne.n	80028fa <HAL_RCC_OscConfig+0x12>
  {
    return HAL_ERROR;
 80028f6:	2301      	movs	r3, #1
 80028f8:	e272      	b.n	8002de0 <HAL_RCC_OscConfig+0x4f8>

  /* Check the parameters */
  assert_param(IS_RCC_OSCILLATORTYPE(RCC_OscInitStruct->OscillatorType));

  /*------------------------------- HSE Configuration ------------------------*/
  if (((RCC_OscInitStruct->OscillatorType) & RCC_OSCILLATORTYPE_HSE) == RCC_OSCILLATORTYPE_HSE)
 80028fa:	687b      	ldr	r3, [r7, #4]
 80028fc:	681b      	ldr	r3, [r3, #0]
 80028fe:	f003 0301 	and.w	r3, r3, #1
 8002902:	2b00      	cmp	r3, #0
 8002904:	f000 8087 	beq.w	8002a16 <HAL_RCC_OscConfig+0x12e>
  {
    /* Check the parameters */
    assert_param(IS_RCC_HSE(RCC_OscInitStruct->HSEState));

    /* When the HSE is used as system clock or clock source for PLL in these cases it is not allowed to be disabled */
    if ((__HAL_RCC_GET_SYSCLK_SOURCE() == RCC_SYSCLKSOURCE_STATUS_HSE)
 8002908:	4b92      	ldr	r3, [pc, #584]	@ (8002b54 <HAL_RCC_OscConfig+0x26c>)
 800290a:	685b      	ldr	r3, [r3, #4]
 800290c:	f003 030c 	and.w	r3, r3, #12
 8002910:	2b04      	cmp	r3, #4
 8002912:	d00c      	beq.n	800292e <HAL_RCC_OscConfig+0x46>
        || ((__HAL_RCC_GET_SYSCLK_SOURCE() == RCC_SYSCLKSOURCE_STATUS_PLLCLK) && (__HAL_RCC_GET_PLL_OSCSOURCE() == RCC_PLLSOURCE_HSE)))
 8002914:	4b8f      	ldr	r3, [pc, #572]	@ (8002b54 <HAL_RCC_OscConfig+0x26c>)
 8002916:	685b      	ldr	r3, [r3, #4]
 8002918:	f003 030c 	and.w	r3, r3, #12
 800291c:	2b08      	cmp	r3, #8
 800291e:	d112      	bne.n	8002946 <HAL_RCC_OscConfig+0x5e>
 8002920:	4b8c      	ldr	r3, [pc, #560]	@ (8002b54 <HAL_RCC_OscConfig+0x26c>)
 8002922:	685b      	ldr	r3, [r3, #4]
 8002924:	f403 3380 	and.w	r3, r3, #65536	@ 0x10000
 8002928:	f5b3 3f80 	cmp.w	r3, #65536	@ 0x10000
 800292c:	d10b      	bne.n	8002946 <HAL_RCC_OscConfig+0x5e>
    {
      if ((__HAL_RCC_GET_FLAG(RCC_FLAG_HSERDY) != RESET) && (RCC_OscInitStruct->HSEState == RCC_HSE_OFF))
 800292e:	4b89      	ldr	r3, [pc, #548]	@ (8002b54 <HAL_RCC_OscConfig+0x26c>)
 8002930:	681b      	ldr	r3, [r3, #0]
 8002932:	f403 3300 	and.w	r3, r3, #131072	@ 0x20000
 8002936:	2b00      	cmp	r3, #0
 8002938:	d06c      	beq.n	8002a14 <HAL_RCC_OscConfig+0x12c>
 800293a:	687b      	ldr	r3, [r7, #4]
 800293c:	685b      	ldr	r3, [r3, #4]
 800293e:	2b00      	cmp	r3, #0
 8002940:	d168      	bne.n	8002a14 <HAL_RCC_OscConfig+0x12c>
      {
        return HAL_ERROR;
 8002942:	2301      	movs	r3, #1
 8002944:	e24c      	b.n	8002de0 <HAL_RCC_OscConfig+0x4f8>
      }
    }
    else
    {
      /* Set the new HSE configuration ---------------------------------------*/
      __HAL_RCC_HSE_CONFIG(RCC_OscInitStruct->HSEState);
 8002946:	687b      	ldr	r3, [r7, #4]
 8002948:	685b      	ldr	r3, [r3, #4]
 800294a:	f5b3 3f80 	cmp.w	r3, #65536	@ 0x10000
 800294e:	d106      	bne.n	800295e <HAL_RCC_OscConfig+0x76>
 8002950:	4b80      	ldr	r3, [pc, #512]	@ (8002b54 <HAL_RCC_OscConfig+0x26c>)
 8002952:	681b      	ldr	r3, [r3, #0]
 8002954:	4a7f      	ldr	r2, [pc, #508]	@ (8002b54 <HAL_RCC_OscConfig+0x26c>)
 8002956:	f443 3380 	orr.w	r3, r3, #65536	@ 0x10000
 800295a:	6013      	str	r3, [r2, #0]
 800295c:	e02e      	b.n	80029bc <HAL_RCC_OscConfig+0xd4>
 800295e:	687b      	ldr	r3, [r7, #4]
 8002960:	685b      	ldr	r3, [r3, #4]
 8002962:	2b00      	cmp	r3, #0
 8002964:	d10c      	bne.n	8002980 <HAL_RCC_OscConfig+0x98>
 8002966:	4b7b      	ldr	r3, [pc, #492]	@ (8002b54 <HAL_RCC_OscConfig+0x26c>)
 8002968:	681b      	ldr	r3, [r3, #0]
 800296a:	4a7a      	ldr	r2, [pc, #488]	@ (8002b54 <HAL_RCC_OscConfig+0x26c>)
 800296c:	f423 3380 	bic.w	r3, r3, #65536	@ 0x10000
 8002970:	6013      	str	r3, [r2, #0]
 8002972:	4b78      	ldr	r3, [pc, #480]	@ (8002b54 <HAL_RCC_OscConfig+0x26c>)
 8002974:	681b      	ldr	r3, [r3, #0]
 8002976:	4a77      	ldr	r2, [pc, #476]	@ (8002b54 <HAL_RCC_OscConfig+0x26c>)
 8002978:	f423 2380 	bic.w	r3, r3, #262144	@ 0x40000
 800297c:	6013      	str	r3, [r2, #0]
 800297e:	e01d      	b.n	80029bc <HAL_RCC_OscConfig+0xd4>
 8002980:	687b      	ldr	r3, [r7, #4]
 8002982:	685b      	ldr	r3, [r3, #4]
 8002984:	f5b3 2fa0 	cmp.w	r3, #327680	@ 0x50000
 8002988:	d10c      	bne.n	80029a4 <HAL_RCC_OscConfig+0xbc>
 800298a:	4b72      	ldr	r3, [pc, #456]	@ (8002b54 <HAL_RCC_OscConfig+0x26c>)
 800298c:	681b      	ldr	r3, [r3, #0]
 800298e:	4a71      	ldr	r2, [pc, #452]	@ (8002b54 <HAL_RCC_OscConfig+0x26c>)
 8002990:	f443 2380 	orr.w	r3, r3, #262144	@ 0x40000
 8002994:	6013      	str	r3, [r2, #0]
 8002996:	4b6f      	ldr	r3, [pc, #444]	@ (8002b54 <HAL_RCC_OscConfig+0x26c>)
 8002998:	681b      	ldr	r3, [r3, #0]
 800299a:	4a6e      	ldr	r2, [pc, #440]	@ (8002b54 <HAL_RCC_OscConfig+0x26c>)
 800299c:	f443 3380 	orr.w	r3, r3, #65536	@ 0x10000
 80029a0:	6013      	str	r3, [r2, #0]
 80029a2:	e00b      	b.n	80029bc <HAL_RCC_OscConfig+0xd4>
 80029a4:	4b6b      	ldr	r3, [pc, #428]	@ (8002b54 <HAL_RCC_OscConfig+0x26c>)
 80029a6:	681b      	ldr	r3, [r3, #0]
 80029a8:	4a6a      	ldr	r2, [pc, #424]	@ (8002b54 <HAL_RCC_OscConfig+0x26c>)
 80029aa:	f423 3380 	bic.w	r3, r3, #65536	@ 0x10000
 80029ae:	6013      	str	r3, [r2, #0]
 80029b0:	4b68      	ldr	r3, [pc, #416]	@ (8002b54 <HAL_RCC_OscConfig+0x26c>)
 80029b2:	681b      	ldr	r3, [r3, #0]
 80029b4:	4a67      	ldr	r2, [pc, #412]	@ (8002b54 <HAL_RCC_OscConfig+0x26c>)
 80029b6:	f423 2380 	bic.w	r3, r3, #262144	@ 0x40000
 80029ba:	6013      	str	r3, [r2, #0]


      /* Check the HSE State */
      if (RCC_OscInitStruct->HSEState != RCC_HSE_OFF)
 80029bc:	687b      	ldr	r3, [r7, #4]
 80029be:	685b      	ldr	r3, [r3, #4]
 80029c0:	2b00      	cmp	r3, #0
 80029c2:	d013      	beq.n	80029ec <HAL_RCC_OscConfig+0x104>
      {
        /* Get Start Tick */
        tickstart = HAL_GetTick();
 80029c4:	f7fe ff34 	bl	8001830 <HAL_GetTick>
 80029c8:	6138      	str	r0, [r7, #16]

        /* Wait till HSE is ready */
        while (__HAL_RCC_GET_FLAG(RCC_FLAG_HSERDY) == RESET)
 80029ca:	e008      	b.n	80029de <HAL_RCC_OscConfig+0xf6>
        {
          if ((HAL_GetTick() - tickstart) > HSE_TIMEOUT_VALUE)
 80029cc:	f7fe ff30 	bl	8001830 <HAL_GetTick>
 80029d0:	4602      	mov	r2, r0
 80029d2:	693b      	ldr	r3, [r7, #16]
 80029d4:	1ad3      	subs	r3, r2, r3
 80029d6:	2b64      	cmp	r3, #100	@ 0x64
 80029d8:	d901      	bls.n	80029de <HAL_RCC_OscConfig+0xf6>
          {
            return HAL_TIMEOUT;
 80029da:	2303      	movs	r3, #3
 80029dc:	e200      	b.n	8002de0 <HAL_RCC_OscConfig+0x4f8>
        while (__HAL_RCC_GET_FLAG(RCC_FLAG_HSERDY) == RESET)
 80029de:	4b5d      	ldr	r3, [pc, #372]	@ (8002b54 <HAL_RCC_OscConfig+0x26c>)
 80029e0:	681b      	ldr	r3, [r3, #0]
 80029e2:	f403 3300 	and.w	r3, r3, #131072	@ 0x20000
 80029e6:	2b00      	cmp	r3, #0
 80029e8:	d0f0      	beq.n	80029cc <HAL_RCC_OscConfig+0xe4>
 80029ea:	e014      	b.n	8002a16 <HAL_RCC_OscConfig+0x12e>
        }
      }
      else
      {
        /* Get Start Tick */
        tickstart = HAL_GetTick();
 80029ec:	f7fe ff20 	bl	8001830 <HAL_GetTick>
 80029f0:	6138      	str	r0, [r7, #16]

        /* Wait till HSE is disabled */
        while (__HAL_RCC_GET_FLAG(RCC_FLAG_HSERDY) != RESET)
 80029f2:	e008      	b.n	8002a06 <HAL_RCC_OscConfig+0x11e>
        {
          if ((HAL_GetTick() - tickstart) > HSE_TIMEOUT_VALUE)
 80029f4:	f7fe ff1c 	bl	8001830 <HAL_GetTick>
 80029f8:	4602      	mov	r2, r0
 80029fa:	693b      	ldr	r3, [r7, #16]
 80029fc:	1ad3      	subs	r3, r2, r3
 80029fe:	2b64      	cmp	r3, #100	@ 0x64
 8002a00:	d901      	bls.n	8002a06 <HAL_RCC_OscConfig+0x11e>
          {
            return HAL_TIMEOUT;
 8002a02:	2303      	movs	r3, #3
 8002a04:	e1ec      	b.n	8002de0 <HAL_RCC_OscConfig+0x4f8>
        while (__HAL_RCC_GET_FLAG(RCC_FLAG_HSERDY) != RESET)
 8002a06:	4b53      	ldr	r3, [pc, #332]	@ (8002b54 <HAL_RCC_OscConfig+0x26c>)
 8002a08:	681b      	ldr	r3, [r3, #0]
 8002a0a:	f403 3300 	and.w	r3, r3, #131072	@ 0x20000
 8002a0e:	2b00      	cmp	r3, #0
 8002a10:	d1f0      	bne.n	80029f4 <HAL_RCC_OscConfig+0x10c>
 8002a12:	e000      	b.n	8002a16 <HAL_RCC_OscConfig+0x12e>
      if ((__HAL_RCC_GET_FLAG(RCC_FLAG_HSERDY) != RESET) && (RCC_OscInitStruct->HSEState == RCC_HSE_OFF))
 8002a14:	bf00      	nop
        }
      }
    }
  }
  /*----------------------------- HSI Configuration --------------------------*/
  if (((RCC_OscInitStruct->OscillatorType) & RCC_OSCILLATORTYPE_HSI) == RCC_OSCILLATORTYPE_HSI)
 8002a16:	687b      	ldr	r3, [r7, #4]
 8002a18:	681b      	ldr	r3, [r3, #0]
 8002a1a:	f003 0302 	and.w	r3, r3, #2
 8002a1e:	2b00      	cmp	r3, #0
 8002a20:	d063      	beq.n	8002aea <HAL_RCC_OscConfig+0x202>
    /* Check the parameters */
    assert_param(IS_RCC_HSI(RCC_OscInitStruct->HSIState));
    assert_param(IS_RCC_CALIBRATION_VALUE(RCC_OscInitStruct->HSICalibrationValue));

    /* Check if HSI is used as system clock or as PLL source when PLL is selected as system clock */
    if ((__HAL_RCC_GET_SYSCLK_SOURCE() == RCC_SYSCLKSOURCE_STATUS_HSI)
 8002a22:	4b4c      	ldr	r3, [pc, #304]	@ (8002b54 <HAL_RCC_OscConfig+0x26c>)
 8002a24:	685b      	ldr	r3, [r3, #4]
 8002a26:	f003 030c 	and.w	r3, r3, #12
 8002a2a:	2b00      	cmp	r3, #0
 8002a2c:	d00b      	beq.n	8002a46 <HAL_RCC_OscConfig+0x15e>
        || ((__HAL_RCC_GET_SYSCLK_SOURCE() == RCC_SYSCLKSOURCE_STATUS_PLLCLK) && (__HAL_RCC_GET_PLL_OSCSOURCE() == RCC_PLLSOURCE_HSI_DIV2)))
 8002a2e:	4b49      	ldr	r3, [pc, #292]	@ (8002b54 <HAL_RCC_OscConfig+0x26c>)
 8002a30:	685b      	ldr	r3, [r3, #4]
 8002a32:	f003 030c 	and.w	r3, r3, #12
 8002a36:	2b08      	cmp	r3, #8
 8002a38:	d11c      	bne.n	8002a74 <HAL_RCC_OscConfig+0x18c>
 8002a3a:	4b46      	ldr	r3, [pc, #280]	@ (8002b54 <HAL_RCC_OscConfig+0x26c>)
 8002a3c:	685b      	ldr	r3, [r3, #4]
 8002a3e:	f403 3380 	and.w	r3, r3, #65536	@ 0x10000
 8002a42:	2b00      	cmp	r3, #0
 8002a44:	d116      	bne.n	8002a74 <HAL_RCC_OscConfig+0x18c>
    {
      /* When HSI is used as system clock it will not disabled */
      if ((__HAL_RCC_GET_FLAG(RCC_FLAG_HSIRDY) != RESET) && (RCC_OscInitStruct->HSIState != RCC_HSI_ON))
 8002a46:	4b43      	ldr	r3, [pc, #268]	@ (8002b54 <HAL_RCC_OscConfig+0x26c>)
 8002a48:	681b      	ldr	r3, [r3, #0]
 8002a4a:	f003 0302 	and.w	r3, r3, #2
 8002a4e:	2b00      	cmp	r3, #0
 8002a50:	d005      	beq.n	8002a5e <HAL_RCC_OscConfig+0x176>
 8002a52:	687b      	ldr	r3, [r7, #4]
 8002a54:	691b      	ldr	r3, [r3, #16]
 8002a56:	2b01      	cmp	r3, #1
 8002a58:	d001      	beq.n	8002a5e <HAL_RCC_OscConfig+0x176>
      {
        return HAL_ERROR;
 8002a5a:	2301      	movs	r3, #1
 8002a5c:	e1c0      	b.n	8002de0 <HAL_RCC_OscConfig+0x4f8>
      }
      /* Otherwise, just the calibration is allowed */
      else
      {
        /* Adjusts the Internal High Speed oscillator (HSI) calibration value.*/
        __HAL_RCC_HSI_CALIBRATIONVALUE_ADJUST(RCC_OscInitStruct->HSICalibrationValue);
 8002a5e:	4b3d      	ldr	r3, [pc, #244]	@ (8002b54 <HAL_RCC_OscConfig+0x26c>)
 8002a60:	681b      	ldr	r3, [r3, #0]
 8002a62:	f023 02f8 	bic.w	r2, r3, #248	@ 0xf8
 8002a66:	687b      	ldr	r3, [r7, #4]
 8002a68:	695b      	ldr	r3, [r3, #20]
 8002a6a:	00db      	lsls	r3, r3, #3
 8002a6c:	4939      	ldr	r1, [pc, #228]	@ (8002b54 <HAL_RCC_OscConfig+0x26c>)
 8002a6e:	4313      	orrs	r3, r2
 8002a70:	600b      	str	r3, [r1, #0]
      if ((__HAL_RCC_GET_FLAG(RCC_FLAG_HSIRDY) != RESET) && (RCC_OscInitStruct->HSIState != RCC_HSI_ON))
 8002a72:	e03a      	b.n	8002aea <HAL_RCC_OscConfig+0x202>
      }
    }
    else
    {
      /* Check the HSI State */
      if (RCC_OscInitStruct->HSIState != RCC_HSI_OFF)
 8002a74:	687b      	ldr	r3, [r7, #4]
 8002a76:	691b      	ldr	r3, [r3, #16]
 8002a78:	2b00      	cmp	r3, #0
 8002a7a:	d020      	beq.n	8002abe <HAL_RCC_OscConfig+0x1d6>
      {
        /* Enable the Internal High Speed oscillator (HSI). */
        __HAL_RCC_HSI_ENABLE();
 8002a7c:	4b36      	ldr	r3, [pc, #216]	@ (8002b58 <HAL_RCC_OscConfig+0x270>)
 8002a7e:	2201      	movs	r2, #1
 8002a80:	601a      	str	r2, [r3, #0]

        /* Get Start Tick */
        tickstart = HAL_GetTick();
 8002a82:	f7fe fed5 	bl	8001830 <HAL_GetTick>
 8002a86:	6138      	str	r0, [r7, #16]

        /* Wait till HSI is ready */
        while (__HAL_RCC_GET_FLAG(RCC_FLAG_HSIRDY) == RESET)
 8002a88:	e008      	b.n	8002a9c <HAL_RCC_OscConfig+0x1b4>
        {
          if ((HAL_GetTick() - tickstart) > HSI_TIMEOUT_VALUE)
 8002a8a:	f7fe fed1 	bl	8001830 <HAL_GetTick>
 8002a8e:	4602      	mov	r2, r0
 8002a90:	693b      	ldr	r3, [r7, #16]
 8002a92:	1ad3      	subs	r3, r2, r3
 8002a94:	2b02      	cmp	r3, #2
 8002a96:	d901      	bls.n	8002a9c <HAL_RCC_OscConfig+0x1b4>
          {
            return HAL_TIMEOUT;
 8002a98:	2303      	movs	r3, #3
 8002a9a:	e1a1      	b.n	8002de0 <HAL_RCC_OscConfig+0x4f8>
        while (__HAL_RCC_GET_FLAG(RCC_FLAG_HSIRDY) == RESET)
 8002a9c:	4b2d      	ldr	r3, [pc, #180]	@ (8002b54 <HAL_RCC_OscConfig+0x26c>)
 8002a9e:	681b      	ldr	r3, [r3, #0]
 8002aa0:	f003 0302 	and.w	r3, r3, #2
 8002aa4:	2b00      	cmp	r3, #0
 8002aa6:	d0f0      	beq.n	8002a8a <HAL_RCC_OscConfig+0x1a2>
          }
        }

        /* Adjusts the Internal High Speed oscillator (HSI) calibration value.*/
        __HAL_RCC_HSI_CALIBRATIONVALUE_ADJUST(RCC_OscInitStruct->HSICalibrationValue);
 8002aa8:	4b2a      	ldr	r3, [pc, #168]	@ (8002b54 <HAL_RCC_OscConfig+0x26c>)
 8002aaa:	681b      	ldr	r3, [r3, #0]
 8002aac:	f023 02f8 	bic.w	r2, r3, #248	@ 0xf8
 8002ab0:	687b      	ldr	r3, [r7, #4]
 8002ab2:	695b      	ldr	r3, [r3, #20]
 8002ab4:	00db      	lsls	r3, r3, #3
 8002ab6:	4927      	ldr	r1, [pc, #156]	@ (8002b54 <HAL_RCC_OscConfig+0x26c>)
 8002ab8:	4313      	orrs	r3, r2
 8002aba:	600b      	str	r3, [r1, #0]
 8002abc:	e015      	b.n	8002aea <HAL_RCC_OscConfig+0x202>
      }
      else
      {
        /* Disable the Internal High Speed oscillator (HSI). */
        __HAL_RCC_HSI_DISABLE();
 8002abe:	4b26      	ldr	r3, [pc, #152]	@ (8002b58 <HAL_RCC_OscConfig+0x270>)
 8002ac0:	2200      	movs	r2, #0
 8002ac2:	601a      	str	r2, [r3, #0]

        /* Get Start Tick */
        tickstart = HAL_GetTick();
 8002ac4:	f7fe feb4 	bl	8001830 <HAL_GetTick>
 8002ac8:	6138      	str	r0, [r7, #16]

        /* Wait till HSI is disabled */
        while (__HAL_RCC_GET_FLAG(RCC_FLAG_HSIRDY) != RESET)
 8002aca:	e008      	b.n	8002ade <HAL_RCC_OscConfig+0x1f6>
        {
          if ((HAL_GetTick() - tickstart) > HSI_TIMEOUT_VALUE)
 8002acc:	f7fe feb0 	bl	8001830 <HAL_GetTick>
 8002ad0:	4602      	mov	r2, r0
 8002ad2:	693b      	ldr	r3, [r7, #16]
 8002ad4:	1ad3      	subs	r3, r2, r3
 8002ad6:	2b02      	cmp	r3, #2
 8002ad8:	d901      	bls.n	8002ade <HAL_RCC_OscConfig+0x1f6>
          {
            return HAL_TIMEOUT;
 8002ada:	2303      	movs	r3, #3
 8002adc:	e180      	b.n	8002de0 <HAL_RCC_OscConfig+0x4f8>
        while (__HAL_RCC_GET_FLAG(RCC_FLAG_HSIRDY) != RESET)
 8002ade:	4b1d      	ldr	r3, [pc, #116]	@ (8002b54 <HAL_RCC_OscConfig+0x26c>)
 8002ae0:	681b      	ldr	r3, [r3, #0]
 8002ae2:	f003 0302 	and.w	r3, r3, #2
 8002ae6:	2b00      	cmp	r3, #0
 8002ae8:	d1f0      	bne.n	8002acc <HAL_RCC_OscConfig+0x1e4>
        }
      }
    }
  }
  /*------------------------------ LSI Configuration -------------------------*/
  if (((RCC_OscInitStruct->OscillatorType) & RCC_OSCILLATORTYPE_LSI) == RCC_OSCILLATORTYPE_LSI)
 8002aea:	687b      	ldr	r3, [r7, #4]
 8002aec:	681b      	ldr	r3, [r3, #0]
 8002aee:	f003 0308 	and.w	r3, r3, #8
 8002af2:	2b00      	cmp	r3, #0
 8002af4:	d03a      	beq.n	8002b6c <HAL_RCC_OscConfig+0x284>
  {
    /* Check the parameters */
    assert_param(IS_RCC_LSI(RCC_OscInitStruct->LSIState));

    /* Check the LSI State */
    if (RCC_OscInitStruct->LSIState != RCC_LSI_OFF)
 8002af6:	687b      	ldr	r3, [r7, #4]
 8002af8:	699b      	ldr	r3, [r3, #24]
 8002afa:	2b00      	cmp	r3, #0
 8002afc:	d019      	beq.n	8002b32 <HAL_RCC_OscConfig+0x24a>
    {
      /* Enable the Internal Low Speed oscillator (LSI). */
      __HAL_RCC_LSI_ENABLE();
 8002afe:	4b17      	ldr	r3, [pc, #92]	@ (8002b5c <HAL_RCC_OscConfig+0x274>)
 8002b00:	2201      	movs	r2, #1
 8002b02:	601a      	str	r2, [r3, #0]

      /* Get Start Tick */
      tickstart = HAL_GetTick();
 8002b04:	f7fe fe94 	bl	8001830 <HAL_GetTick>
 8002b08:	6138      	str	r0, [r7, #16]

      /* Wait till LSI is ready */
      while (__HAL_RCC_GET_FLAG(RCC_FLAG_LSIRDY) == RESET)
 8002b0a:	e008      	b.n	8002b1e <HAL_RCC_OscConfig+0x236>
      {
        if ((HAL_GetTick() - tickstart) > LSI_TIMEOUT_VALUE)
 8002b0c:	f7fe fe90 	bl	8001830 <HAL_GetTick>
 8002b10:	4602      	mov	r2, r0
 8002b12:	693b      	ldr	r3, [r7, #16]
 8002b14:	1ad3      	subs	r3, r2, r3
 8002b16:	2b02      	cmp	r3, #2
 8002b18:	d901      	bls.n	8002b1e <HAL_RCC_OscConfig+0x236>
        {
          return HAL_TIMEOUT;
 8002b1a:	2303      	movs	r3, #3
 8002b1c:	e160      	b.n	8002de0 <HAL_RCC_OscConfig+0x4f8>
      while (__HAL_RCC_GET_FLAG(RCC_FLAG_LSIRDY) == RESET)
 8002b1e:	4b0d      	ldr	r3, [pc, #52]	@ (8002b54 <HAL_RCC_OscConfig+0x26c>)
 8002b20:	6a5b      	ldr	r3, [r3, #36]	@ 0x24
 8002b22:	f003 0302 	and.w	r3, r3, #2
 8002b26:	2b00      	cmp	r3, #0
 8002b28:	d0f0      	beq.n	8002b0c <HAL_RCC_OscConfig+0x224>
        }
      }
      /*  To have a fully stabilized clock in the specified range, a software delay of 1ms
          should be added.*/
      RCC_Delay(1);
 8002b2a:	2001      	movs	r0, #1
 8002b2c:	f000 fa9c 	bl	8003068 <RCC_Delay>
 8002b30:	e01c      	b.n	8002b6c <HAL_RCC_OscConfig+0x284>
    }
    else
    {
      /* Disable the Internal Low Speed oscillator (LSI). */
      __HAL_RCC_LSI_DISABLE();
 8002b32:	4b0a      	ldr	r3, [pc, #40]	@ (8002b5c <HAL_RCC_OscConfig+0x274>)
 8002b34:	2200      	movs	r2, #0
 8002b36:	601a      	str	r2, [r3, #0]

      /* Get Start Tick */
      tickstart = HAL_GetTick();
 8002b38:	f7fe fe7a 	bl	8001830 <HAL_GetTick>
 8002b3c:	6138      	str	r0, [r7, #16]

      /* Wait till LSI is disabled */
      while (__HAL_RCC_GET_FLAG(RCC_FLAG_LSIRDY) != RESET)
 8002b3e:	e00f      	b.n	8002b60 <HAL_RCC_OscConfig+0x278>
      {
        if ((HAL_GetTick() - tickstart) > LSI_TIMEOUT_VALUE)
 8002b40:	f7fe fe76 	bl	8001830 <HAL_GetTick>
 8002b44:	4602      	mov	r2, r0
 8002b46:	693b      	ldr	r3, [r7, #16]
 8002b48:	1ad3      	subs	r3, r2, r3
 8002b4a:	2b02      	cmp	r3, #2
 8002b4c:	d908      	bls.n	8002b60 <HAL_RCC_OscConfig+0x278>
        {
          return HAL_TIMEOUT;
 8002b4e:	2303      	movs	r3, #3
 8002b50:	e146      	b.n	8002de0 <HAL_RCC_OscConfig+0x4f8>
 8002b52:	bf00      	nop
 8002b54:	40021000 	.word	0x40021000
 8002b58:	42420000 	.word	0x42420000
 8002b5c:	42420480 	.word	0x42420480
      while (__HAL_RCC_GET_FLAG(RCC_FLAG_LSIRDY) != RESET)
 8002b60:	4b92      	ldr	r3, [pc, #584]	@ (8002dac <HAL_RCC_OscConfig+0x4c4>)
 8002b62:	6a5b      	ldr	r3, [r3, #36]	@ 0x24
 8002b64:	f003 0302 	and.w	r3, r3, #2
 8002b68:	2b00      	cmp	r3, #0
 8002b6a:	d1e9      	bne.n	8002b40 <HAL_RCC_OscConfig+0x258>
        }
      }
    }
  }
  /*------------------------------ LSE Configuration -------------------------*/
  if (((RCC_OscInitStruct->OscillatorType) & RCC_OSCILLATORTYPE_LSE) == RCC_OSCILLATORTYPE_LSE)
 8002b6c:	687b      	ldr	r3, [r7, #4]
 8002b6e:	681b      	ldr	r3, [r3, #0]
 8002b70:	f003 0304 	and.w	r3, r3, #4
 8002b74:	2b00      	cmp	r3, #0
 8002b76:	f000 80a6 	beq.w	8002cc6 <HAL_RCC_OscConfig+0x3de>
  {
    FlagStatus       pwrclkchanged = RESET;
 8002b7a:	2300      	movs	r3, #0
 8002b7c:	75fb      	strb	r3, [r7, #23]
    /* Check the parameters */
    assert_param(IS_RCC_LSE(RCC_OscInitStruct->LSEState));

    /* Update LSE configuration in Backup Domain control register    */
    /* Requires to enable write access to Backup Domain of necessary */
    if (__HAL_RCC_PWR_IS_CLK_DISABLED())
 8002b7e:	4b8b      	ldr	r3, [pc, #556]	@ (8002dac <HAL_RCC_OscConfig+0x4c4>)
 8002b80:	69db      	ldr	r3, [r3, #28]
 8002b82:	f003 5380 	and.w	r3, r3, #268435456	@ 0x10000000
 8002b86:	2b00      	cmp	r3, #0
 8002b88:	d10d      	bne.n	8002ba6 <HAL_RCC_OscConfig+0x2be>
    {
      __HAL_RCC_PWR_CLK_ENABLE();
 8002b8a:	4b88      	ldr	r3, [pc, #544]	@ (8002dac <HAL_RCC_OscConfig+0x4c4>)
 8002b8c:	69db      	ldr	r3, [r3, #28]
 8002b8e:	4a87      	ldr	r2, [pc, #540]	@ (8002dac <HAL_RCC_OscConfig+0x4c4>)
 8002b90:	f043 5380 	orr.w	r3, r3, #268435456	@ 0x10000000
 8002b94:	61d3      	str	r3, [r2, #28]
 8002b96:	4b85      	ldr	r3, [pc, #532]	@ (8002dac <HAL_RCC_OscConfig+0x4c4>)
 8002b98:	69db      	ldr	r3, [r3, #28]
 8002b9a:	f003 5380 	and.w	r3, r3, #268435456	@ 0x10000000
 8002b9e:	60bb      	str	r3, [r7, #8]
 8002ba0:	68bb      	ldr	r3, [r7, #8]
      pwrclkchanged = SET;
 8002ba2:	2301      	movs	r3, #1
 8002ba4:	75fb      	strb	r3, [r7, #23]
    }

    if (HAL_IS_BIT_CLR(PWR->CR, PWR_CR_DBP))
 8002ba6:	4b82      	ldr	r3, [pc, #520]	@ (8002db0 <HAL_RCC_OscConfig+0x4c8>)
 8002ba8:	681b      	ldr	r3, [r3, #0]
 8002baa:	f403 7380 	and.w	r3, r3, #256	@ 0x100
 8002bae:	2b00      	cmp	r3, #0
 8002bb0:	d118      	bne.n	8002be4 <HAL_RCC_OscConfig+0x2fc>
    {
      /* Enable write access to Backup domain */
      SET_BIT(PWR->CR, PWR_CR_DBP);
 8002bb2:	4b7f      	ldr	r3, [pc, #508]	@ (8002db0 <HAL_RCC_OscConfig+0x4c8>)
 8002bb4:	681b      	ldr	r3, [r3, #0]
 8002bb6:	4a7e      	ldr	r2, [pc, #504]	@ (8002db0 <HAL_RCC_OscConfig+0x4c8>)
 8002bb8:	f443 7380 	orr.w	r3, r3, #256	@ 0x100
 8002bbc:	6013      	str	r3, [r2, #0]

      /* Wait for Backup domain Write protection disable */
      tickstart = HAL_GetTick();
 8002bbe:	f7fe fe37 	bl	8001830 <HAL_GetTick>
 8002bc2:	6138      	str	r0, [r7, #16]

      while (HAL_IS_BIT_CLR(PWR->CR, PWR_CR_DBP))
 8002bc4:	e008      	b.n	8002bd8 <HAL_RCC_OscConfig+0x2f0>
      {
        if ((HAL_GetTick() - tickstart) > RCC_DBP_TIMEOUT_VALUE)
 8002bc6:	f7fe fe33 	bl	8001830 <HAL_GetTick>
 8002bca:	4602      	mov	r2, r0
 8002bcc:	693b      	ldr	r3, [r7, #16]
 8002bce:	1ad3      	subs	r3, r2, r3
 8002bd0:	2b64      	cmp	r3, #100	@ 0x64
 8002bd2:	d901      	bls.n	8002bd8 <HAL_RCC_OscConfig+0x2f0>
        {
          return HAL_TIMEOUT;
 8002bd4:	2303      	movs	r3, #3
 8002bd6:	e103      	b.n	8002de0 <HAL_RCC_OscConfig+0x4f8>
      while (HAL_IS_BIT_CLR(PWR->CR, PWR_CR_DBP))
 8002bd8:	4b75      	ldr	r3, [pc, #468]	@ (8002db0 <HAL_RCC_OscConfig+0x4c8>)
 8002bda:	681b      	ldr	r3, [r3, #0]
 8002bdc:	f403 7380 	and.w	r3, r3, #256	@ 0x100
 8002be0:	2b00      	cmp	r3, #0
 8002be2:	d0f0      	beq.n	8002bc6 <HAL_RCC_OscConfig+0x2de>
        }
      }
    }

    /* Set the new LSE configuration -----------------------------------------*/
    __HAL_RCC_LSE_CONFIG(RCC_OscInitStruct->LSEState);
 8002be4:	687b      	ldr	r3, [r7, #4]
 8002be6:	68db      	ldr	r3, [r3, #12]
 8002be8:	2b01      	cmp	r3, #1
 8002bea:	d106      	bne.n	8002bfa <HAL_RCC_OscConfig+0x312>
 8002bec:	4b6f      	ldr	r3, [pc, #444]	@ (8002dac <HAL_RCC_OscConfig+0x4c4>)
 8002bee:	6a1b      	ldr	r3, [r3, #32]
 8002bf0:	4a6e      	ldr	r2, [pc, #440]	@ (8002dac <HAL_RCC_OscConfig+0x4c4>)
 8002bf2:	f043 0301 	orr.w	r3, r3, #1
 8002bf6:	6213      	str	r3, [r2, #32]
 8002bf8:	e02d      	b.n	8002c56 <HAL_RCC_OscConfig+0x36e>
 8002bfa:	687b      	ldr	r3, [r7, #4]
 8002bfc:	68db      	ldr	r3, [r3, #12]
 8002bfe:	2b00      	cmp	r3, #0
 8002c00:	d10c      	bne.n	8002c1c <HAL_RCC_OscConfig+0x334>
 8002c02:	4b6a      	ldr	r3, [pc, #424]	@ (8002dac <HAL_RCC_OscConfig+0x4c4>)
 8002c04:	6a1b      	ldr	r3, [r3, #32]
 8002c06:	4a69      	ldr	r2, [pc, #420]	@ (8002dac <HAL_RCC_OscConfig+0x4c4>)
 8002c08:	f023 0301 	bic.w	r3, r3, #1
 8002c0c:	6213      	str	r3, [r2, #32]
 8002c0e:	4b67      	ldr	r3, [pc, #412]	@ (8002dac <HAL_RCC_OscConfig+0x4c4>)
 8002c10:	6a1b      	ldr	r3, [r3, #32]
 8002c12:	4a66      	ldr	r2, [pc, #408]	@ (8002dac <HAL_RCC_OscConfig+0x4c4>)
 8002c14:	f023 0304 	bic.w	r3, r3, #4
 8002c18:	6213      	str	r3, [r2, #32]
 8002c1a:	e01c      	b.n	8002c56 <HAL_RCC_OscConfig+0x36e>
 8002c1c:	687b      	ldr	r3, [r7, #4]
 8002c1e:	68db      	ldr	r3, [r3, #12]
 8002c20:	2b05      	cmp	r3, #5
 8002c22:	d10c      	bne.n	8002c3e <HAL_RCC_OscConfig+0x356>
 8002c24:	4b61      	ldr	r3, [pc, #388]	@ (8002dac <HAL_RCC_OscConfig+0x4c4>)
 8002c26:	6a1b      	ldr	r3, [r3, #32]
 8002c28:	4a60      	ldr	r2, [pc, #384]	@ (8002dac <HAL_RCC_OscConfig+0x4c4>)
 8002c2a:	f043 0304 	orr.w	r3, r3, #4
 8002c2e:	6213      	str	r3, [r2, #32]
 8002c30:	4b5e      	ldr	r3, [pc, #376]	@ (8002dac <HAL_RCC_OscConfig+0x4c4>)
 8002c32:	6a1b      	ldr	r3, [r3, #32]
 8002c34:	4a5d      	ldr	r2, [pc, #372]	@ (8002dac <HAL_RCC_OscConfig+0x4c4>)
 8002c36:	f043 0301 	orr.w	r3, r3, #1
 8002c3a:	6213      	str	r3, [r2, #32]
 8002c3c:	e00b      	b.n	8002c56 <HAL_RCC_OscConfig+0x36e>
 8002c3e:	4b5b      	ldr	r3, [pc, #364]	@ (8002dac <HAL_RCC_OscConfig+0x4c4>)
 8002c40:	6a1b      	ldr	r3, [r3, #32]
 8002c42:	4a5a      	ldr	r2, [pc, #360]	@ (8002dac <HAL_RCC_OscConfig+0x4c4>)
 8002c44:	f023 0301 	bic.w	r3, r3, #1
 8002c48:	6213      	str	r3, [r2, #32]
 8002c4a:	4b58      	ldr	r3, [pc, #352]	@ (8002dac <HAL_RCC_OscConfig+0x4c4>)
 8002c4c:	6a1b      	ldr	r3, [r3, #32]
 8002c4e:	4a57      	ldr	r2, [pc, #348]	@ (8002dac <HAL_RCC_OscConfig+0x4c4>)
 8002c50:	f023 0304 	bic.w	r3, r3, #4
 8002c54:	6213      	str	r3, [r2, #32]
    /* Check the LSE State */
    if (RCC_OscInitStruct->LSEState != RCC_LSE_OFF)
 8002c56:	687b      	ldr	r3, [r7, #4]
 8002c58:	68db      	ldr	r3, [r3, #12]
 8002c5a:	2b00      	cmp	r3, #0
 8002c5c:	d015      	beq.n	8002c8a <HAL_RCC_OscConfig+0x3a2>
    {
      /* Get Start Tick */
      tickstart = HAL_GetTick();
 8002c5e:	f7fe fde7 	bl	8001830 <HAL_GetTick>
 8002c62:	6138      	str	r0, [r7, #16]

      /* Wait till LSE is ready */
      while (__HAL_RCC_GET_FLAG(RCC_FLAG_LSERDY) == RESET)
 8002c64:	e00a      	b.n	8002c7c <HAL_RCC_OscConfig+0x394>
      {
        if ((HAL_GetTick() - tickstart) > RCC_LSE_TIMEOUT_VALUE)
 8002c66:	f7fe fde3 	bl	8001830 <HAL_GetTick>
 8002c6a:	4602      	mov	r2, r0
 8002c6c:	693b      	ldr	r3, [r7, #16]
 8002c6e:	1ad3      	subs	r3, r2, r3
 8002c70:	f241 3288 	movw	r2, #5000	@ 0x1388
 8002c74:	4293      	cmp	r3, r2
 8002c76:	d901      	bls.n	8002c7c <HAL_RCC_OscConfig+0x394>
        {
          return HAL_TIMEOUT;
 8002c78:	2303      	movs	r3, #3
 8002c7a:	e0b1      	b.n	8002de0 <HAL_RCC_OscConfig+0x4f8>
      while (__HAL_RCC_GET_FLAG(RCC_FLAG_LSERDY) == RESET)
 8002c7c:	4b4b      	ldr	r3, [pc, #300]	@ (8002dac <HAL_RCC_OscConfig+0x4c4>)
 8002c7e:	6a1b      	ldr	r3, [r3, #32]
 8002c80:	f003 0302 	and.w	r3, r3, #2
 8002c84:	2b00      	cmp	r3, #0
 8002c86:	d0ee      	beq.n	8002c66 <HAL_RCC_OscConfig+0x37e>
 8002c88:	e014      	b.n	8002cb4 <HAL_RCC_OscConfig+0x3cc>
      }
    }
    else
    {
      /* Get Start Tick */
      tickstart = HAL_GetTick();
 8002c8a:	f7fe fdd1 	bl	8001830 <HAL_GetTick>
 8002c8e:	6138      	str	r0, [r7, #16]

      /* Wait till LSE is disabled */
      while (__HAL_RCC_GET_FLAG(RCC_FLAG_LSERDY) != RESET)
 8002c90:	e00a      	b.n	8002ca8 <HAL_RCC_OscConfig+0x3c0>
      {
        if ((HAL_GetTick() - tickstart) > RCC_LSE_TIMEOUT_VALUE)
 8002c92:	f7fe fdcd 	bl	8001830 <HAL_GetTick>
 8002c96:	4602      	mov	r2, r0
 8002c98:	693b      	ldr	r3, [r7, #16]
 8002c9a:	1ad3      	subs	r3, r2, r3
 8002c9c:	f241 3288 	movw	r2, #5000	@ 0x1388
 8002ca0:	4293      	cmp	r3, r2
 8002ca2:	d901      	bls.n	8002ca8 <HAL_RCC_OscConfig+0x3c0>
        {
          return HAL_TIMEOUT;
 8002ca4:	2303      	movs	r3, #3
 8002ca6:	e09b      	b.n	8002de0 <HAL_RCC_OscConfig+0x4f8>
      while (__HAL_RCC_GET_FLAG(RCC_FLAG_LSERDY) != RESET)
 8002ca8:	4b40      	ldr	r3, [pc, #256]	@ (8002dac <HAL_RCC_OscConfig+0x4c4>)
 8002caa:	6a1b      	ldr	r3, [r3, #32]
 8002cac:	f003 0302 	and.w	r3, r3, #2
 8002cb0:	2b00      	cmp	r3, #0
 8002cb2:	d1ee      	bne.n	8002c92 <HAL_RCC_OscConfig+0x3aa>
        }
      }
    }

    /* Require to disable power clock if necessary */
    if (pwrclkchanged == SET)
 8002cb4:	7dfb      	ldrb	r3, [r7, #23]
 8002cb6:	2b01      	cmp	r3, #1
 8002cb8:	d105      	bne.n	8002cc6 <HAL_RCC_OscConfig+0x3de>
    {
      __HAL_RCC_PWR_CLK_DISABLE();
 8002cba:	4b3c      	ldr	r3, [pc, #240]	@ (8002dac <HAL_RCC_OscConfig+0x4c4>)
 8002cbc:	69db      	ldr	r3, [r3, #28]
 8002cbe:	4a3b      	ldr	r2, [pc, #236]	@ (8002dac <HAL_RCC_OscConfig+0x4c4>)
 8002cc0:	f023 5380 	bic.w	r3, r3, #268435456	@ 0x10000000
 8002cc4:	61d3      	str	r3, [r2, #28]

#endif /* RCC_CR_PLL2ON */
  /*-------------------------------- PLL Configuration -----------------------*/
  /* Check the parameters */
  assert_param(IS_RCC_PLL(RCC_OscInitStruct->PLL.PLLState));
  if ((RCC_OscInitStruct->PLL.PLLState) != RCC_PLL_NONE)
 8002cc6:	687b      	ldr	r3, [r7, #4]
 8002cc8:	69db      	ldr	r3, [r3, #28]
 8002cca:	2b00      	cmp	r3, #0
 8002ccc:	f000 8087 	beq.w	8002dde <HAL_RCC_OscConfig+0x4f6>
  {
    /* Check if the PLL is used as system clock or not */
    if (__HAL_RCC_GET_SYSCLK_SOURCE() != RCC_SYSCLKSOURCE_STATUS_PLLCLK)
 8002cd0:	4b36      	ldr	r3, [pc, #216]	@ (8002dac <HAL_RCC_OscConfig+0x4c4>)
 8002cd2:	685b      	ldr	r3, [r3, #4]
 8002cd4:	f003 030c 	and.w	r3, r3, #12
 8002cd8:	2b08      	cmp	r3, #8
 8002cda:	d061      	beq.n	8002da0 <HAL_RCC_OscConfig+0x4b8>
    {
      if ((RCC_OscInitStruct->PLL.PLLState) == RCC_PLL_ON)
 8002cdc:	687b      	ldr	r3, [r7, #4]
 8002cde:	69db      	ldr	r3, [r3, #28]
 8002ce0:	2b02      	cmp	r3, #2
 8002ce2:	d146      	bne.n	8002d72 <HAL_RCC_OscConfig+0x48a>
        /* Check the parameters */
        assert_param(IS_RCC_PLLSOURCE(RCC_OscInitStruct->PLL.PLLSource));
        assert_param(IS_RCC_PLL_MUL(RCC_OscInitStruct->PLL.PLLMUL));

        /* Disable the main PLL. */
        __HAL_RCC_PLL_DISABLE();
 8002ce4:	4b33      	ldr	r3, [pc, #204]	@ (8002db4 <HAL_RCC_OscConfig+0x4cc>)
 8002ce6:	2200      	movs	r2, #0
 8002ce8:	601a      	str	r2, [r3, #0]

        /* Get Start Tick */
        tickstart = HAL_GetTick();
 8002cea:	f7fe fda1 	bl	8001830 <HAL_GetTick>
 8002cee:	6138      	str	r0, [r7, #16]

        /* Wait till PLL is disabled */
        while (__HAL_RCC_GET_FLAG(RCC_FLAG_PLLRDY)  != RESET)
 8002cf0:	e008      	b.n	8002d04 <HAL_RCC_OscConfig+0x41c>
        {
          if ((HAL_GetTick() - tickstart) > PLL_TIMEOUT_VALUE)
 8002cf2:	f7fe fd9d 	bl	8001830 <HAL_GetTick>
 8002cf6:	4602      	mov	r2, r0
 8002cf8:	693b      	ldr	r3, [r7, #16]
 8002cfa:	1ad3      	subs	r3, r2, r3
 8002cfc:	2b02      	cmp	r3, #2
 8002cfe:	d901      	bls.n	8002d04 <HAL_RCC_OscConfig+0x41c>
          {
            return HAL_TIMEOUT;
 8002d00:	2303      	movs	r3, #3
 8002d02:	e06d      	b.n	8002de0 <HAL_RCC_OscConfig+0x4f8>
        while (__HAL_RCC_GET_FLAG(RCC_FLAG_PLLRDY)  != RESET)
 8002d04:	4b29      	ldr	r3, [pc, #164]	@ (8002dac <HAL_RCC_OscConfig+0x4c4>)
 8002d06:	681b      	ldr	r3, [r3, #0]
 8002d08:	f003 7300 	and.w	r3, r3, #33554432	@ 0x2000000
 8002d0c:	2b00      	cmp	r3, #0
 8002d0e:	d1f0      	bne.n	8002cf2 <HAL_RCC_OscConfig+0x40a>
          }
        }

        /* Configure the HSE prediv factor --------------------------------*/
        /* It can be written only when the PLL is disabled. Not used in PLL source is different than HSE */
        if (RCC_OscInitStruct->PLL.PLLSource == RCC_PLLSOURCE_HSE)
 8002d10:	687b      	ldr	r3, [r7, #4]
 8002d12:	6a1b      	ldr	r3, [r3, #32]
 8002d14:	f5b3 3f80 	cmp.w	r3, #65536	@ 0x10000
 8002d18:	d108      	bne.n	8002d2c <HAL_RCC_OscConfig+0x444>
          /* Set PREDIV1 source */
          SET_BIT(RCC->CFGR2, RCC_OscInitStruct->Prediv1Source);
#endif /* RCC_CFGR2_PREDIV1SRC */

          /* Set PREDIV1 Value */
          __HAL_RCC_HSE_PREDIV_CONFIG(RCC_OscInitStruct->HSEPredivValue);
 8002d1a:	4b24      	ldr	r3, [pc, #144]	@ (8002dac <HAL_RCC_OscConfig+0x4c4>)
 8002d1c:	685b      	ldr	r3, [r3, #4]
 8002d1e:	f423 3200 	bic.w	r2, r3, #131072	@ 0x20000
 8002d22:	687b      	ldr	r3, [r7, #4]
 8002d24:	689b      	ldr	r3, [r3, #8]
 8002d26:	4921      	ldr	r1, [pc, #132]	@ (8002dac <HAL_RCC_OscConfig+0x4c4>)
 8002d28:	4313      	orrs	r3, r2
 8002d2a:	604b      	str	r3, [r1, #4]
        }

        /* Configure the main PLL clock source and multiplication factors. */
        __HAL_RCC_PLL_CONFIG(RCC_OscInitStruct->PLL.PLLSource,
 8002d2c:	4b1f      	ldr	r3, [pc, #124]	@ (8002dac <HAL_RCC_OscConfig+0x4c4>)
 8002d2e:	685b      	ldr	r3, [r3, #4]
 8002d30:	f423 1274 	bic.w	r2, r3, #3997696	@ 0x3d0000
 8002d34:	687b      	ldr	r3, [r7, #4]
 8002d36:	6a19      	ldr	r1, [r3, #32]
 8002d38:	687b      	ldr	r3, [r7, #4]
 8002d3a:	6a5b      	ldr	r3, [r3, #36]	@ 0x24
 8002d3c:	430b      	orrs	r3, r1
 8002d3e:	491b      	ldr	r1, [pc, #108]	@ (8002dac <HAL_RCC_OscConfig+0x4c4>)
 8002d40:	4313      	orrs	r3, r2
 8002d42:	604b      	str	r3, [r1, #4]
                             RCC_OscInitStruct->PLL.PLLMUL);
        /* Enable the main PLL. */
        __HAL_RCC_PLL_ENABLE();
 8002d44:	4b1b      	ldr	r3, [pc, #108]	@ (8002db4 <HAL_RCC_OscConfig+0x4cc>)
 8002d46:	2201      	movs	r2, #1
 8002d48:	601a      	str	r2, [r3, #0]

        /* Get Start Tick */
        tickstart = HAL_GetTick();
 8002d4a:	f7fe fd71 	bl	8001830 <HAL_GetTick>
 8002d4e:	6138      	str	r0, [r7, #16]

        /* Wait till PLL is ready */
        while (__HAL_RCC_GET_FLAG(RCC_FLAG_PLLRDY)  == RESET)
 8002d50:	e008      	b.n	8002d64 <HAL_RCC_OscConfig+0x47c>
        {
          if ((HAL_GetTick() - tickstart) > PLL_TIMEOUT_VALUE)
 8002d52:	f7fe fd6d 	bl	8001830 <HAL_GetTick>
 8002d56:	4602      	mov	r2, r0
 8002d58:	693b      	ldr	r3, [r7, #16]
 8002d5a:	1ad3      	subs	r3, r2, r3
 8002d5c:	2b02      	cmp	r3, #2
 8002d5e:	d901      	bls.n	8002d64 <HAL_RCC_OscConfig+0x47c>
          {
            return HAL_TIMEOUT;
 8002d60:	2303      	movs	r3, #3
 8002d62:	e03d      	b.n	8002de0 <HAL_RCC_OscConfig+0x4f8>
        while (__HAL_RCC_GET_FLAG(RCC_FLAG_PLLRDY)  == RESET)
 8002d64:	4b11      	ldr	r3, [pc, #68]	@ (8002dac <HAL_RCC_OscConfig+0x4c4>)
 8002d66:	681b      	ldr	r3, [r3, #0]
 8002d68:	f003 7300 	and.w	r3, r3, #33554432	@ 0x2000000
 8002d6c:	2b00      	cmp	r3, #0
 8002d6e:	d0f0      	beq.n	8002d52 <HAL_RCC_OscConfig+0x46a>
 8002d70:	e035      	b.n	8002dde <HAL_RCC_OscConfig+0x4f6>
        }
      }
      else
      {
        /* Disable the main PLL. */
        __HAL_RCC_PLL_DISABLE();
 8002d72:	4b10      	ldr	r3, [pc, #64]	@ (8002db4 <HAL_RCC_OscConfig+0x4cc>)
 8002d74:	2200      	movs	r2, #0
 8002d76:	601a      	str	r2, [r3, #0]

        /* Get Start Tick */
        tickstart = HAL_GetTick();
 8002d78:	f7fe fd5a 	bl	8001830 <HAL_GetTick>
 8002d7c:	6138      	str	r0, [r7, #16]

        /* Wait till PLL is disabled */
        while (__HAL_RCC_GET_FLAG(RCC_FLAG_PLLRDY)  != RESET)
 8002d7e:	e008      	b.n	8002d92 <HAL_RCC_OscConfig+0x4aa>
        {
          if ((HAL_GetTick() - tickstart) > PLL_TIMEOUT_VALUE)
 8002d80:	f7fe fd56 	bl	8001830 <HAL_GetTick>
 8002d84:	4602      	mov	r2, r0
 8002d86:	693b      	ldr	r3, [r7, #16]
 8002d88:	1ad3      	subs	r3, r2, r3
 8002d8a:	2b02      	cmp	r3, #2
 8002d8c:	d901      	bls.n	8002d92 <HAL_RCC_OscConfig+0x4aa>
          {
            return HAL_TIMEOUT;
 8002d8e:	2303      	movs	r3, #3
 8002d90:	e026      	b.n	8002de0 <HAL_RCC_OscConfig+0x4f8>
        while (__HAL_RCC_GET_FLAG(RCC_FLAG_PLLRDY)  != RESET)
 8002d92:	4b06      	ldr	r3, [pc, #24]	@ (8002dac <HAL_RCC_OscConfig+0x4c4>)
 8002d94:	681b      	ldr	r3, [r3, #0]
 8002d96:	f003 7300 	and.w	r3, r3, #33554432	@ 0x2000000
 8002d9a:	2b00      	cmp	r3, #0
 8002d9c:	d1f0      	bne.n	8002d80 <HAL_RCC_OscConfig+0x498>
 8002d9e:	e01e      	b.n	8002dde <HAL_RCC_OscConfig+0x4f6>
      }
    }
    else
    {
      /* Check if there is a request to disable the PLL used as System clock source */
      if ((RCC_OscInitStruct->PLL.PLLState) == RCC_PLL_OFF)
 8002da0:	687b      	ldr	r3, [r7, #4]
 8002da2:	69db      	ldr	r3, [r3, #28]
 8002da4:	2b01      	cmp	r3, #1
 8002da6:	d107      	bne.n	8002db8 <HAL_RCC_OscConfig+0x4d0>
      {
        return HAL_ERROR;
 8002da8:	2301      	movs	r3, #1
 8002daa:	e019      	b.n	8002de0 <HAL_RCC_OscConfig+0x4f8>
 8002dac:	40021000 	.word	0x40021000
 8002db0:	40007000 	.word	0x40007000
 8002db4:	42420060 	.word	0x42420060
      }
      else
      {
        /* Do not return HAL_ERROR if request repeats the current configuration */
        pll_config = RCC->CFGR;
 8002db8:	4b0b      	ldr	r3, [pc, #44]	@ (8002de8 <HAL_RCC_OscConfig+0x500>)
 8002dba:	685b      	ldr	r3, [r3, #4]
 8002dbc:	60fb      	str	r3, [r7, #12]
        if ((READ_BIT(pll_config, RCC_CFGR_PLLSRC) != RCC_OscInitStruct->PLL.PLLSource) ||
 8002dbe:	68fb      	ldr	r3, [r7, #12]
 8002dc0:	f403 3280 	and.w	r2, r3, #65536	@ 0x10000
 8002dc4:	687b      	ldr	r3, [r7, #4]
 8002dc6:	6a1b      	ldr	r3, [r3, #32]
 8002dc8:	429a      	cmp	r2, r3
 8002dca:	d106      	bne.n	8002dda <HAL_RCC_OscConfig+0x4f2>
            (READ_BIT(pll_config, RCC_CFGR_PLLMULL) != RCC_OscInitStruct->PLL.PLLMUL))
 8002dcc:	68fb      	ldr	r3, [r7, #12]
 8002dce:	f403 1270 	and.w	r2, r3, #3932160	@ 0x3c0000
 8002dd2:	687b      	ldr	r3, [r7, #4]
 8002dd4:	6a5b      	ldr	r3, [r3, #36]	@ 0x24
        if ((READ_BIT(pll_config, RCC_CFGR_PLLSRC) != RCC_OscInitStruct->PLL.PLLSource) ||
 8002dd6:	429a      	cmp	r2, r3
 8002dd8:	d001      	beq.n	8002dde <HAL_RCC_OscConfig+0x4f6>
        {
          return HAL_ERROR;
 8002dda:	2301      	movs	r3, #1
 8002ddc:	e000      	b.n	8002de0 <HAL_RCC_OscConfig+0x4f8>
        }
      }
    }
  }

  return HAL_OK;
 8002dde:	2300      	movs	r3, #0
}
 8002de0:	4618      	mov	r0, r3
 8002de2:	3718      	adds	r7, #24
 8002de4:	46bd      	mov	sp, r7
 8002de6:	bd80      	pop	{r7, pc}
 8002de8:	40021000 	.word	0x40021000

08002dec <HAL_RCC_ClockConfig>:
  *         You can use @ref HAL_RCC_GetClockConfig() function to know which clock is
  *         currently used as system clock source.
  * @retval HAL status
  */
HAL_StatusTypeDef HAL_RCC_ClockConfig(RCC_ClkInitTypeDef  *RCC_ClkInitStruct, uint32_t FLatency)
{
 8002dec:	b580      	push	{r7, lr}
 8002dee:	b084      	sub	sp, #16
 8002df0:	af00      	add	r7, sp, #0
 8002df2:	6078      	str	r0, [r7, #4]
 8002df4:	6039      	str	r1, [r7, #0]
  uint32_t tickstart;

  /* Check Null pointer */
  if (RCC_ClkInitStruct == NULL)
 8002df6:	687b      	ldr	r3, [r7, #4]
 8002df8:	2b00      	cmp	r3, #0
 8002dfa:	d101      	bne.n	8002e00 <HAL_RCC_ClockConfig+0x14>
  {
    return HAL_ERROR;
 8002dfc:	2301      	movs	r3, #1
 8002dfe:	e0d0      	b.n	8002fa2 <HAL_RCC_ClockConfig+0x1b6>
  must be correctly programmed according to the frequency of the CPU clock
    (HCLK) of the device. */

#if defined(FLASH_ACR_LATENCY)
  /* Increasing the number of wait states because of higher CPU frequency */
  if (FLatency > __HAL_FLASH_GET_LATENCY())
 8002e00:	4b6a      	ldr	r3, [pc, #424]	@ (8002fac <HAL_RCC_ClockConfig+0x1c0>)
 8002e02:	681b      	ldr	r3, [r3, #0]
 8002e04:	f003 0307 	and.w	r3, r3, #7
 8002e08:	683a      	ldr	r2, [r7, #0]
 8002e0a:	429a      	cmp	r2, r3
 8002e0c:	d910      	bls.n	8002e30 <HAL_RCC_ClockConfig+0x44>
  {
    /* Program the new number of wait states to the LATENCY bits in the FLASH_ACR register */
    __HAL_FLASH_SET_LATENCY(FLatency);
 8002e0e:	4b67      	ldr	r3, [pc, #412]	@ (8002fac <HAL_RCC_ClockConfig+0x1c0>)
 8002e10:	681b      	ldr	r3, [r3, #0]
 8002e12:	f023 0207 	bic.w	r2, r3, #7
 8002e16:	4965      	ldr	r1, [pc, #404]	@ (8002fac <HAL_RCC_ClockConfig+0x1c0>)
 8002e18:	683b      	ldr	r3, [r7, #0]
 8002e1a:	4313      	orrs	r3, r2
 8002e1c:	600b      	str	r3, [r1, #0]

    /* Check that the new number of wait states is taken into account to access the Flash
    memory by reading the FLASH_ACR register */
    if (__HAL_FLASH_GET_LATENCY() != FLatency)
 8002e1e:	4b63      	ldr	r3, [pc, #396]	@ (8002fac <HAL_RCC_ClockConfig+0x1c0>)
 8002e20:	681b      	ldr	r3, [r3, #0]
 8002e22:	f003 0307 	and.w	r3, r3, #7
 8002e26:	683a      	ldr	r2, [r7, #0]
 8002e28:	429a      	cmp	r2, r3
 8002e2a:	d001      	beq.n	8002e30 <HAL_RCC_ClockConfig+0x44>
  {
    return HAL_ERROR;
 8002e2c:	2301      	movs	r3, #1
 8002e2e:	e0b8      	b.n	8002fa2 <HAL_RCC_ClockConfig+0x1b6>
  }
}

#endif /* FLASH_ACR_LATENCY */
/*-------------------------- HCLK Configuration --------------------------*/
if (((RCC_ClkInitStruct->ClockType) & RCC_CLOCKTYPE_HCLK) == RCC_CLOCKTYPE_HCLK)
 8002e30:	687b      	ldr	r3, [r7, #4]
 8002e32:	681b      	ldr	r3, [r3, #0]
 8002e34:	f003 0302 	and.w	r3, r3, #2
 8002e38:	2b00      	cmp	r3, #0
 8002e3a:	d020      	beq.n	8002e7e <HAL_RCC_ClockConfig+0x92>
  {
    /* Set the highest APBx dividers in order to ensure that we do not go through
    a non-spec phase whatever we decrease or increase HCLK. */
    if (((RCC_ClkInitStruct->ClockType) & RCC_CLOCKTYPE_PCLK1) == RCC_CLOCKTYPE_PCLK1)
 8002e3c:	687b      	ldr	r3, [r7, #4]
 8002e3e:	681b      	ldr	r3, [r3, #0]
 8002e40:	f003 0304 	and.w	r3, r3, #4
 8002e44:	2b00      	cmp	r3, #0
 8002e46:	d005      	beq.n	8002e54 <HAL_RCC_ClockConfig+0x68>
    {
      MODIFY_REG(RCC->CFGR, RCC_CFGR_PPRE1, RCC_HCLK_DIV16);
 8002e48:	4b59      	ldr	r3, [pc, #356]	@ (8002fb0 <HAL_RCC_ClockConfig+0x1c4>)
 8002e4a:	685b      	ldr	r3, [r3, #4]
 8002e4c:	4a58      	ldr	r2, [pc, #352]	@ (8002fb0 <HAL_RCC_ClockConfig+0x1c4>)
 8002e4e:	f443 63e0 	orr.w	r3, r3, #1792	@ 0x700
 8002e52:	6053      	str	r3, [r2, #4]
    }

    if (((RCC_ClkInitStruct->ClockType) & RCC_CLOCKTYPE_PCLK2) == RCC_CLOCKTYPE_PCLK2)
 8002e54:	687b      	ldr	r3, [r7, #4]
 8002e56:	681b      	ldr	r3, [r3, #0]
 8002e58:	f003 0308 	and.w	r3, r3, #8
 8002e5c:	2b00      	cmp	r3, #0
 8002e5e:	d005      	beq.n	8002e6c <HAL_RCC_ClockConfig+0x80>
    {
      MODIFY_REG(RCC->CFGR, RCC_CFGR_PPRE2, (RCC_HCLK_DIV16 << 3));
 8002e60:	4b53      	ldr	r3, [pc, #332]	@ (8002fb0 <HAL_RCC_ClockConfig+0x1c4>)
 8002e62:	685b      	ldr	r3, [r3, #4]
 8002e64:	4a52      	ldr	r2, [pc, #328]	@ (8002fb0 <HAL_RCC_ClockConfig+0x1c4>)
 8002e66:	f443 5360 	orr.w	r3, r3, #14336	@ 0x3800
 8002e6a:	6053      	str	r3, [r2, #4]
    }

    /* Set the new HCLK clock divider */
    assert_param(IS_RCC_HCLK(RCC_ClkInitStruct->AHBCLKDivider));
    MODIFY_REG(RCC->CFGR, RCC_CFGR_HPRE, RCC_ClkInitStruct->AHBCLKDivider);
 8002e6c:	4b50      	ldr	r3, [pc, #320]	@ (8002fb0 <HAL_RCC_ClockConfig+0x1c4>)
 8002e6e:	685b      	ldr	r3, [r3, #4]
 8002e70:	f023 02f0 	bic.w	r2, r3, #240	@ 0xf0
 8002e74:	687b      	ldr	r3, [r7, #4]
 8002e76:	689b      	ldr	r3, [r3, #8]
 8002e78:	494d      	ldr	r1, [pc, #308]	@ (8002fb0 <HAL_RCC_ClockConfig+0x1c4>)
 8002e7a:	4313      	orrs	r3, r2
 8002e7c:	604b      	str	r3, [r1, #4]
  }

  /*------------------------- SYSCLK Configuration ---------------------------*/
  if (((RCC_ClkInitStruct->ClockType) & RCC_CLOCKTYPE_SYSCLK) == RCC_CLOCKTYPE_SYSCLK)
 8002e7e:	687b      	ldr	r3, [r7, #4]
 8002e80:	681b      	ldr	r3, [r3, #0]
 8002e82:	f003 0301 	and.w	r3, r3, #1
 8002e86:	2b00      	cmp	r3, #0
 8002e88:	d040      	beq.n	8002f0c <HAL_RCC_ClockConfig+0x120>
  {
    assert_param(IS_RCC_SYSCLKSOURCE(RCC_ClkInitStruct->SYSCLKSource));

    /* HSE is selected as System Clock Source */
    if (RCC_ClkInitStruct->SYSCLKSource == RCC_SYSCLKSOURCE_HSE)
 8002e8a:	687b      	ldr	r3, [r7, #4]
 8002e8c:	685b      	ldr	r3, [r3, #4]
 8002e8e:	2b01      	cmp	r3, #1
 8002e90:	d107      	bne.n	8002ea2 <HAL_RCC_ClockConfig+0xb6>
    {
      /* Check the HSE ready flag */
      if (__HAL_RCC_GET_FLAG(RCC_FLAG_HSERDY) == RESET)
 8002e92:	4b47      	ldr	r3, [pc, #284]	@ (8002fb0 <HAL_RCC_ClockConfig+0x1c4>)
 8002e94:	681b      	ldr	r3, [r3, #0]
 8002e96:	f403 3300 	and.w	r3, r3, #131072	@ 0x20000
 8002e9a:	2b00      	cmp	r3, #0
 8002e9c:	d115      	bne.n	8002eca <HAL_RCC_ClockConfig+0xde>
      {
        return HAL_ERROR;
 8002e9e:	2301      	movs	r3, #1
 8002ea0:	e07f      	b.n	8002fa2 <HAL_RCC_ClockConfig+0x1b6>
      }
    }
    /* PLL is selected as System Clock Source */
    else if (RCC_ClkInitStruct->SYSCLKSource == RCC_SYSCLKSOURCE_PLLCLK)
 8002ea2:	687b      	ldr	r3, [r7, #4]
 8002ea4:	685b      	ldr	r3, [r3, #4]
 8002ea6:	2b02      	cmp	r3, #2
 8002ea8:	d107      	bne.n	8002eba <HAL_RCC_ClockConfig+0xce>
    {
      /* Check the PLL ready flag */
      if (__HAL_RCC_GET_FLAG(RCC_FLAG_PLLRDY) == RESET)
 8002eaa:	4b41      	ldr	r3, [pc, #260]	@ (8002fb0 <HAL_RCC_ClockConfig+0x1c4>)
 8002eac:	681b      	ldr	r3, [r3, #0]
 8002eae:	f003 7300 	and.w	r3, r3, #33554432	@ 0x2000000
 8002eb2:	2b00      	cmp	r3, #0
 8002eb4:	d109      	bne.n	8002eca <HAL_RCC_ClockConfig+0xde>
      {
        return HAL_ERROR;
 8002eb6:	2301      	movs	r3, #1
 8002eb8:	e073      	b.n	8002fa2 <HAL_RCC_ClockConfig+0x1b6>
    }
    /* HSI is selected as System Clock Source */
    else
    {
      /* Check the HSI ready flag */
      if (__HAL_RCC_GET_FLAG(RCC_FLAG_HSIRDY) == RESET)
 8002eba:	4b3d      	ldr	r3, [pc, #244]	@ (8002fb0 <HAL_RCC_ClockConfig+0x1c4>)
 8002ebc:	681b      	ldr	r3, [r3, #0]
 8002ebe:	f003 0302 	and.w	r3, r3, #2
 8002ec2:	2b00      	cmp	r3, #0
 8002ec4:	d101      	bne.n	8002eca <HAL_RCC_ClockConfig+0xde>
      {
        return HAL_ERROR;
 8002ec6:	2301      	movs	r3, #1
 8002ec8:	e06b      	b.n	8002fa2 <HAL_RCC_ClockConfig+0x1b6>
      }
    }
    __HAL_RCC_SYSCLK_CONFIG(RCC_ClkInitStruct->SYSCLKSource);
 8002eca:	4b39      	ldr	r3, [pc, #228]	@ (8002fb0 <HAL_RCC_ClockConfig+0x1c4>)
 8002ecc:	685b      	ldr	r3, [r3, #4]
 8002ece:	f023 0203 	bic.w	r2, r3, #3
 8002ed2:	687b      	ldr	r3, [r7, #4]
 8002ed4:	685b      	ldr	r3, [r3, #4]
 8002ed6:	4936      	ldr	r1, [pc, #216]	@ (8002fb0 <HAL_RCC_ClockConfig+0x1c4>)
 8002ed8:	4313      	orrs	r3, r2
 8002eda:	604b      	str	r3, [r1, #4]

    /* Get Start Tick */
    tickstart = HAL_GetTick();
 8002edc:	f7fe fca8 	bl	8001830 <HAL_GetTick>
 8002ee0:	60f8      	str	r0, [r7, #12]

    while (__HAL_RCC_GET_SYSCLK_SOURCE() != (RCC_ClkInitStruct->SYSCLKSource << RCC_CFGR_SWS_Pos))
 8002ee2:	e00a      	b.n	8002efa <HAL_RCC_ClockConfig+0x10e>
    {
      if ((HAL_GetTick() - tickstart) > CLOCKSWITCH_TIMEOUT_VALUE)
 8002ee4:	f7fe fca4 	bl	8001830 <HAL_GetTick>
 8002ee8:	4602      	mov	r2, r0
 8002eea:	68fb      	ldr	r3, [r7, #12]
 8002eec:	1ad3      	subs	r3, r2, r3
 8002eee:	f241 3288 	movw	r2, #5000	@ 0x1388
 8002ef2:	4293      	cmp	r3, r2
 8002ef4:	d901      	bls.n	8002efa <HAL_RCC_ClockConfig+0x10e>
      {
        return HAL_TIMEOUT;
 8002ef6:	2303      	movs	r3, #3
 8002ef8:	e053      	b.n	8002fa2 <HAL_RCC_ClockConfig+0x1b6>
    while (__HAL_RCC_GET_SYSCLK_SOURCE() != (RCC_ClkInitStruct->SYSCLKSource << RCC_CFGR_SWS_Pos))
 8002efa:	4b2d      	ldr	r3, [pc, #180]	@ (8002fb0 <HAL_RCC_ClockConfig+0x1c4>)
 8002efc:	685b      	ldr	r3, [r3, #4]
 8002efe:	f003 020c 	and.w	r2, r3, #12
 8002f02:	687b      	ldr	r3, [r7, #4]
 8002f04:	685b      	ldr	r3, [r3, #4]
 8002f06:	009b      	lsls	r3, r3, #2
 8002f08:	429a      	cmp	r2, r3
 8002f0a:	d1eb      	bne.n	8002ee4 <HAL_RCC_ClockConfig+0xf8>
    }
  }

#if defined(FLASH_ACR_LATENCY)
  /* Decreasing the number of wait states because of lower CPU frequency */
  if (FLatency < __HAL_FLASH_GET_LATENCY())
 8002f0c:	4b27      	ldr	r3, [pc, #156]	@ (8002fac <HAL_RCC_ClockConfig+0x1c0>)
 8002f0e:	681b      	ldr	r3, [r3, #0]
 8002f10:	f003 0307 	and.w	r3, r3, #7
 8002f14:	683a      	ldr	r2, [r7, #0]
 8002f16:	429a      	cmp	r2, r3
 8002f18:	d210      	bcs.n	8002f3c <HAL_RCC_ClockConfig+0x150>
  {
    /* Program the new number of wait states to the LATENCY bits in the FLASH_ACR register */
    __HAL_FLASH_SET_LATENCY(FLatency);
 8002f1a:	4b24      	ldr	r3, [pc, #144]	@ (8002fac <HAL_RCC_ClockConfig+0x1c0>)
 8002f1c:	681b      	ldr	r3, [r3, #0]
 8002f1e:	f023 0207 	bic.w	r2, r3, #7
 8002f22:	4922      	ldr	r1, [pc, #136]	@ (8002fac <HAL_RCC_ClockConfig+0x1c0>)
 8002f24:	683b      	ldr	r3, [r7, #0]
 8002f26:	4313      	orrs	r3, r2
 8002f28:	600b      	str	r3, [r1, #0]

    /* Check that the new number of wait states is taken into account to access the Flash
    memory by reading the FLASH_ACR register */
    if (__HAL_FLASH_GET_LATENCY() != FLatency)
 8002f2a:	4b20      	ldr	r3, [pc, #128]	@ (8002fac <HAL_RCC_ClockConfig+0x1c0>)
 8002f2c:	681b      	ldr	r3, [r3, #0]
 8002f2e:	f003 0307 	and.w	r3, r3, #7
 8002f32:	683a      	ldr	r2, [r7, #0]
 8002f34:	429a      	cmp	r2, r3
 8002f36:	d001      	beq.n	8002f3c <HAL_RCC_ClockConfig+0x150>
  {
    return HAL_ERROR;
 8002f38:	2301      	movs	r3, #1
 8002f3a:	e032      	b.n	8002fa2 <HAL_RCC_ClockConfig+0x1b6>
  }
}
#endif /* FLASH_ACR_LATENCY */

/*-------------------------- PCLK1 Configuration ---------------------------*/
if (((RCC_ClkInitStruct->ClockType) & RCC_CLOCKTYPE_PCLK1) == RCC_CLOCKTYPE_PCLK1)
 8002f3c:	687b      	ldr	r3, [r7, #4]
 8002f3e:	681b      	ldr	r3, [r3, #0]
 8002f40:	f003 0304 	and.w	r3, r3, #4
 8002f44:	2b00      	cmp	r3, #0
 8002f46:	d008      	beq.n	8002f5a <HAL_RCC_ClockConfig+0x16e>
  {
    assert_param(IS_RCC_PCLK(RCC_ClkInitStruct->APB1CLKDivider));
    MODIFY_REG(RCC->CFGR, RCC_CFGR_PPRE1, RCC_ClkInitStruct->APB1CLKDivider);
 8002f48:	4b19      	ldr	r3, [pc, #100]	@ (8002fb0 <HAL_RCC_ClockConfig+0x1c4>)
 8002f4a:	685b      	ldr	r3, [r3, #4]
 8002f4c:	f423 62e0 	bic.w	r2, r3, #1792	@ 0x700
 8002f50:	687b      	ldr	r3, [r7, #4]
 8002f52:	68db      	ldr	r3, [r3, #12]
 8002f54:	4916      	ldr	r1, [pc, #88]	@ (8002fb0 <HAL_RCC_ClockConfig+0x1c4>)
 8002f56:	4313      	orrs	r3, r2
 8002f58:	604b      	str	r3, [r1, #4]
  }

  /*-------------------------- PCLK2 Configuration ---------------------------*/
  if (((RCC_ClkInitStruct->ClockType) & RCC_CLOCKTYPE_PCLK2) == RCC_CLOCKTYPE_PCLK2)
 8002f5a:	687b      	ldr	r3, [r7, #4]
 8002f5c:	681b      	ldr	r3, [r3, #0]
 8002f5e:	f003 0308 	and.w	r3, r3, #8
 8002f62:	2b00      	cmp	r3, #0
 8002f64:	d009      	beq.n	8002f7a <HAL_RCC_ClockConfig+0x18e>
  {
    assert_param(IS_RCC_PCLK(RCC_ClkInitStruct->APB2CLKDivider));
    MODIFY_REG(RCC->CFGR, RCC_CFGR_PPRE2, ((RCC_ClkInitStruct->APB2CLKDivider) << 3));
 8002f66:	4b12      	ldr	r3, [pc, #72]	@ (8002fb0 <HAL_RCC_ClockConfig+0x1c4>)
 8002f68:	685b      	ldr	r3, [r3, #4]
 8002f6a:	f423 5260 	bic.w	r2, r3, #14336	@ 0x3800
 8002f6e:	687b      	ldr	r3, [r7, #4]
 8002f70:	691b      	ldr	r3, [r3, #16]
 8002f72:	00db      	lsls	r3, r3, #3
 8002f74:	490e      	ldr	r1, [pc, #56]	@ (8002fb0 <HAL_RCC_ClockConfig+0x1c4>)
 8002f76:	4313      	orrs	r3, r2
 8002f78:	604b      	str	r3, [r1, #4]
  }

  /* Update the SystemCoreClock global variable */
  SystemCoreClock = HAL_RCC_GetSysClockFreq() >> AHBPrescTable[(RCC->CFGR & RCC_CFGR_HPRE) >> RCC_CFGR_HPRE_Pos];
 8002f7a:	f000 f821 	bl	8002fc0 <HAL_RCC_GetSysClockFreq>
 8002f7e:	4602      	mov	r2, r0
 8002f80:	4b0b      	ldr	r3, [pc, #44]	@ (8002fb0 <HAL_RCC_ClockConfig+0x1c4>)
 8002f82:	685b      	ldr	r3, [r3, #4]
 8002f84:	091b      	lsrs	r3, r3, #4
 8002f86:	f003 030f 	and.w	r3, r3, #15
 8002f8a:	490a      	ldr	r1, [pc, #40]	@ (8002fb4 <HAL_RCC_ClockConfig+0x1c8>)
 8002f8c:	5ccb      	ldrb	r3, [r1, r3]
 8002f8e:	fa22 f303 	lsr.w	r3, r2, r3
 8002f92:	4a09      	ldr	r2, [pc, #36]	@ (8002fb8 <HAL_RCC_ClockConfig+0x1cc>)
 8002f94:	6013      	str	r3, [r2, #0]

  /* Configure the source of time base considering new system clocks settings*/
  HAL_InitTick(uwTickPrio);
 8002f96:	4b09      	ldr	r3, [pc, #36]	@ (8002fbc <HAL_RCC_ClockConfig+0x1d0>)
 8002f98:	681b      	ldr	r3, [r3, #0]
 8002f9a:	4618      	mov	r0, r3
 8002f9c:	f7fe fc06 	bl	80017ac <HAL_InitTick>

  return HAL_OK;
 8002fa0:	2300      	movs	r3, #0
}
 8002fa2:	4618      	mov	r0, r3
 8002fa4:	3710      	adds	r7, #16
 8002fa6:	46bd      	mov	sp, r7
 8002fa8:	bd80      	pop	{r7, pc}
 8002faa:	bf00      	nop
 8002fac:	40022000 	.word	0x40022000
 8002fb0:	40021000 	.word	0x40021000
 8002fb4:	08004ee0 	.word	0x08004ee0
 8002fb8:	20000000 	.word	0x20000000
 8002fbc:	20000004 	.word	0x20000004

08002fc0 <HAL_RCC_GetSysClockFreq>:
  *         right SYSCLK value. Otherwise, any configuration based on this function will be incorrect.
  *
  * @retval SYSCLK frequency
  */
uint32_t HAL_RCC_GetSysClockFreq(void)
{
 8002fc0:	b480      	push	{r7}
 8002fc2:	b087      	sub	sp, #28
 8002fc4:	af00      	add	r7, sp, #0
#else
  static const uint8_t aPredivFactorTable[2U] = {1, 2};
#endif /*RCC_CFGR2_PREDIV1*/

#endif
  uint32_t tmpreg = 0U, prediv = 0U, pllclk = 0U, pllmul = 0U;
 8002fc6:	2300      	movs	r3, #0
 8002fc8:	60fb      	str	r3, [r7, #12]
 8002fca:	2300      	movs	r3, #0
 8002fcc:	60bb      	str	r3, [r7, #8]
 8002fce:	2300      	movs	r3, #0
 8002fd0:	617b      	str	r3, [r7, #20]
 8002fd2:	2300      	movs	r3, #0
 8002fd4:	607b      	str	r3, [r7, #4]
  uint32_t sysclockfreq = 0U;
 8002fd6:	2300      	movs	r3, #0
 8002fd8:	613b      	str	r3, [r7, #16]
#if defined(RCC_CFGR2_PREDIV1SRC)
  uint32_t prediv2 = 0U, pll2mul = 0U;
#endif /*RCC_CFGR2_PREDIV1SRC*/

  tmpreg = RCC->CFGR;
 8002fda:	4b1e      	ldr	r3, [pc, #120]	@ (8003054 <HAL_RCC_GetSysClockFreq+0x94>)
 8002fdc:	685b      	ldr	r3, [r3, #4]
 8002fde:	60fb      	str	r3, [r7, #12]

  /* Get SYSCLK source -------------------------------------------------------*/
  switch (tmpreg & RCC_CFGR_SWS)
 8002fe0:	68fb      	ldr	r3, [r7, #12]
 8002fe2:	f003 030c 	and.w	r3, r3, #12
 8002fe6:	2b04      	cmp	r3, #4
 8002fe8:	d002      	beq.n	8002ff0 <HAL_RCC_GetSysClockFreq+0x30>
 8002fea:	2b08      	cmp	r3, #8
 8002fec:	d003      	beq.n	8002ff6 <HAL_RCC_GetSysClockFreq+0x36>
 8002fee:	e027      	b.n	8003040 <HAL_RCC_GetSysClockFreq+0x80>
  {
    case RCC_SYSCLKSOURCE_STATUS_HSE:  /* HSE used as system clock */
    {
      sysclockfreq = HSE_VALUE;
 8002ff0:	4b19      	ldr	r3, [pc, #100]	@ (8003058 <HAL_RCC_GetSysClockFreq+0x98>)
 8002ff2:	613b      	str	r3, [r7, #16]
      break;
 8002ff4:	e027      	b.n	8003046 <HAL_RCC_GetSysClockFreq+0x86>
    }
    case RCC_SYSCLKSOURCE_STATUS_PLLCLK:  /* PLL used as system clock */
    {
      pllmul = aPLLMULFactorTable[(uint32_t)(tmpreg & RCC_CFGR_PLLMULL) >> RCC_CFGR_PLLMULL_Pos];
 8002ff6:	68fb      	ldr	r3, [r7, #12]
 8002ff8:	0c9b      	lsrs	r3, r3, #18
 8002ffa:	f003 030f 	and.w	r3, r3, #15
 8002ffe:	4a17      	ldr	r2, [pc, #92]	@ (800305c <HAL_RCC_GetSysClockFreq+0x9c>)
 8003000:	5cd3      	ldrb	r3, [r2, r3]
 8003002:	607b      	str	r3, [r7, #4]
      if ((tmpreg & RCC_CFGR_PLLSRC) != RCC_PLLSOURCE_HSI_DIV2)
 8003004:	68fb      	ldr	r3, [r7, #12]
 8003006:	f403 3380 	and.w	r3, r3, #65536	@ 0x10000
 800300a:	2b00      	cmp	r3, #0
 800300c:	d010      	beq.n	8003030 <HAL_RCC_GetSysClockFreq+0x70>
      {
#if defined(RCC_CFGR2_PREDIV1)
        prediv = aPredivFactorTable[(uint32_t)(RCC->CFGR2 & RCC_CFGR2_PREDIV1) >> RCC_CFGR2_PREDIV1_Pos];
#else
        prediv = aPredivFactorTable[(uint32_t)(RCC->CFGR & RCC_CFGR_PLLXTPRE) >> RCC_CFGR_PLLXTPRE_Pos];
 800300e:	4b11      	ldr	r3, [pc, #68]	@ (8003054 <HAL_RCC_GetSysClockFreq+0x94>)
 8003010:	685b      	ldr	r3, [r3, #4]
 8003012:	0c5b      	lsrs	r3, r3, #17
 8003014:	f003 0301 	and.w	r3, r3, #1
 8003018:	4a11      	ldr	r2, [pc, #68]	@ (8003060 <HAL_RCC_GetSysClockFreq+0xa0>)
 800301a:	5cd3      	ldrb	r3, [r2, r3]
 800301c:	60bb      	str	r3, [r7, #8]
        {
          pllclk = pllclk / 2;
        }
#else
        /* HSE used as PLL clock source : PLLCLK = HSE/PREDIV1 * PLLMUL */
        pllclk = (uint32_t)((HSE_VALUE  * pllmul) / prediv);
 800301e:	687b      	ldr	r3, [r7, #4]
 8003020:	4a0d      	ldr	r2, [pc, #52]	@ (8003058 <HAL_RCC_GetSysClockFreq+0x98>)
 8003022:	fb03 f202 	mul.w	r2, r3, r2
 8003026:	68bb      	ldr	r3, [r7, #8]
 8003028:	fbb2 f3f3 	udiv	r3, r2, r3
 800302c:	617b      	str	r3, [r7, #20]
 800302e:	e004      	b.n	800303a <HAL_RCC_GetSysClockFreq+0x7a>
#endif /*RCC_CFGR2_PREDIV1SRC*/
      }
      else
      {
        /* HSI used as PLL clock source : PLLCLK = HSI/2 * PLLMUL */
        pllclk = (uint32_t)((HSI_VALUE >> 1) * pllmul);
 8003030:	687b      	ldr	r3, [r7, #4]
 8003032:	4a0c      	ldr	r2, [pc, #48]	@ (8003064 <HAL_RCC_GetSysClockFreq+0xa4>)
 8003034:	fb02 f303 	mul.w	r3, r2, r3
 8003038:	617b      	str	r3, [r7, #20]
      }
      sysclockfreq = pllclk;
 800303a:	697b      	ldr	r3, [r7, #20]
 800303c:	613b      	str	r3, [r7, #16]
      break;
 800303e:	e002      	b.n	8003046 <HAL_RCC_GetSysClockFreq+0x86>
    }
    case RCC_SYSCLKSOURCE_STATUS_HSI:  /* HSI used as system clock source */
    default: /* HSI used as system clock */
    {
      sysclockfreq = HSI_VALUE;
 8003040:	4b05      	ldr	r3, [pc, #20]	@ (8003058 <HAL_RCC_GetSysClockFreq+0x98>)
 8003042:	613b      	str	r3, [r7, #16]
      break;
 8003044:	bf00      	nop
    }
  }
  return sysclockfreq;
 8003046:	693b      	ldr	r3, [r7, #16]
}
 8003048:	4618      	mov	r0, r3
 800304a:	371c      	adds	r7, #28
 800304c:	46bd      	mov	sp, r7
 800304e:	bc80      	pop	{r7}
 8003050:	4770      	bx	lr
 8003052:	bf00      	nop
 8003054:	40021000 	.word	0x40021000
 8003058:	007a1200 	.word	0x007a1200
 800305c:	08004ef0 	.word	0x08004ef0
 8003060:	08004f00 	.word	0x08004f00
 8003064:	003d0900 	.word	0x003d0900

08003068 <RCC_Delay>:
  * @brief  This function provides delay (in milliseconds) based on CPU cycles method.
  * @param  mdelay: specifies the delay time length, in milliseconds.
  * @retval None
  */
static void RCC_Delay(uint32_t mdelay)
{
 8003068:	b480      	push	{r7}
 800306a:	b085      	sub	sp, #20
 800306c:	af00      	add	r7, sp, #0
 800306e:	6078      	str	r0, [r7, #4]
  __IO uint32_t Delay = mdelay * (SystemCoreClock / 8U / 1000U);
 8003070:	4b0a      	ldr	r3, [pc, #40]	@ (800309c <RCC_Delay+0x34>)
 8003072:	681b      	ldr	r3, [r3, #0]
 8003074:	4a0a      	ldr	r2, [pc, #40]	@ (80030a0 <RCC_Delay+0x38>)
 8003076:	fba2 2303 	umull	r2, r3, r2, r3
 800307a:	0a5b      	lsrs	r3, r3, #9
 800307c:	687a      	ldr	r2, [r7, #4]
 800307e:	fb02 f303 	mul.w	r3, r2, r3
 8003082:	60fb      	str	r3, [r7, #12]
  do
  {
    __NOP();
 8003084:	bf00      	nop
  }
  while (Delay --);
 8003086:	68fb      	ldr	r3, [r7, #12]
 8003088:	1e5a      	subs	r2, r3, #1
 800308a:	60fa      	str	r2, [r7, #12]
 800308c:	2b00      	cmp	r3, #0
 800308e:	d1f9      	bne.n	8003084 <RCC_Delay+0x1c>
}
 8003090:	bf00      	nop
 8003092:	bf00      	nop
 8003094:	3714      	adds	r7, #20
 8003096:	46bd      	mov	sp, r7
 8003098:	bc80      	pop	{r7}
 800309a:	4770      	bx	lr
 800309c:	20000000 	.word	0x20000000
 80030a0:	10624dd3 	.word	0x10624dd3

080030a4 <HAL_RCCEx_PeriphCLKConfig>:
  *         manually disable it.
  *
  * @retval HAL status
  */
HAL_StatusTypeDef HAL_RCCEx_PeriphCLKConfig(RCC_PeriphCLKInitTypeDef  *PeriphClkInit)
{
 80030a4:	b580      	push	{r7, lr}
 80030a6:	b086      	sub	sp, #24
 80030a8:	af00      	add	r7, sp, #0
 80030aa:	6078      	str	r0, [r7, #4]
  uint32_t tickstart = 0U, temp_reg = 0U;
 80030ac:	2300      	movs	r3, #0
 80030ae:	613b      	str	r3, [r7, #16]
 80030b0:	2300      	movs	r3, #0
 80030b2:	60fb      	str	r3, [r7, #12]

  /* Check the parameters */
  assert_param(IS_RCC_PERIPHCLOCK(PeriphClkInit->PeriphClockSelection));

  /*------------------------------- RTC/LCD Configuration ------------------------*/
  if ((((PeriphClkInit->PeriphClockSelection) & RCC_PERIPHCLK_RTC) == RCC_PERIPHCLK_RTC))
 80030b4:	687b      	ldr	r3, [r7, #4]
 80030b6:	681b      	ldr	r3, [r3, #0]
 80030b8:	f003 0301 	and.w	r3, r3, #1
 80030bc:	2b00      	cmp	r3, #0
 80030be:	d07d      	beq.n	80031bc <HAL_RCCEx_PeriphCLKConfig+0x118>
  {
    FlagStatus pwrclkchanged = RESET;
 80030c0:	2300      	movs	r3, #0
 80030c2:	75fb      	strb	r3, [r7, #23]
    assert_param(IS_RCC_RTCCLKSOURCE(PeriphClkInit->RTCClockSelection));

    /* As soon as function is called to change RTC clock source, activation of the
       power domain is done. */
    /* Requires to enable write access to Backup Domain of necessary */
    if (__HAL_RCC_PWR_IS_CLK_DISABLED())
 80030c4:	4b4f      	ldr	r3, [pc, #316]	@ (8003204 <HAL_RCCEx_PeriphCLKConfig+0x160>)
 80030c6:	69db      	ldr	r3, [r3, #28]
 80030c8:	f003 5380 	and.w	r3, r3, #268435456	@ 0x10000000
 80030cc:	2b00      	cmp	r3, #0
 80030ce:	d10d      	bne.n	80030ec <HAL_RCCEx_PeriphCLKConfig+0x48>
    {
      __HAL_RCC_PWR_CLK_ENABLE();
 80030d0:	4b4c      	ldr	r3, [pc, #304]	@ (8003204 <HAL_RCCEx_PeriphCLKConfig+0x160>)
 80030d2:	69db      	ldr	r3, [r3, #28]
 80030d4:	4a4b      	ldr	r2, [pc, #300]	@ (8003204 <HAL_RCCEx_PeriphCLKConfig+0x160>)
 80030d6:	f043 5380 	orr.w	r3, r3, #268435456	@ 0x10000000
 80030da:	61d3      	str	r3, [r2, #28]
 80030dc:	4b49      	ldr	r3, [pc, #292]	@ (8003204 <HAL_RCCEx_PeriphCLKConfig+0x160>)
 80030de:	69db      	ldr	r3, [r3, #28]
 80030e0:	f003 5380 	and.w	r3, r3, #268435456	@ 0x10000000
 80030e4:	60bb      	str	r3, [r7, #8]
 80030e6:	68bb      	ldr	r3, [r7, #8]
      pwrclkchanged = SET;
 80030e8:	2301      	movs	r3, #1
 80030ea:	75fb      	strb	r3, [r7, #23]
    }

    if (HAL_IS_BIT_CLR(PWR->CR, PWR_CR_DBP))
 80030ec:	4b46      	ldr	r3, [pc, #280]	@ (8003208 <HAL_RCCEx_PeriphCLKConfig+0x164>)
 80030ee:	681b      	ldr	r3, [r3, #0]
 80030f0:	f403 7380 	and.w	r3, r3, #256	@ 0x100
 80030f4:	2b00      	cmp	r3, #0
 80030f6:	d118      	bne.n	800312a <HAL_RCCEx_PeriphCLKConfig+0x86>
    {
      /* Enable write access to Backup domain */
      SET_BIT(PWR->CR, PWR_CR_DBP);
 80030f8:	4b43      	ldr	r3, [pc, #268]	@ (8003208 <HAL_RCCEx_PeriphCLKConfig+0x164>)
 80030fa:	681b      	ldr	r3, [r3, #0]
 80030fc:	4a42      	ldr	r2, [pc, #264]	@ (8003208 <HAL_RCCEx_PeriphCLKConfig+0x164>)
 80030fe:	f443 7380 	orr.w	r3, r3, #256	@ 0x100
 8003102:	6013      	str	r3, [r2, #0]

      /* Wait for Backup domain Write protection disable */
      tickstart = HAL_GetTick();
 8003104:	f7fe fb94 	bl	8001830 <HAL_GetTick>
 8003108:	6138      	str	r0, [r7, #16]

      while (HAL_IS_BIT_CLR(PWR->CR, PWR_CR_DBP))
 800310a:	e008      	b.n	800311e <HAL_RCCEx_PeriphCLKConfig+0x7a>
      {
        if ((HAL_GetTick() - tickstart) > RCC_DBP_TIMEOUT_VALUE)
 800310c:	f7fe fb90 	bl	8001830 <HAL_GetTick>
 8003110:	4602      	mov	r2, r0
 8003112:	693b      	ldr	r3, [r7, #16]
 8003114:	1ad3      	subs	r3, r2, r3
 8003116:	2b64      	cmp	r3, #100	@ 0x64
 8003118:	d901      	bls.n	800311e <HAL_RCCEx_PeriphCLKConfig+0x7a>
        {
          return HAL_TIMEOUT;
 800311a:	2303      	movs	r3, #3
 800311c:	e06d      	b.n	80031fa <HAL_RCCEx_PeriphCLKConfig+0x156>
      while (HAL_IS_BIT_CLR(PWR->CR, PWR_CR_DBP))
 800311e:	4b3a      	ldr	r3, [pc, #232]	@ (8003208 <HAL_RCCEx_PeriphCLKConfig+0x164>)
 8003120:	681b      	ldr	r3, [r3, #0]
 8003122:	f403 7380 	and.w	r3, r3, #256	@ 0x100
 8003126:	2b00      	cmp	r3, #0
 8003128:	d0f0      	beq.n	800310c <HAL_RCCEx_PeriphCLKConfig+0x68>
        }
      }
    }

    /* Reset the Backup domain only if the RTC Clock source selection is modified from reset value */
    temp_reg = (RCC->BDCR & RCC_BDCR_RTCSEL);
 800312a:	4b36      	ldr	r3, [pc, #216]	@ (8003204 <HAL_RCCEx_PeriphCLKConfig+0x160>)
 800312c:	6a1b      	ldr	r3, [r3, #32]
 800312e:	f403 7340 	and.w	r3, r3, #768	@ 0x300
 8003132:	60fb      	str	r3, [r7, #12]
    if ((temp_reg != 0x00000000U) && (temp_reg != (PeriphClkInit->RTCClockSelection & RCC_BDCR_RTCSEL)))
 8003134:	68fb      	ldr	r3, [r7, #12]
 8003136:	2b00      	cmp	r3, #0
 8003138:	d02e      	beq.n	8003198 <HAL_RCCEx_PeriphCLKConfig+0xf4>
 800313a:	687b      	ldr	r3, [r7, #4]
 800313c:	685b      	ldr	r3, [r3, #4]
 800313e:	f403 7340 	and.w	r3, r3, #768	@ 0x300
 8003142:	68fa      	ldr	r2, [r7, #12]
 8003144:	429a      	cmp	r2, r3
 8003146:	d027      	beq.n	8003198 <HAL_RCCEx_PeriphCLKConfig+0xf4>
    {
      /* Store the content of BDCR register before the reset of Backup Domain */
      temp_reg = (RCC->BDCR & ~(RCC_BDCR_RTCSEL));
 8003148:	4b2e      	ldr	r3, [pc, #184]	@ (8003204 <HAL_RCCEx_PeriphCLKConfig+0x160>)
 800314a:	6a1b      	ldr	r3, [r3, #32]
 800314c:	f423 7340 	bic.w	r3, r3, #768	@ 0x300
 8003150:	60fb      	str	r3, [r7, #12]
      /* RTC Clock selection can be changed only if the Backup Domain is reset */
      __HAL_RCC_BACKUPRESET_FORCE();
 8003152:	4b2e      	ldr	r3, [pc, #184]	@ (800320c <HAL_RCCEx_PeriphCLKConfig+0x168>)
 8003154:	2201      	movs	r2, #1
 8003156:	601a      	str	r2, [r3, #0]
      __HAL_RCC_BACKUPRESET_RELEASE();
 8003158:	4b2c      	ldr	r3, [pc, #176]	@ (800320c <HAL_RCCEx_PeriphCLKConfig+0x168>)
 800315a:	2200      	movs	r2, #0
 800315c:	601a      	str	r2, [r3, #0]
      /* Restore the Content of BDCR register */
      RCC->BDCR = temp_reg;
 800315e:	4a29      	ldr	r2, [pc, #164]	@ (8003204 <HAL_RCCEx_PeriphCLKConfig+0x160>)
 8003160:	68fb      	ldr	r3, [r7, #12]
 8003162:	6213      	str	r3, [r2, #32]

      /* Wait for LSERDY if LSE was enabled */
      if (HAL_IS_BIT_SET(temp_reg, RCC_BDCR_LSEON))
 8003164:	68fb      	ldr	r3, [r7, #12]
 8003166:	f003 0301 	and.w	r3, r3, #1
 800316a:	2b00      	cmp	r3, #0
 800316c:	d014      	beq.n	8003198 <HAL_RCCEx_PeriphCLKConfig+0xf4>
      {
        /* Get Start Tick */
        tickstart = HAL_GetTick();
 800316e:	f7fe fb5f 	bl	8001830 <HAL_GetTick>
 8003172:	6138      	str	r0, [r7, #16]

        /* Wait till LSE is ready */
        while (__HAL_RCC_GET_FLAG(RCC_FLAG_LSERDY) == RESET)
 8003174:	e00a      	b.n	800318c <HAL_RCCEx_PeriphCLKConfig+0xe8>
        {
          if ((HAL_GetTick() - tickstart) > RCC_LSE_TIMEOUT_VALUE)
 8003176:	f7fe fb5b 	bl	8001830 <HAL_GetTick>
 800317a:	4602      	mov	r2, r0
 800317c:	693b      	ldr	r3, [r7, #16]
 800317e:	1ad3      	subs	r3, r2, r3
 8003180:	f241 3288 	movw	r2, #5000	@ 0x1388
 8003184:	4293      	cmp	r3, r2
 8003186:	d901      	bls.n	800318c <HAL_RCCEx_PeriphCLKConfig+0xe8>
          {
            return HAL_TIMEOUT;
 8003188:	2303      	movs	r3, #3
 800318a:	e036      	b.n	80031fa <HAL_RCCEx_PeriphCLKConfig+0x156>
        while (__HAL_RCC_GET_FLAG(RCC_FLAG_LSERDY) == RESET)
 800318c:	4b1d      	ldr	r3, [pc, #116]	@ (8003204 <HAL_RCCEx_PeriphCLKConfig+0x160>)
 800318e:	6a1b      	ldr	r3, [r3, #32]
 8003190:	f003 0302 	and.w	r3, r3, #2
 8003194:	2b00      	cmp	r3, #0
 8003196:	d0ee      	beq.n	8003176 <HAL_RCCEx_PeriphCLKConfig+0xd2>
          }
        }
      }
    }
    __HAL_RCC_RTC_CONFIG(PeriphClkInit->RTCClockSelection);
 8003198:	4b1a      	ldr	r3, [pc, #104]	@ (8003204 <HAL_RCCEx_PeriphCLKConfig+0x160>)
 800319a:	6a1b      	ldr	r3, [r3, #32]
 800319c:	f423 7240 	bic.w	r2, r3, #768	@ 0x300
 80031a0:	687b      	ldr	r3, [r7, #4]
 80031a2:	685b      	ldr	r3, [r3, #4]
 80031a4:	4917      	ldr	r1, [pc, #92]	@ (8003204 <HAL_RCCEx_PeriphCLKConfig+0x160>)
 80031a6:	4313      	orrs	r3, r2
 80031a8:	620b      	str	r3, [r1, #32]

    /* Require to disable power clock if necessary */
    if (pwrclkchanged == SET)
 80031aa:	7dfb      	ldrb	r3, [r7, #23]
 80031ac:	2b01      	cmp	r3, #1
 80031ae:	d105      	bne.n	80031bc <HAL_RCCEx_PeriphCLKConfig+0x118>
    {
      __HAL_RCC_PWR_CLK_DISABLE();
 80031b0:	4b14      	ldr	r3, [pc, #80]	@ (8003204 <HAL_RCCEx_PeriphCLKConfig+0x160>)
 80031b2:	69db      	ldr	r3, [r3, #28]
 80031b4:	4a13      	ldr	r2, [pc, #76]	@ (8003204 <HAL_RCCEx_PeriphCLKConfig+0x160>)
 80031b6:	f023 5380 	bic.w	r3, r3, #268435456	@ 0x10000000
 80031ba:	61d3      	str	r3, [r2, #28]
    }
  }

  /*------------------------------ ADC clock Configuration ------------------*/
  if (((PeriphClkInit->PeriphClockSelection) & RCC_PERIPHCLK_ADC) == RCC_PERIPHCLK_ADC)
 80031bc:	687b      	ldr	r3, [r7, #4]
 80031be:	681b      	ldr	r3, [r3, #0]
 80031c0:	f003 0302 	and.w	r3, r3, #2
 80031c4:	2b00      	cmp	r3, #0
 80031c6:	d008      	beq.n	80031da <HAL_RCCEx_PeriphCLKConfig+0x136>
  {
    /* Check the parameters */
    assert_param(IS_RCC_ADCPLLCLK_DIV(PeriphClkInit->AdcClockSelection));

    /* Configure the ADC clock source */
    __HAL_RCC_ADC_CONFIG(PeriphClkInit->AdcClockSelection);
 80031c8:	4b0e      	ldr	r3, [pc, #56]	@ (8003204 <HAL_RCCEx_PeriphCLKConfig+0x160>)
 80031ca:	685b      	ldr	r3, [r3, #4]
 80031cc:	f423 4240 	bic.w	r2, r3, #49152	@ 0xc000
 80031d0:	687b      	ldr	r3, [r7, #4]
 80031d2:	689b      	ldr	r3, [r3, #8]
 80031d4:	490b      	ldr	r1, [pc, #44]	@ (8003204 <HAL_RCCEx_PeriphCLKConfig+0x160>)
 80031d6:	4313      	orrs	r3, r2
 80031d8:	604b      	str	r3, [r1, #4]

#if defined(STM32F102x6) || defined(STM32F102xB) || defined(STM32F103x6)\
 || defined(STM32F103xB) || defined(STM32F103xE) || defined(STM32F103xG)\
 || defined(STM32F105xC) || defined(STM32F107xC)
  /*------------------------------ USB clock Configuration ------------------*/
  if (((PeriphClkInit->PeriphClockSelection) & RCC_PERIPHCLK_USB) == RCC_PERIPHCLK_USB)
 80031da:	687b      	ldr	r3, [r7, #4]
 80031dc:	681b      	ldr	r3, [r3, #0]
 80031de:	f003 0310 	and.w	r3, r3, #16
 80031e2:	2b00      	cmp	r3, #0
 80031e4:	d008      	beq.n	80031f8 <HAL_RCCEx_PeriphCLKConfig+0x154>
  {
    /* Check the parameters */
    assert_param(IS_RCC_USBPLLCLK_DIV(PeriphClkInit->UsbClockSelection));

    /* Configure the USB clock source */
    __HAL_RCC_USB_CONFIG(PeriphClkInit->UsbClockSelection);
 80031e6:	4b07      	ldr	r3, [pc, #28]	@ (8003204 <HAL_RCCEx_PeriphCLKConfig+0x160>)
 80031e8:	685b      	ldr	r3, [r3, #4]
 80031ea:	f423 0280 	bic.w	r2, r3, #4194304	@ 0x400000
 80031ee:	687b      	ldr	r3, [r7, #4]
 80031f0:	68db      	ldr	r3, [r3, #12]
 80031f2:	4904      	ldr	r1, [pc, #16]	@ (8003204 <HAL_RCCEx_PeriphCLKConfig+0x160>)
 80031f4:	4313      	orrs	r3, r2
 80031f6:	604b      	str	r3, [r1, #4]
  }
#endif /* STM32F102x6 || STM32F102xB || STM32F103x6 || STM32F103xB || STM32F103xE || STM32F103xG || STM32F105xC || STM32F107xC */

  return HAL_OK;
 80031f8:	2300      	movs	r3, #0
}
 80031fa:	4618      	mov	r0, r3
 80031fc:	3718      	adds	r7, #24
 80031fe:	46bd      	mov	sp, r7
 8003200:	bd80      	pop	{r7, pc}
 8003202:	bf00      	nop
 8003204:	40021000 	.word	0x40021000
 8003208:	40007000 	.word	0x40007000
 800320c:	42420440 	.word	0x42420440

08003210 <HAL_TIM_Base_Init>:
  *         Ex: call @ref HAL_TIM_Base_DeInit() before HAL_TIM_Base_Init()
  * @param  htim TIM Base handle
  * @retval HAL status
  */
HAL_StatusTypeDef HAL_TIM_Base_Init(TIM_HandleTypeDef *htim)
{
 8003210:	b580      	push	{r7, lr}
 8003212:	b082      	sub	sp, #8
 8003214:	af00      	add	r7, sp, #0
 8003216:	6078      	str	r0, [r7, #4]
  /* Check the TIM handle allocation */
  if (htim == NULL)
 8003218:	687b      	ldr	r3, [r7, #4]
 800321a:	2b00      	cmp	r3, #0
 800321c:	d101      	bne.n	8003222 <HAL_TIM_Base_Init+0x12>
  {
    return HAL_ERROR;
 800321e:	2301      	movs	r3, #1
 8003220:	e041      	b.n	80032a6 <HAL_TIM_Base_Init+0x96>
  assert_param(IS_TIM_COUNTER_MODE(htim->Init.CounterMode));
  assert_param(IS_TIM_CLOCKDIVISION_DIV(htim->Init.ClockDivision));
  assert_param(IS_TIM_PERIOD(htim->Init.Period));
  assert_param(IS_TIM_AUTORELOAD_PRELOAD(htim->Init.AutoReloadPreload));

  if (htim->State == HAL_TIM_STATE_RESET)
 8003222:	687b      	ldr	r3, [r7, #4]
 8003224:	f893 303d 	ldrb.w	r3, [r3, #61]	@ 0x3d
 8003228:	b2db      	uxtb	r3, r3
 800322a:	2b00      	cmp	r3, #0
 800322c:	d106      	bne.n	800323c <HAL_TIM_Base_Init+0x2c>
  {
    /* Allocate lock resource and initialize it */
    htim->Lock = HAL_UNLOCKED;
 800322e:	687b      	ldr	r3, [r7, #4]
 8003230:	2200      	movs	r2, #0
 8003232:	f883 203c 	strb.w	r2, [r3, #60]	@ 0x3c
    }
    /* Init the low level hardware : GPIO, CLOCK, NVIC */
    htim->Base_MspInitCallback(htim);
#else
    /* Init the low level hardware : GPIO, CLOCK, NVIC */
    HAL_TIM_Base_MspInit(htim);
 8003236:	6878      	ldr	r0, [r7, #4]
 8003238:	f7fe fa22 	bl	8001680 <HAL_TIM_Base_MspInit>
#endif /* USE_HAL_TIM_REGISTER_CALLBACKS */
  }

  /* Set the TIM state */
  htim->State = HAL_TIM_STATE_BUSY;
 800323c:	687b      	ldr	r3, [r7, #4]
 800323e:	2202      	movs	r2, #2
 8003240:	f883 203d 	strb.w	r2, [r3, #61]	@ 0x3d

  /* Set the Time Base configuration */
  TIM_Base_SetConfig(htim->Instance, &htim->Init);
 8003244:	687b      	ldr	r3, [r7, #4]
 8003246:	681a      	ldr	r2, [r3, #0]
 8003248:	687b      	ldr	r3, [r7, #4]
 800324a:	3304      	adds	r3, #4
 800324c:	4619      	mov	r1, r3
 800324e:	4610      	mov	r0, r2
 8003250:	f000 fa5a 	bl	8003708 <TIM_Base_SetConfig>

  /* Initialize the DMA burst operation state */
  htim->DMABurstState = HAL_DMA_BURST_STATE_READY;
 8003254:	687b      	ldr	r3, [r7, #4]
 8003256:	2201      	movs	r2, #1
 8003258:	f883 2046 	strb.w	r2, [r3, #70]	@ 0x46

  /* Initialize the TIM channels state */
  TIM_CHANNEL_STATE_SET_ALL(htim, HAL_TIM_CHANNEL_STATE_READY);
 800325c:	687b      	ldr	r3, [r7, #4]
 800325e:	2201      	movs	r2, #1
 8003260:	f883 203e 	strb.w	r2, [r3, #62]	@ 0x3e
 8003264:	687b      	ldr	r3, [r7, #4]
 8003266:	2201      	movs	r2, #1
 8003268:	f883 203f 	strb.w	r2, [r3, #63]	@ 0x3f
 800326c:	687b      	ldr	r3, [r7, #4]
 800326e:	2201      	movs	r2, #1
 8003270:	f883 2040 	strb.w	r2, [r3, #64]	@ 0x40
 8003274:	687b      	ldr	r3, [r7, #4]
 8003276:	2201      	movs	r2, #1
 8003278:	f883 2041 	strb.w	r2, [r3, #65]	@ 0x41
  TIM_CHANNEL_N_STATE_SET_ALL(htim, HAL_TIM_CHANNEL_STATE_READY);
 800327c:	687b      	ldr	r3, [r7, #4]
 800327e:	2201      	movs	r2, #1
 8003280:	f883 2042 	strb.w	r2, [r3, #66]	@ 0x42
 8003284:	687b      	ldr	r3, [r7, #4]
 8003286:	2201      	movs	r2, #1
 8003288:	f883 2043 	strb.w	r2, [r3, #67]	@ 0x43
 800328c:	687b      	ldr	r3, [r7, #4]
 800328e:	2201      	movs	r2, #1
 8003290:	f883 2044 	strb.w	r2, [r3, #68]	@ 0x44
 8003294:	687b      	ldr	r3, [r7, #4]
 8003296:	2201      	movs	r2, #1
 8003298:	f883 2045 	strb.w	r2, [r3, #69]	@ 0x45

  /* Initialize the TIM state*/
  htim->State = HAL_TIM_STATE_READY;
 800329c:	687b      	ldr	r3, [r7, #4]
 800329e:	2201      	movs	r2, #1
 80032a0:	f883 203d 	strb.w	r2, [r3, #61]	@ 0x3d

  return HAL_OK;
 80032a4:	2300      	movs	r3, #0
}
 80032a6:	4618      	mov	r0, r3
 80032a8:	3708      	adds	r7, #8
 80032aa:	46bd      	mov	sp, r7
 80032ac:	bd80      	pop	{r7, pc}
	...

080032b0 <HAL_TIM_Base_Start>:
  * @brief  Starts the TIM Base generation.
  * @param  htim TIM Base handle
  * @retval HAL status
  */
HAL_StatusTypeDef HAL_TIM_Base_Start(TIM_HandleTypeDef *htim)
{
 80032b0:	b480      	push	{r7}
 80032b2:	b085      	sub	sp, #20
 80032b4:	af00      	add	r7, sp, #0
 80032b6:	6078      	str	r0, [r7, #4]

  /* Check the parameters */
  assert_param(IS_TIM_INSTANCE(htim->Instance));

  /* Check the TIM state */
  if (htim->State != HAL_TIM_STATE_READY)
 80032b8:	687b      	ldr	r3, [r7, #4]
 80032ba:	f893 303d 	ldrb.w	r3, [r3, #61]	@ 0x3d
 80032be:	b2db      	uxtb	r3, r3
 80032c0:	2b01      	cmp	r3, #1
 80032c2:	d001      	beq.n	80032c8 <HAL_TIM_Base_Start+0x18>
  {
    return HAL_ERROR;
 80032c4:	2301      	movs	r3, #1
 80032c6:	e032      	b.n	800332e <HAL_TIM_Base_Start+0x7e>
  }

  /* Set the TIM state */
  htim->State = HAL_TIM_STATE_BUSY;
 80032c8:	687b      	ldr	r3, [r7, #4]
 80032ca:	2202      	movs	r2, #2
 80032cc:	f883 203d 	strb.w	r2, [r3, #61]	@ 0x3d

  /* Enable the Peripheral, except in trigger mode where enable is automatically done with trigger */
  if (IS_TIM_SLAVE_INSTANCE(htim->Instance))
 80032d0:	687b      	ldr	r3, [r7, #4]
 80032d2:	681b      	ldr	r3, [r3, #0]
 80032d4:	4a18      	ldr	r2, [pc, #96]	@ (8003338 <HAL_TIM_Base_Start+0x88>)
 80032d6:	4293      	cmp	r3, r2
 80032d8:	d00e      	beq.n	80032f8 <HAL_TIM_Base_Start+0x48>
 80032da:	687b      	ldr	r3, [r7, #4]
 80032dc:	681b      	ldr	r3, [r3, #0]
 80032de:	f1b3 4f80 	cmp.w	r3, #1073741824	@ 0x40000000
 80032e2:	d009      	beq.n	80032f8 <HAL_TIM_Base_Start+0x48>
 80032e4:	687b      	ldr	r3, [r7, #4]
 80032e6:	681b      	ldr	r3, [r3, #0]
 80032e8:	4a14      	ldr	r2, [pc, #80]	@ (800333c <HAL_TIM_Base_Start+0x8c>)
 80032ea:	4293      	cmp	r3, r2
 80032ec:	d004      	beq.n	80032f8 <HAL_TIM_Base_Start+0x48>
 80032ee:	687b      	ldr	r3, [r7, #4]
 80032f0:	681b      	ldr	r3, [r3, #0]
 80032f2:	4a13      	ldr	r2, [pc, #76]	@ (8003340 <HAL_TIM_Base_Start+0x90>)
 80032f4:	4293      	cmp	r3, r2
 80032f6:	d111      	bne.n	800331c <HAL_TIM_Base_Start+0x6c>
  {
    tmpsmcr = htim->Instance->SMCR & TIM_SMCR_SMS;
 80032f8:	687b      	ldr	r3, [r7, #4]
 80032fa:	681b      	ldr	r3, [r3, #0]
 80032fc:	689b      	ldr	r3, [r3, #8]
 80032fe:	f003 0307 	and.w	r3, r3, #7
 8003302:	60fb      	str	r3, [r7, #12]
    if (!IS_TIM_SLAVEMODE_TRIGGER_ENABLED(tmpsmcr))
 8003304:	68fb      	ldr	r3, [r7, #12]
 8003306:	2b06      	cmp	r3, #6
 8003308:	d010      	beq.n	800332c <HAL_TIM_Base_Start+0x7c>
    {
      __HAL_TIM_ENABLE(htim);
 800330a:	687b      	ldr	r3, [r7, #4]
 800330c:	681b      	ldr	r3, [r3, #0]
 800330e:	681a      	ldr	r2, [r3, #0]
 8003310:	687b      	ldr	r3, [r7, #4]
 8003312:	681b      	ldr	r3, [r3, #0]
 8003314:	f042 0201 	orr.w	r2, r2, #1
 8003318:	601a      	str	r2, [r3, #0]
    if (!IS_TIM_SLAVEMODE_TRIGGER_ENABLED(tmpsmcr))
 800331a:	e007      	b.n	800332c <HAL_TIM_Base_Start+0x7c>
    }
  }
  else
  {
    __HAL_TIM_ENABLE(htim);
 800331c:	687b      	ldr	r3, [r7, #4]
 800331e:	681b      	ldr	r3, [r3, #0]
 8003320:	681a      	ldr	r2, [r3, #0]
 8003322:	687b      	ldr	r3, [r7, #4]
 8003324:	681b      	ldr	r3, [r3, #0]
 8003326:	f042 0201 	orr.w	r2, r2, #1
 800332a:	601a      	str	r2, [r3, #0]
  }

  /* Return function status */
  return HAL_OK;
 800332c:	2300      	movs	r3, #0
}
 800332e:	4618      	mov	r0, r3
 8003330:	3714      	adds	r7, #20
 8003332:	46bd      	mov	sp, r7
 8003334:	bc80      	pop	{r7}
 8003336:	4770      	bx	lr
 8003338:	40012c00 	.word	0x40012c00
 800333c:	40000400 	.word	0x40000400
 8003340:	40000800 	.word	0x40000800

08003344 <HAL_TIM_PWM_Init>:
  *         Ex: call @ref HAL_TIM_PWM_DeInit() before HAL_TIM_PWM_Init()
  * @param  htim TIM PWM handle
  * @retval HAL status
  */
HAL_StatusTypeDef HAL_TIM_PWM_Init(TIM_HandleTypeDef *htim)
{
 8003344:	b580      	push	{r7, lr}
 8003346:	b082      	sub	sp, #8
 8003348:	af00      	add	r7, sp, #0
 800334a:	6078      	str	r0, [r7, #4]
  /* Check the TIM handle allocation */
  if (htim == NULL)
 800334c:	687b      	ldr	r3, [r7, #4]
 800334e:	2b00      	cmp	r3, #0
 8003350:	d101      	bne.n	8003356 <HAL_TIM_PWM_Init+0x12>
  {
    return HAL_ERROR;
 8003352:	2301      	movs	r3, #1
 8003354:	e041      	b.n	80033da <HAL_TIM_PWM_Init+0x96>
  assert_param(IS_TIM_COUNTER_MODE(htim->Init.CounterMode));
  assert_param(IS_TIM_CLOCKDIVISION_DIV(htim->Init.ClockDivision));
  assert_param(IS_TIM_PERIOD(htim->Init.Period));
  assert_param(IS_TIM_AUTORELOAD_PRELOAD(htim->Init.AutoReloadPreload));

  if (htim->State == HAL_TIM_STATE_RESET)
 8003356:	687b      	ldr	r3, [r7, #4]
 8003358:	f893 303d 	ldrb.w	r3, [r3, #61]	@ 0x3d
 800335c:	b2db      	uxtb	r3, r3
 800335e:	2b00      	cmp	r3, #0
 8003360:	d106      	bne.n	8003370 <HAL_TIM_PWM_Init+0x2c>
  {
    /* Allocate lock resource and initialize it */
    htim->Lock = HAL_UNLOCKED;
 8003362:	687b      	ldr	r3, [r7, #4]
 8003364:	2200      	movs	r2, #0
 8003366:	f883 203c 	strb.w	r2, [r3, #60]	@ 0x3c
    }
    /* Init the low level hardware : GPIO, CLOCK, NVIC */
    htim->PWM_MspInitCallback(htim);
#else
    /* Init the low level hardware : GPIO, CLOCK, NVIC and DMA */
    HAL_TIM_PWM_MspInit(htim);
 800336a:	6878      	ldr	r0, [r7, #4]
 800336c:	f000 f839 	bl	80033e2 <HAL_TIM_PWM_MspInit>
#endif /* USE_HAL_TIM_REGISTER_CALLBACKS */
  }

  /* Set the TIM state */
  htim->State = HAL_TIM_STATE_BUSY;
 8003370:	687b      	ldr	r3, [r7, #4]
 8003372:	2202      	movs	r2, #2
 8003374:	f883 203d 	strb.w	r2, [r3, #61]	@ 0x3d

  /* Init the base time for the PWM */
  TIM_Base_SetConfig(htim->Instance, &htim->Init);
 8003378:	687b      	ldr	r3, [r7, #4]
 800337a:	681a      	ldr	r2, [r3, #0]
 800337c:	687b      	ldr	r3, [r7, #4]
 800337e:	3304      	adds	r3, #4
 8003380:	4619      	mov	r1, r3
 8003382:	4610      	mov	r0, r2
 8003384:	f000 f9c0 	bl	8003708 <TIM_Base_SetConfig>

  /* Initialize the DMA burst operation state */
  htim->DMABurstState = HAL_DMA_BURST_STATE_READY;
 8003388:	687b      	ldr	r3, [r7, #4]
 800338a:	2201      	movs	r2, #1
 800338c:	f883 2046 	strb.w	r2, [r3, #70]	@ 0x46

  /* Initialize the TIM channels state */
  TIM_CHANNEL_STATE_SET_ALL(htim, HAL_TIM_CHANNEL_STATE_READY);
 8003390:	687b      	ldr	r3, [r7, #4]
 8003392:	2201      	movs	r2, #1
 8003394:	f883 203e 	strb.w	r2, [r3, #62]	@ 0x3e
 8003398:	687b      	ldr	r3, [r7, #4]
 800339a:	2201      	movs	r2, #1
 800339c:	f883 203f 	strb.w	r2, [r3, #63]	@ 0x3f
 80033a0:	687b      	ldr	r3, [r7, #4]
 80033a2:	2201      	movs	r2, #1
 80033a4:	f883 2040 	strb.w	r2, [r3, #64]	@ 0x40
 80033a8:	687b      	ldr	r3, [r7, #4]
 80033aa:	2201      	movs	r2, #1
 80033ac:	f883 2041 	strb.w	r2, [r3, #65]	@ 0x41
  TIM_CHANNEL_N_STATE_SET_ALL(htim, HAL_TIM_CHANNEL_STATE_READY);
 80033b0:	687b      	ldr	r3, [r7, #4]
 80033b2:	2201      	movs	r2, #1
 80033b4:	f883 2042 	strb.w	r2, [r3, #66]	@ 0x42
 80033b8:	687b      	ldr	r3, [r7, #4]
 80033ba:	2201      	movs	r2, #1
 80033bc:	f883 2043 	strb.w	r2, [r3, #67]	@ 0x43
 80033c0:	687b      	ldr	r3, [r7, #4]
 80033c2:	2201      	movs	r2, #1
 80033c4:	f883 2044 	strb.w	r2, [r3, #68]	@ 0x44
 80033c8:	687b      	ldr	r3, [r7, #4]
 80033ca:	2201      	movs	r2, #1
 80033cc:	f883 2045 	strb.w	r2, [r3, #69]	@ 0x45

  /* Initialize the TIM state*/
  htim->State = HAL_TIM_STATE_READY;
 80033d0:	687b      	ldr	r3, [r7, #4]
 80033d2:	2201      	movs	r2, #1
 80033d4:	f883 203d 	strb.w	r2, [r3, #61]	@ 0x3d

  return HAL_OK;
 80033d8:	2300      	movs	r3, #0
}
 80033da:	4618      	mov	r0, r3
 80033dc:	3708      	adds	r7, #8
 80033de:	46bd      	mov	sp, r7
 80033e0:	bd80      	pop	{r7, pc}

080033e2 <HAL_TIM_PWM_MspInit>:
  * @brief  Initializes the TIM PWM MSP.
  * @param  htim TIM PWM handle
  * @retval None
  */
__weak void HAL_TIM_PWM_MspInit(TIM_HandleTypeDef *htim)
{
 80033e2:	b480      	push	{r7}
 80033e4:	b083      	sub	sp, #12
 80033e6:	af00      	add	r7, sp, #0
 80033e8:	6078      	str	r0, [r7, #4]
  UNUSED(htim);

  /* NOTE : This function should not be modified, when the callback is needed,
            the HAL_TIM_PWM_MspInit could be implemented in the user file
   */
}
 80033ea:	bf00      	nop
 80033ec:	370c      	adds	r7, #12
 80033ee:	46bd      	mov	sp, r7
 80033f0:	bc80      	pop	{r7}
 80033f2:	4770      	bx	lr

080033f4 <HAL_TIM_PWM_ConfigChannel>:
  * @retval HAL status
  */
HAL_StatusTypeDef HAL_TIM_PWM_ConfigChannel(TIM_HandleTypeDef *htim,
                                            const TIM_OC_InitTypeDef *sConfig,
                                            uint32_t Channel)
{
 80033f4:	b580      	push	{r7, lr}
 80033f6:	b086      	sub	sp, #24
 80033f8:	af00      	add	r7, sp, #0
 80033fa:	60f8      	str	r0, [r7, #12]
 80033fc:	60b9      	str	r1, [r7, #8]
 80033fe:	607a      	str	r2, [r7, #4]
  HAL_StatusTypeDef status = HAL_OK;
 8003400:	2300      	movs	r3, #0
 8003402:	75fb      	strb	r3, [r7, #23]
  assert_param(IS_TIM_PWM_MODE(sConfig->OCMode));
  assert_param(IS_TIM_OC_POLARITY(sConfig->OCPolarity));
  assert_param(IS_TIM_FAST_STATE(sConfig->OCFastMode));

  /* Process Locked */
  __HAL_LOCK(htim);
 8003404:	68fb      	ldr	r3, [r7, #12]
 8003406:	f893 303c 	ldrb.w	r3, [r3, #60]	@ 0x3c
 800340a:	2b01      	cmp	r3, #1
 800340c:	d101      	bne.n	8003412 <HAL_TIM_PWM_ConfigChannel+0x1e>
 800340e:	2302      	movs	r3, #2
 8003410:	e0ae      	b.n	8003570 <HAL_TIM_PWM_ConfigChannel+0x17c>
 8003412:	68fb      	ldr	r3, [r7, #12]
 8003414:	2201      	movs	r2, #1
 8003416:	f883 203c 	strb.w	r2, [r3, #60]	@ 0x3c

  switch (Channel)
 800341a:	687b      	ldr	r3, [r7, #4]
 800341c:	2b0c      	cmp	r3, #12
 800341e:	f200 809f 	bhi.w	8003560 <HAL_TIM_PWM_ConfigChannel+0x16c>
 8003422:	a201      	add	r2, pc, #4	@ (adr r2, 8003428 <HAL_TIM_PWM_ConfigChannel+0x34>)
 8003424:	f852 f023 	ldr.w	pc, [r2, r3, lsl #2]
 8003428:	0800345d 	.word	0x0800345d
 800342c:	08003561 	.word	0x08003561
 8003430:	08003561 	.word	0x08003561
 8003434:	08003561 	.word	0x08003561
 8003438:	0800349d 	.word	0x0800349d
 800343c:	08003561 	.word	0x08003561
 8003440:	08003561 	.word	0x08003561
 8003444:	08003561 	.word	0x08003561
 8003448:	080034df 	.word	0x080034df
 800344c:	08003561 	.word	0x08003561
 8003450:	08003561 	.word	0x08003561
 8003454:	08003561 	.word	0x08003561
 8003458:	0800351f 	.word	0x0800351f
    {
      /* Check the parameters */
      assert_param(IS_TIM_CC1_INSTANCE(htim->Instance));

      /* Configure the Channel 1 in PWM mode */
      TIM_OC1_SetConfig(htim->Instance, sConfig);
 800345c:	68fb      	ldr	r3, [r7, #12]
 800345e:	681b      	ldr	r3, [r3, #0]
 8003460:	68b9      	ldr	r1, [r7, #8]
 8003462:	4618      	mov	r0, r3
 8003464:	f000 f9b2 	bl	80037cc <TIM_OC1_SetConfig>

      /* Set the Preload enable bit for channel1 */
      htim->Instance->CCMR1 |= TIM_CCMR1_OC1PE;
 8003468:	68fb      	ldr	r3, [r7, #12]
 800346a:	681b      	ldr	r3, [r3, #0]
 800346c:	699a      	ldr	r2, [r3, #24]
 800346e:	68fb      	ldr	r3, [r7, #12]
 8003470:	681b      	ldr	r3, [r3, #0]
 8003472:	f042 0208 	orr.w	r2, r2, #8
 8003476:	619a      	str	r2, [r3, #24]

      /* Configure the Output Fast mode */
      htim->Instance->CCMR1 &= ~TIM_CCMR1_OC1FE;
 8003478:	68fb      	ldr	r3, [r7, #12]
 800347a:	681b      	ldr	r3, [r3, #0]
 800347c:	699a      	ldr	r2, [r3, #24]
 800347e:	68fb      	ldr	r3, [r7, #12]
 8003480:	681b      	ldr	r3, [r3, #0]
 8003482:	f022 0204 	bic.w	r2, r2, #4
 8003486:	619a      	str	r2, [r3, #24]
      htim->Instance->CCMR1 |= sConfig->OCFastMode;
 8003488:	68fb      	ldr	r3, [r7, #12]
 800348a:	681b      	ldr	r3, [r3, #0]
 800348c:	6999      	ldr	r1, [r3, #24]
 800348e:	68bb      	ldr	r3, [r7, #8]
 8003490:	691a      	ldr	r2, [r3, #16]
 8003492:	68fb      	ldr	r3, [r7, #12]
 8003494:	681b      	ldr	r3, [r3, #0]
 8003496:	430a      	orrs	r2, r1
 8003498:	619a      	str	r2, [r3, #24]
      break;
 800349a:	e064      	b.n	8003566 <HAL_TIM_PWM_ConfigChannel+0x172>
    {
      /* Check the parameters */
      assert_param(IS_TIM_CC2_INSTANCE(htim->Instance));

      /* Configure the Channel 2 in PWM mode */
      TIM_OC2_SetConfig(htim->Instance, sConfig);
 800349c:	68fb      	ldr	r3, [r7, #12]
 800349e:	681b      	ldr	r3, [r3, #0]
 80034a0:	68b9      	ldr	r1, [r7, #8]
 80034a2:	4618      	mov	r0, r3
 80034a4:	f000 f9f8 	bl	8003898 <TIM_OC2_SetConfig>

      /* Set the Preload enable bit for channel2 */
      htim->Instance->CCMR1 |= TIM_CCMR1_OC2PE;
 80034a8:	68fb      	ldr	r3, [r7, #12]
 80034aa:	681b      	ldr	r3, [r3, #0]
 80034ac:	699a      	ldr	r2, [r3, #24]
 80034ae:	68fb      	ldr	r3, [r7, #12]
 80034b0:	681b      	ldr	r3, [r3, #0]
 80034b2:	f442 6200 	orr.w	r2, r2, #2048	@ 0x800
 80034b6:	619a      	str	r2, [r3, #24]

      /* Configure the Output Fast mode */
      htim->Instance->CCMR1 &= ~TIM_CCMR1_OC2FE;
 80034b8:	68fb      	ldr	r3, [r7, #12]
 80034ba:	681b      	ldr	r3, [r3, #0]
 80034bc:	699a      	ldr	r2, [r3, #24]
 80034be:	68fb      	ldr	r3, [r7, #12]
 80034c0:	681b      	ldr	r3, [r3, #0]
 80034c2:	f422 6280 	bic.w	r2, r2, #1024	@ 0x400
 80034c6:	619a      	str	r2, [r3, #24]
      htim->Instance->CCMR1 |= sConfig->OCFastMode << 8U;
 80034c8:	68fb      	ldr	r3, [r7, #12]
 80034ca:	681b      	ldr	r3, [r3, #0]
 80034cc:	6999      	ldr	r1, [r3, #24]
 80034ce:	68bb      	ldr	r3, [r7, #8]
 80034d0:	691b      	ldr	r3, [r3, #16]
 80034d2:	021a      	lsls	r2, r3, #8
 80034d4:	68fb      	ldr	r3, [r7, #12]
 80034d6:	681b      	ldr	r3, [r3, #0]
 80034d8:	430a      	orrs	r2, r1
 80034da:	619a      	str	r2, [r3, #24]
      break;
 80034dc:	e043      	b.n	8003566 <HAL_TIM_PWM_ConfigChannel+0x172>
    {
      /* Check the parameters */
      assert_param(IS_TIM_CC3_INSTANCE(htim->Instance));

      /* Configure the Channel 3 in PWM mode */
      TIM_OC3_SetConfig(htim->Instance, sConfig);
 80034de:	68fb      	ldr	r3, [r7, #12]
 80034e0:	681b      	ldr	r3, [r3, #0]
 80034e2:	68b9      	ldr	r1, [r7, #8]
 80034e4:	4618      	mov	r0, r3
 80034e6:	f000 fa41 	bl	800396c <TIM_OC3_SetConfig>

      /* Set the Preload enable bit for channel3 */
      htim->Instance->CCMR2 |= TIM_CCMR2_OC3PE;
 80034ea:	68fb      	ldr	r3, [r7, #12]
 80034ec:	681b      	ldr	r3, [r3, #0]
 80034ee:	69da      	ldr	r2, [r3, #28]
 80034f0:	68fb      	ldr	r3, [r7, #12]
 80034f2:	681b      	ldr	r3, [r3, #0]
 80034f4:	f042 0208 	orr.w	r2, r2, #8
 80034f8:	61da      	str	r2, [r3, #28]

      /* Configure the Output Fast mode */
      htim->Instance->CCMR2 &= ~TIM_CCMR2_OC3FE;
 80034fa:	68fb      	ldr	r3, [r7, #12]
 80034fc:	681b      	ldr	r3, [r3, #0]
 80034fe:	69da      	ldr	r2, [r3, #28]
 8003500:	68fb      	ldr	r3, [r7, #12]
 8003502:	681b      	ldr	r3, [r3, #0]
 8003504:	f022 0204 	bic.w	r2, r2, #4
 8003508:	61da      	str	r2, [r3, #28]
      htim->Instance->CCMR2 |= sConfig->OCFastMode;
 800350a:	68fb      	ldr	r3, [r7, #12]
 800350c:	681b      	ldr	r3, [r3, #0]
 800350e:	69d9      	ldr	r1, [r3, #28]
 8003510:	68bb      	ldr	r3, [r7, #8]
 8003512:	691a      	ldr	r2, [r3, #16]
 8003514:	68fb      	ldr	r3, [r7, #12]
 8003516:	681b      	ldr	r3, [r3, #0]
 8003518:	430a      	orrs	r2, r1
 800351a:	61da      	str	r2, [r3, #28]
      break;
 800351c:	e023      	b.n	8003566 <HAL_TIM_PWM_ConfigChannel+0x172>
    {
      /* Check the parameters */
      assert_param(IS_TIM_CC4_INSTANCE(htim->Instance));

      /* Configure the Channel 4 in PWM mode */
      TIM_OC4_SetConfig(htim->Instance, sConfig);
 800351e:	68fb      	ldr	r3, [r7, #12]
 8003520:	681b      	ldr	r3, [r3, #0]
 8003522:	68b9      	ldr	r1, [r7, #8]
 8003524:	4618      	mov	r0, r3
 8003526:	f000 fa8b 	bl	8003a40 <TIM_OC4_SetConfig>

      /* Set the Preload enable bit for channel4 */
      htim->Instance->CCMR2 |= TIM_CCMR2_OC4PE;
 800352a:	68fb      	ldr	r3, [r7, #12]
 800352c:	681b      	ldr	r3, [r3, #0]
 800352e:	69da      	ldr	r2, [r3, #28]
 8003530:	68fb      	ldr	r3, [r7, #12]
 8003532:	681b      	ldr	r3, [r3, #0]
 8003534:	f442 6200 	orr.w	r2, r2, #2048	@ 0x800
 8003538:	61da      	str	r2, [r3, #28]

      /* Configure the Output Fast mode */
      htim->Instance->CCMR2 &= ~TIM_CCMR2_OC4FE;
 800353a:	68fb      	ldr	r3, [r7, #12]
 800353c:	681b      	ldr	r3, [r3, #0]
 800353e:	69da      	ldr	r2, [r3, #28]
 8003540:	68fb      	ldr	r3, [r7, #12]
 8003542:	681b      	ldr	r3, [r3, #0]
 8003544:	f422 6280 	bic.w	r2, r2, #1024	@ 0x400
 8003548:	61da      	str	r2, [r3, #28]
      htim->Instance->CCMR2 |= sConfig->OCFastMode << 8U;
 800354a:	68fb      	ldr	r3, [r7, #12]
 800354c:	681b      	ldr	r3, [r3, #0]
 800354e:	69d9      	ldr	r1, [r3, #28]
 8003550:	68bb      	ldr	r3, [r7, #8]
 8003552:	691b      	ldr	r3, [r3, #16]
 8003554:	021a      	lsls	r2, r3, #8
 8003556:	68fb      	ldr	r3, [r7, #12]
 8003558:	681b      	ldr	r3, [r3, #0]
 800355a:	430a      	orrs	r2, r1
 800355c:	61da      	str	r2, [r3, #28]
      break;
 800355e:	e002      	b.n	8003566 <HAL_TIM_PWM_ConfigChannel+0x172>
    }

    default:
      status = HAL_ERROR;
 8003560:	2301      	movs	r3, #1
 8003562:	75fb      	strb	r3, [r7, #23]
      break;
 8003564:	bf00      	nop
  }

  __HAL_UNLOCK(htim);
 8003566:	68fb      	ldr	r3, [r7, #12]
 8003568:	2200      	movs	r2, #0
 800356a:	f883 203c 	strb.w	r2, [r3, #60]	@ 0x3c

  return status;
 800356e:	7dfb      	ldrb	r3, [r7, #23]
}
 8003570:	4618      	mov	r0, r3
 8003572:	3718      	adds	r7, #24
 8003574:	46bd      	mov	sp, r7
 8003576:	bd80      	pop	{r7, pc}

08003578 <HAL_TIM_ConfigClockSource>:
  * @param  sClockSourceConfig pointer to a TIM_ClockConfigTypeDef structure that
  *         contains the clock source information for the TIM peripheral.
  * @retval HAL status
  */
HAL_StatusTypeDef HAL_TIM_ConfigClockSource(TIM_HandleTypeDef *htim, const TIM_ClockConfigTypeDef *sClockSourceConfig)
{
 8003578:	b580      	push	{r7, lr}
 800357a:	b084      	sub	sp, #16
 800357c:	af00      	add	r7, sp, #0
 800357e:	6078      	str	r0, [r7, #4]
 8003580:	6039      	str	r1, [r7, #0]
  HAL_StatusTypeDef status = HAL_OK;
 8003582:	2300      	movs	r3, #0
 8003584:	73fb      	strb	r3, [r7, #15]
  uint32_t tmpsmcr;

  /* Process Locked */
  __HAL_LOCK(htim);
 8003586:	687b      	ldr	r3, [r7, #4]
 8003588:	f893 303c 	ldrb.w	r3, [r3, #60]	@ 0x3c
 800358c:	2b01      	cmp	r3, #1
 800358e:	d101      	bne.n	8003594 <HAL_TIM_ConfigClockSource+0x1c>
 8003590:	2302      	movs	r3, #2
 8003592:	e0b4      	b.n	80036fe <HAL_TIM_ConfigClockSource+0x186>
 8003594:	687b      	ldr	r3, [r7, #4]
 8003596:	2201      	movs	r2, #1
 8003598:	f883 203c 	strb.w	r2, [r3, #60]	@ 0x3c

  htim->State = HAL_TIM_STATE_BUSY;
 800359c:	687b      	ldr	r3, [r7, #4]
 800359e:	2202      	movs	r2, #2
 80035a0:	f883 203d 	strb.w	r2, [r3, #61]	@ 0x3d

  /* Check the parameters */
  assert_param(IS_TIM_CLOCKSOURCE(sClockSourceConfig->ClockSource));

  /* Reset the SMS, TS, ECE, ETPS and ETRF bits */
  tmpsmcr = htim->Instance->SMCR;
 80035a4:	687b      	ldr	r3, [r7, #4]
 80035a6:	681b      	ldr	r3, [r3, #0]
 80035a8:	689b      	ldr	r3, [r3, #8]
 80035aa:	60bb      	str	r3, [r7, #8]
  tmpsmcr &= ~(TIM_SMCR_SMS | TIM_SMCR_TS);
 80035ac:	68bb      	ldr	r3, [r7, #8]
 80035ae:	f023 0377 	bic.w	r3, r3, #119	@ 0x77
 80035b2:	60bb      	str	r3, [r7, #8]
  tmpsmcr &= ~(TIM_SMCR_ETF | TIM_SMCR_ETPS | TIM_SMCR_ECE | TIM_SMCR_ETP);
 80035b4:	68bb      	ldr	r3, [r7, #8]
 80035b6:	f423 437f 	bic.w	r3, r3, #65280	@ 0xff00
 80035ba:	60bb      	str	r3, [r7, #8]
  htim->Instance->SMCR = tmpsmcr;
 80035bc:	687b      	ldr	r3, [r7, #4]
 80035be:	681b      	ldr	r3, [r3, #0]
 80035c0:	68ba      	ldr	r2, [r7, #8]
 80035c2:	609a      	str	r2, [r3, #8]

  switch (sClockSourceConfig->ClockSource)
 80035c4:	683b      	ldr	r3, [r7, #0]
 80035c6:	681b      	ldr	r3, [r3, #0]
 80035c8:	f5b3 5f00 	cmp.w	r3, #8192	@ 0x2000
 80035cc:	d03e      	beq.n	800364c <HAL_TIM_ConfigClockSource+0xd4>
 80035ce:	f5b3 5f00 	cmp.w	r3, #8192	@ 0x2000
 80035d2:	f200 8087 	bhi.w	80036e4 <HAL_TIM_ConfigClockSource+0x16c>
 80035d6:	f5b3 5f80 	cmp.w	r3, #4096	@ 0x1000
 80035da:	f000 8086 	beq.w	80036ea <HAL_TIM_ConfigClockSource+0x172>
 80035de:	f5b3 5f80 	cmp.w	r3, #4096	@ 0x1000
 80035e2:	d87f      	bhi.n	80036e4 <HAL_TIM_ConfigClockSource+0x16c>
 80035e4:	2b70      	cmp	r3, #112	@ 0x70
 80035e6:	d01a      	beq.n	800361e <HAL_TIM_ConfigClockSource+0xa6>
 80035e8:	2b70      	cmp	r3, #112	@ 0x70
 80035ea:	d87b      	bhi.n	80036e4 <HAL_TIM_ConfigClockSource+0x16c>
 80035ec:	2b60      	cmp	r3, #96	@ 0x60
 80035ee:	d050      	beq.n	8003692 <HAL_TIM_ConfigClockSource+0x11a>
 80035f0:	2b60      	cmp	r3, #96	@ 0x60
 80035f2:	d877      	bhi.n	80036e4 <HAL_TIM_ConfigClockSource+0x16c>
 80035f4:	2b50      	cmp	r3, #80	@ 0x50
 80035f6:	d03c      	beq.n	8003672 <HAL_TIM_ConfigClockSource+0xfa>
 80035f8:	2b50      	cmp	r3, #80	@ 0x50
 80035fa:	d873      	bhi.n	80036e4 <HAL_TIM_ConfigClockSource+0x16c>
 80035fc:	2b40      	cmp	r3, #64	@ 0x40
 80035fe:	d058      	beq.n	80036b2 <HAL_TIM_ConfigClockSource+0x13a>
 8003600:	2b40      	cmp	r3, #64	@ 0x40
 8003602:	d86f      	bhi.n	80036e4 <HAL_TIM_ConfigClockSource+0x16c>
 8003604:	2b30      	cmp	r3, #48	@ 0x30
 8003606:	d064      	beq.n	80036d2 <HAL_TIM_ConfigClockSource+0x15a>
 8003608:	2b30      	cmp	r3, #48	@ 0x30
 800360a:	d86b      	bhi.n	80036e4 <HAL_TIM_ConfigClockSource+0x16c>
 800360c:	2b20      	cmp	r3, #32
 800360e:	d060      	beq.n	80036d2 <HAL_TIM_ConfigClockSource+0x15a>
 8003610:	2b20      	cmp	r3, #32
 8003612:	d867      	bhi.n	80036e4 <HAL_TIM_ConfigClockSource+0x16c>
 8003614:	2b00      	cmp	r3, #0
 8003616:	d05c      	beq.n	80036d2 <HAL_TIM_ConfigClockSource+0x15a>
 8003618:	2b10      	cmp	r3, #16
 800361a:	d05a      	beq.n	80036d2 <HAL_TIM_ConfigClockSource+0x15a>
 800361c:	e062      	b.n	80036e4 <HAL_TIM_ConfigClockSource+0x16c>
      assert_param(IS_TIM_CLOCKPRESCALER(sClockSourceConfig->ClockPrescaler));
      assert_param(IS_TIM_CLOCKPOLARITY(sClockSourceConfig->ClockPolarity));
      assert_param(IS_TIM_CLOCKFILTER(sClockSourceConfig->ClockFilter));

      /* Configure the ETR Clock source */
      TIM_ETR_SetConfig(htim->Instance,
 800361e:	687b      	ldr	r3, [r7, #4]
 8003620:	6818      	ldr	r0, [r3, #0]
                        sClockSourceConfig->ClockPrescaler,
 8003622:	683b      	ldr	r3, [r7, #0]
 8003624:	6899      	ldr	r1, [r3, #8]
                        sClockSourceConfig->ClockPolarity,
 8003626:	683b      	ldr	r3, [r7, #0]
 8003628:	685a      	ldr	r2, [r3, #4]
                        sClockSourceConfig->ClockFilter);
 800362a:	683b      	ldr	r3, [r7, #0]
 800362c:	68db      	ldr	r3, [r3, #12]
      TIM_ETR_SetConfig(htim->Instance,
 800362e:	f000 facc 	bl	8003bca <TIM_ETR_SetConfig>

      /* Select the External clock mode1 and the ETRF trigger */
      tmpsmcr = htim->Instance->SMCR;
 8003632:	687b      	ldr	r3, [r7, #4]
 8003634:	681b      	ldr	r3, [r3, #0]
 8003636:	689b      	ldr	r3, [r3, #8]
 8003638:	60bb      	str	r3, [r7, #8]
      tmpsmcr |= (TIM_SLAVEMODE_EXTERNAL1 | TIM_CLOCKSOURCE_ETRMODE1);
 800363a:	68bb      	ldr	r3, [r7, #8]
 800363c:	f043 0377 	orr.w	r3, r3, #119	@ 0x77
 8003640:	60bb      	str	r3, [r7, #8]
      /* Write to TIMx SMCR */
      htim->Instance->SMCR = tmpsmcr;
 8003642:	687b      	ldr	r3, [r7, #4]
 8003644:	681b      	ldr	r3, [r3, #0]
 8003646:	68ba      	ldr	r2, [r7, #8]
 8003648:	609a      	str	r2, [r3, #8]
      break;
 800364a:	e04f      	b.n	80036ec <HAL_TIM_ConfigClockSource+0x174>
      assert_param(IS_TIM_CLOCKPRESCALER(sClockSourceConfig->ClockPrescaler));
      assert_param(IS_TIM_CLOCKPOLARITY(sClockSourceConfig->ClockPolarity));
      assert_param(IS_TIM_CLOCKFILTER(sClockSourceConfig->ClockFilter));

      /* Configure the ETR Clock source */
      TIM_ETR_SetConfig(htim->Instance,
 800364c:	687b      	ldr	r3, [r7, #4]
 800364e:	6818      	ldr	r0, [r3, #0]
                        sClockSourceConfig->ClockPrescaler,
 8003650:	683b      	ldr	r3, [r7, #0]
 8003652:	6899      	ldr	r1, [r3, #8]
                        sClockSourceConfig->ClockPolarity,
 8003654:	683b      	ldr	r3, [r7, #0]
 8003656:	685a      	ldr	r2, [r3, #4]
                        sClockSourceConfig->ClockFilter);
 8003658:	683b      	ldr	r3, [r7, #0]
 800365a:	68db      	ldr	r3, [r3, #12]
      TIM_ETR_SetConfig(htim->Instance,
 800365c:	f000 fab5 	bl	8003bca <TIM_ETR_SetConfig>
      /* Enable the External clock mode2 */
      htim->Instance->SMCR |= TIM_SMCR_ECE;
 8003660:	687b      	ldr	r3, [r7, #4]
 8003662:	681b      	ldr	r3, [r3, #0]
 8003664:	689a      	ldr	r2, [r3, #8]
 8003666:	687b      	ldr	r3, [r7, #4]
 8003668:	681b      	ldr	r3, [r3, #0]
 800366a:	f442 4280 	orr.w	r2, r2, #16384	@ 0x4000
 800366e:	609a      	str	r2, [r3, #8]
      break;
 8003670:	e03c      	b.n	80036ec <HAL_TIM_ConfigClockSource+0x174>

      /* Check TI1 input conditioning related parameters */
      assert_param(IS_TIM_CLOCKPOLARITY(sClockSourceConfig->ClockPolarity));
      assert_param(IS_TIM_CLOCKFILTER(sClockSourceConfig->ClockFilter));

      TIM_TI1_ConfigInputStage(htim->Instance,
 8003672:	687b      	ldr	r3, [r7, #4]
 8003674:	6818      	ldr	r0, [r3, #0]
                               sClockSourceConfig->ClockPolarity,
 8003676:	683b      	ldr	r3, [r7, #0]
 8003678:	6859      	ldr	r1, [r3, #4]
                               sClockSourceConfig->ClockFilter);
 800367a:	683b      	ldr	r3, [r7, #0]
 800367c:	68db      	ldr	r3, [r3, #12]
      TIM_TI1_ConfigInputStage(htim->Instance,
 800367e:	461a      	mov	r2, r3
 8003680:	f000 fa2c 	bl	8003adc <TIM_TI1_ConfigInputStage>
      TIM_ITRx_SetConfig(htim->Instance, TIM_CLOCKSOURCE_TI1);
 8003684:	687b      	ldr	r3, [r7, #4]
 8003686:	681b      	ldr	r3, [r3, #0]
 8003688:	2150      	movs	r1, #80	@ 0x50
 800368a:	4618      	mov	r0, r3
 800368c:	f000 fa83 	bl	8003b96 <TIM_ITRx_SetConfig>
      break;
 8003690:	e02c      	b.n	80036ec <HAL_TIM_ConfigClockSource+0x174>

      /* Check TI2 input conditioning related parameters */
      assert_param(IS_TIM_CLOCKPOLARITY(sClockSourceConfig->ClockPolarity));
      assert_param(IS_TIM_CLOCKFILTER(sClockSourceConfig->ClockFilter));

      TIM_TI2_ConfigInputStage(htim->Instance,
 8003692:	687b      	ldr	r3, [r7, #4]
 8003694:	6818      	ldr	r0, [r3, #0]
                               sClockSourceConfig->ClockPolarity,
 8003696:	683b      	ldr	r3, [r7, #0]
 8003698:	6859      	ldr	r1, [r3, #4]
                               sClockSourceConfig->ClockFilter);
 800369a:	683b      	ldr	r3, [r7, #0]
 800369c:	68db      	ldr	r3, [r3, #12]
      TIM_TI2_ConfigInputStage(htim->Instance,
 800369e:	461a      	mov	r2, r3
 80036a0:	f000 fa4a 	bl	8003b38 <TIM_TI2_ConfigInputStage>
      TIM_ITRx_SetConfig(htim->Instance, TIM_CLOCKSOURCE_TI2);
 80036a4:	687b      	ldr	r3, [r7, #4]
 80036a6:	681b      	ldr	r3, [r3, #0]
 80036a8:	2160      	movs	r1, #96	@ 0x60
 80036aa:	4618      	mov	r0, r3
 80036ac:	f000 fa73 	bl	8003b96 <TIM_ITRx_SetConfig>
      break;
 80036b0:	e01c      	b.n	80036ec <HAL_TIM_ConfigClockSource+0x174>

      /* Check TI1 input conditioning related parameters */
      assert_param(IS_TIM_CLOCKPOLARITY(sClockSourceConfig->ClockPolarity));
      assert_param(IS_TIM_CLOCKFILTER(sClockSourceConfig->ClockFilter));

      TIM_TI1_ConfigInputStage(htim->Instance,
 80036b2:	687b      	ldr	r3, [r7, #4]
 80036b4:	6818      	ldr	r0, [r3, #0]
                               sClockSourceConfig->ClockPolarity,
 80036b6:	683b      	ldr	r3, [r7, #0]
 80036b8:	6859      	ldr	r1, [r3, #4]
                               sClockSourceConfig->ClockFilter);
 80036ba:	683b      	ldr	r3, [r7, #0]
 80036bc:	68db      	ldr	r3, [r3, #12]
      TIM_TI1_ConfigInputStage(htim->Instance,
 80036be:	461a      	mov	r2, r3
 80036c0:	f000 fa0c 	bl	8003adc <TIM_TI1_ConfigInputStage>
      TIM_ITRx_SetConfig(htim->Instance, TIM_CLOCKSOURCE_TI1ED);
 80036c4:	687b      	ldr	r3, [r7, #4]
 80036c6:	681b      	ldr	r3, [r3, #0]
 80036c8:	2140      	movs	r1, #64	@ 0x40
 80036ca:	4618      	mov	r0, r3
 80036cc:	f000 fa63 	bl	8003b96 <TIM_ITRx_SetConfig>
      break;
 80036d0:	e00c      	b.n	80036ec <HAL_TIM_ConfigClockSource+0x174>
    case TIM_CLOCKSOURCE_ITR3:
    {
      /* Check whether or not the timer instance supports internal trigger input */
      assert_param(IS_TIM_CLOCKSOURCE_ITRX_INSTANCE(htim->Instance));

      TIM_ITRx_SetConfig(htim->Instance, sClockSourceConfig->ClockSource);
 80036d2:	687b      	ldr	r3, [r7, #4]
 80036d4:	681a      	ldr	r2, [r3, #0]
 80036d6:	683b      	ldr	r3, [r7, #0]
 80036d8:	681b      	ldr	r3, [r3, #0]
 80036da:	4619      	mov	r1, r3
 80036dc:	4610      	mov	r0, r2
 80036de:	f000 fa5a 	bl	8003b96 <TIM_ITRx_SetConfig>
      break;
 80036e2:	e003      	b.n	80036ec <HAL_TIM_ConfigClockSource+0x174>
    }

    default:
      status = HAL_ERROR;
 80036e4:	2301      	movs	r3, #1
 80036e6:	73fb      	strb	r3, [r7, #15]
      break;
 80036e8:	e000      	b.n	80036ec <HAL_TIM_ConfigClockSource+0x174>
      break;
 80036ea:	bf00      	nop
  }
  htim->State = HAL_TIM_STATE_READY;
 80036ec:	687b      	ldr	r3, [r7, #4]
 80036ee:	2201      	movs	r2, #1
 80036f0:	f883 203d 	strb.w	r2, [r3, #61]	@ 0x3d

  __HAL_UNLOCK(htim);
 80036f4:	687b      	ldr	r3, [r7, #4]
 80036f6:	2200      	movs	r2, #0
 80036f8:	f883 203c 	strb.w	r2, [r3, #60]	@ 0x3c

  return status;
 80036fc:	7bfb      	ldrb	r3, [r7, #15]
}
 80036fe:	4618      	mov	r0, r3
 8003700:	3710      	adds	r7, #16
 8003702:	46bd      	mov	sp, r7
 8003704:	bd80      	pop	{r7, pc}
	...

08003708 <TIM_Base_SetConfig>:
  * @param  TIMx TIM peripheral
  * @param  Structure TIM Base configuration structure
  * @retval None
  */
void TIM_Base_SetConfig(TIM_TypeDef *TIMx, const TIM_Base_InitTypeDef *Structure)
{
 8003708:	b480      	push	{r7}
 800370a:	b085      	sub	sp, #20
 800370c:	af00      	add	r7, sp, #0
 800370e:	6078      	str	r0, [r7, #4]
 8003710:	6039      	str	r1, [r7, #0]
  uint32_t tmpcr1;
  tmpcr1 = TIMx->CR1;
 8003712:	687b      	ldr	r3, [r7, #4]
 8003714:	681b      	ldr	r3, [r3, #0]
 8003716:	60fb      	str	r3, [r7, #12]

  /* Set TIM Time Base Unit parameters ---------------------------------------*/
  if (IS_TIM_COUNTER_MODE_SELECT_INSTANCE(TIMx))
 8003718:	687b      	ldr	r3, [r7, #4]
 800371a:	4a29      	ldr	r2, [pc, #164]	@ (80037c0 <TIM_Base_SetConfig+0xb8>)
 800371c:	4293      	cmp	r3, r2
 800371e:	d00b      	beq.n	8003738 <TIM_Base_SetConfig+0x30>
 8003720:	687b      	ldr	r3, [r7, #4]
 8003722:	f1b3 4f80 	cmp.w	r3, #1073741824	@ 0x40000000
 8003726:	d007      	beq.n	8003738 <TIM_Base_SetConfig+0x30>
 8003728:	687b      	ldr	r3, [r7, #4]
 800372a:	4a26      	ldr	r2, [pc, #152]	@ (80037c4 <TIM_Base_SetConfig+0xbc>)
 800372c:	4293      	cmp	r3, r2
 800372e:	d003      	beq.n	8003738 <TIM_Base_SetConfig+0x30>
 8003730:	687b      	ldr	r3, [r7, #4]
 8003732:	4a25      	ldr	r2, [pc, #148]	@ (80037c8 <TIM_Base_SetConfig+0xc0>)
 8003734:	4293      	cmp	r3, r2
 8003736:	d108      	bne.n	800374a <TIM_Base_SetConfig+0x42>
  {
    /* Select the Counter Mode */
    tmpcr1 &= ~(TIM_CR1_DIR | TIM_CR1_CMS);
 8003738:	68fb      	ldr	r3, [r7, #12]
 800373a:	f023 0370 	bic.w	r3, r3, #112	@ 0x70
 800373e:	60fb      	str	r3, [r7, #12]
    tmpcr1 |= Structure->CounterMode;
 8003740:	683b      	ldr	r3, [r7, #0]
 8003742:	685b      	ldr	r3, [r3, #4]
 8003744:	68fa      	ldr	r2, [r7, #12]
 8003746:	4313      	orrs	r3, r2
 8003748:	60fb      	str	r3, [r7, #12]
  }

  if (IS_TIM_CLOCK_DIVISION_INSTANCE(TIMx))
 800374a:	687b      	ldr	r3, [r7, #4]
 800374c:	4a1c      	ldr	r2, [pc, #112]	@ (80037c0 <TIM_Base_SetConfig+0xb8>)
 800374e:	4293      	cmp	r3, r2
 8003750:	d00b      	beq.n	800376a <TIM_Base_SetConfig+0x62>
 8003752:	687b      	ldr	r3, [r7, #4]
 8003754:	f1b3 4f80 	cmp.w	r3, #1073741824	@ 0x40000000
 8003758:	d007      	beq.n	800376a <TIM_Base_SetConfig+0x62>
 800375a:	687b      	ldr	r3, [r7, #4]
 800375c:	4a19      	ldr	r2, [pc, #100]	@ (80037c4 <TIM_Base_SetConfig+0xbc>)
 800375e:	4293      	cmp	r3, r2
 8003760:	d003      	beq.n	800376a <TIM_Base_SetConfig+0x62>
 8003762:	687b      	ldr	r3, [r7, #4]
 8003764:	4a18      	ldr	r2, [pc, #96]	@ (80037c8 <TIM_Base_SetConfig+0xc0>)
 8003766:	4293      	cmp	r3, r2
 8003768:	d108      	bne.n	800377c <TIM_Base_SetConfig+0x74>
  {
    /* Set the clock division */
    tmpcr1 &= ~TIM_CR1_CKD;
 800376a:	68fb      	ldr	r3, [r7, #12]
 800376c:	f423 7340 	bic.w	r3, r3, #768	@ 0x300
 8003770:	60fb      	str	r3, [r7, #12]
    tmpcr1 |= (uint32_t)Structure->ClockDivision;
 8003772:	683b      	ldr	r3, [r7, #0]
 8003774:	68db      	ldr	r3, [r3, #12]
 8003776:	68fa      	ldr	r2, [r7, #12]
 8003778:	4313      	orrs	r3, r2
 800377a:	60fb      	str	r3, [r7, #12]
  }

  /* Set the auto-reload preload */
  MODIFY_REG(tmpcr1, TIM_CR1_ARPE, Structure->AutoReloadPreload);
 800377c:	68fb      	ldr	r3, [r7, #12]
 800377e:	f023 0280 	bic.w	r2, r3, #128	@ 0x80
 8003782:	683b      	ldr	r3, [r7, #0]
 8003784:	695b      	ldr	r3, [r3, #20]
 8003786:	4313      	orrs	r3, r2
 8003788:	60fb      	str	r3, [r7, #12]

  TIMx->CR1 = tmpcr1;
 800378a:	687b      	ldr	r3, [r7, #4]
 800378c:	68fa      	ldr	r2, [r7, #12]
 800378e:	601a      	str	r2, [r3, #0]

  /* Set the Autoreload value */
  TIMx->ARR = (uint32_t)Structure->Period ;
 8003790:	683b      	ldr	r3, [r7, #0]
 8003792:	689a      	ldr	r2, [r3, #8]
 8003794:	687b      	ldr	r3, [r7, #4]
 8003796:	62da      	str	r2, [r3, #44]	@ 0x2c

  /* Set the Prescaler value */
  TIMx->PSC = Structure->Prescaler;
 8003798:	683b      	ldr	r3, [r7, #0]
 800379a:	681a      	ldr	r2, [r3, #0]
 800379c:	687b      	ldr	r3, [r7, #4]
 800379e:	629a      	str	r2, [r3, #40]	@ 0x28

  if (IS_TIM_REPETITION_COUNTER_INSTANCE(TIMx))
 80037a0:	687b      	ldr	r3, [r7, #4]
 80037a2:	4a07      	ldr	r2, [pc, #28]	@ (80037c0 <TIM_Base_SetConfig+0xb8>)
 80037a4:	4293      	cmp	r3, r2
 80037a6:	d103      	bne.n	80037b0 <TIM_Base_SetConfig+0xa8>
  {
    /* Set the Repetition Counter value */
    TIMx->RCR = Structure->RepetitionCounter;
 80037a8:	683b      	ldr	r3, [r7, #0]
 80037aa:	691a      	ldr	r2, [r3, #16]
 80037ac:	687b      	ldr	r3, [r7, #4]
 80037ae:	631a      	str	r2, [r3, #48]	@ 0x30
  }

  /* Generate an update event to reload the Prescaler
     and the repetition counter (only for advanced timer) value immediately */
  TIMx->EGR = TIM_EGR_UG;
 80037b0:	687b      	ldr	r3, [r7, #4]
 80037b2:	2201      	movs	r2, #1
 80037b4:	615a      	str	r2, [r3, #20]
}
 80037b6:	bf00      	nop
 80037b8:	3714      	adds	r7, #20
 80037ba:	46bd      	mov	sp, r7
 80037bc:	bc80      	pop	{r7}
 80037be:	4770      	bx	lr
 80037c0:	40012c00 	.word	0x40012c00
 80037c4:	40000400 	.word	0x40000400
 80037c8:	40000800 	.word	0x40000800

080037cc <TIM_OC1_SetConfig>:
  * @param  TIMx to select the TIM peripheral
  * @param  OC_Config The output configuration structure
  * @retval None
  */
static void TIM_OC1_SetConfig(TIM_TypeDef *TIMx, const TIM_OC_InitTypeDef *OC_Config)
{
 80037cc:	b480      	push	{r7}
 80037ce:	b087      	sub	sp, #28
 80037d0:	af00      	add	r7, sp, #0
 80037d2:	6078      	str	r0, [r7, #4]
 80037d4:	6039      	str	r1, [r7, #0]
  uint32_t tmpccmrx;
  uint32_t tmpccer;
  uint32_t tmpcr2;

  /* Get the TIMx CCER register value */
  tmpccer = TIMx->CCER;
 80037d6:	687b      	ldr	r3, [r7, #4]
 80037d8:	6a1b      	ldr	r3, [r3, #32]
 80037da:	617b      	str	r3, [r7, #20]

  /* Disable the Channel 1: Reset the CC1E Bit */
  TIMx->CCER &= ~TIM_CCER_CC1E;
 80037dc:	687b      	ldr	r3, [r7, #4]
 80037de:	6a1b      	ldr	r3, [r3, #32]
 80037e0:	f023 0201 	bic.w	r2, r3, #1
 80037e4:	687b      	ldr	r3, [r7, #4]
 80037e6:	621a      	str	r2, [r3, #32]

  /* Get the TIMx CR2 register value */
  tmpcr2 =  TIMx->CR2;
 80037e8:	687b      	ldr	r3, [r7, #4]
 80037ea:	685b      	ldr	r3, [r3, #4]
 80037ec:	613b      	str	r3, [r7, #16]

  /* Get the TIMx CCMR1 register value */
  tmpccmrx = TIMx->CCMR1;
 80037ee:	687b      	ldr	r3, [r7, #4]
 80037f0:	699b      	ldr	r3, [r3, #24]
 80037f2:	60fb      	str	r3, [r7, #12]

  /* Reset the Output Compare Mode Bits */
  tmpccmrx &= ~TIM_CCMR1_OC1M;
 80037f4:	68fb      	ldr	r3, [r7, #12]
 80037f6:	f023 0370 	bic.w	r3, r3, #112	@ 0x70
 80037fa:	60fb      	str	r3, [r7, #12]
  tmpccmrx &= ~TIM_CCMR1_CC1S;
 80037fc:	68fb      	ldr	r3, [r7, #12]
 80037fe:	f023 0303 	bic.w	r3, r3, #3
 8003802:	60fb      	str	r3, [r7, #12]
  /* Select the Output Compare Mode */
  tmpccmrx |= OC_Config->OCMode;
 8003804:	683b      	ldr	r3, [r7, #0]
 8003806:	681b      	ldr	r3, [r3, #0]
 8003808:	68fa      	ldr	r2, [r7, #12]
 800380a:	4313      	orrs	r3, r2
 800380c:	60fb      	str	r3, [r7, #12]

  /* Reset the Output Polarity level */
  tmpccer &= ~TIM_CCER_CC1P;
 800380e:	697b      	ldr	r3, [r7, #20]
 8003810:	f023 0302 	bic.w	r3, r3, #2
 8003814:	617b      	str	r3, [r7, #20]
  /* Set the Output Compare Polarity */
  tmpccer |= OC_Config->OCPolarity;
 8003816:	683b      	ldr	r3, [r7, #0]
 8003818:	689b      	ldr	r3, [r3, #8]
 800381a:	697a      	ldr	r2, [r7, #20]
 800381c:	4313      	orrs	r3, r2
 800381e:	617b      	str	r3, [r7, #20]

  if (IS_TIM_CCXN_INSTANCE(TIMx, TIM_CHANNEL_1))
 8003820:	687b      	ldr	r3, [r7, #4]
 8003822:	4a1c      	ldr	r2, [pc, #112]	@ (8003894 <TIM_OC1_SetConfig+0xc8>)
 8003824:	4293      	cmp	r3, r2
 8003826:	d10c      	bne.n	8003842 <TIM_OC1_SetConfig+0x76>
  {
    /* Check parameters */
    assert_param(IS_TIM_OCN_POLARITY(OC_Config->OCNPolarity));

    /* Reset the Output N Polarity level */
    tmpccer &= ~TIM_CCER_CC1NP;
 8003828:	697b      	ldr	r3, [r7, #20]
 800382a:	f023 0308 	bic.w	r3, r3, #8
 800382e:	617b      	str	r3, [r7, #20]
    /* Set the Output N Polarity */
    tmpccer |= OC_Config->OCNPolarity;
 8003830:	683b      	ldr	r3, [r7, #0]
 8003832:	68db      	ldr	r3, [r3, #12]
 8003834:	697a      	ldr	r2, [r7, #20]
 8003836:	4313      	orrs	r3, r2
 8003838:	617b      	str	r3, [r7, #20]
    /* Reset the Output N State */
    tmpccer &= ~TIM_CCER_CC1NE;
 800383a:	697b      	ldr	r3, [r7, #20]
 800383c:	f023 0304 	bic.w	r3, r3, #4
 8003840:	617b      	str	r3, [r7, #20]
  }

  if (IS_TIM_BREAK_INSTANCE(TIMx))
 8003842:	687b      	ldr	r3, [r7, #4]
 8003844:	4a13      	ldr	r2, [pc, #76]	@ (8003894 <TIM_OC1_SetConfig+0xc8>)
 8003846:	4293      	cmp	r3, r2
 8003848:	d111      	bne.n	800386e <TIM_OC1_SetConfig+0xa2>
    /* Check parameters */
    assert_param(IS_TIM_OCNIDLE_STATE(OC_Config->OCNIdleState));
    assert_param(IS_TIM_OCIDLE_STATE(OC_Config->OCIdleState));

    /* Reset the Output Compare and Output Compare N IDLE State */
    tmpcr2 &= ~TIM_CR2_OIS1;
 800384a:	693b      	ldr	r3, [r7, #16]
 800384c:	f423 7380 	bic.w	r3, r3, #256	@ 0x100
 8003850:	613b      	str	r3, [r7, #16]
    tmpcr2 &= ~TIM_CR2_OIS1N;
 8003852:	693b      	ldr	r3, [r7, #16]
 8003854:	f423 7300 	bic.w	r3, r3, #512	@ 0x200
 8003858:	613b      	str	r3, [r7, #16]
    /* Set the Output Idle state */
    tmpcr2 |= OC_Config->OCIdleState;
 800385a:	683b      	ldr	r3, [r7, #0]
 800385c:	695b      	ldr	r3, [r3, #20]
 800385e:	693a      	ldr	r2, [r7, #16]
 8003860:	4313      	orrs	r3, r2
 8003862:	613b      	str	r3, [r7, #16]
    /* Set the Output N Idle state */
    tmpcr2 |= OC_Config->OCNIdleState;
 8003864:	683b      	ldr	r3, [r7, #0]
 8003866:	699b      	ldr	r3, [r3, #24]
 8003868:	693a      	ldr	r2, [r7, #16]
 800386a:	4313      	orrs	r3, r2
 800386c:	613b      	str	r3, [r7, #16]
  }

  /* Write to TIMx CR2 */
  TIMx->CR2 = tmpcr2;
 800386e:	687b      	ldr	r3, [r7, #4]
 8003870:	693a      	ldr	r2, [r7, #16]
 8003872:	605a      	str	r2, [r3, #4]

  /* Write to TIMx CCMR1 */
  TIMx->CCMR1 = tmpccmrx;
 8003874:	687b      	ldr	r3, [r7, #4]
 8003876:	68fa      	ldr	r2, [r7, #12]
 8003878:	619a      	str	r2, [r3, #24]

  /* Set the Capture Compare Register value */
  TIMx->CCR1 = OC_Config->Pulse;
 800387a:	683b      	ldr	r3, [r7, #0]
 800387c:	685a      	ldr	r2, [r3, #4]
 800387e:	687b      	ldr	r3, [r7, #4]
 8003880:	635a      	str	r2, [r3, #52]	@ 0x34

  /* Write to TIMx CCER */
  TIMx->CCER = tmpccer;
 8003882:	687b      	ldr	r3, [r7, #4]
 8003884:	697a      	ldr	r2, [r7, #20]
 8003886:	621a      	str	r2, [r3, #32]
}
 8003888:	bf00      	nop
 800388a:	371c      	adds	r7, #28
 800388c:	46bd      	mov	sp, r7
 800388e:	bc80      	pop	{r7}
 8003890:	4770      	bx	lr
 8003892:	bf00      	nop
 8003894:	40012c00 	.word	0x40012c00

08003898 <TIM_OC2_SetConfig>:
  * @param  TIMx to select the TIM peripheral
  * @param  OC_Config The output configuration structure
  * @retval None
  */
void TIM_OC2_SetConfig(TIM_TypeDef *TIMx, const TIM_OC_InitTypeDef *OC_Config)
{
 8003898:	b480      	push	{r7}
 800389a:	b087      	sub	sp, #28
 800389c:	af00      	add	r7, sp, #0
 800389e:	6078      	str	r0, [r7, #4]
 80038a0:	6039      	str	r1, [r7, #0]
  uint32_t tmpccmrx;
  uint32_t tmpccer;
  uint32_t tmpcr2;

  /* Get the TIMx CCER register value */
  tmpccer = TIMx->CCER;
 80038a2:	687b      	ldr	r3, [r7, #4]
 80038a4:	6a1b      	ldr	r3, [r3, #32]
 80038a6:	617b      	str	r3, [r7, #20]

  /* Disable the Channel 2: Reset the CC2E Bit */
  TIMx->CCER &= ~TIM_CCER_CC2E;
 80038a8:	687b      	ldr	r3, [r7, #4]
 80038aa:	6a1b      	ldr	r3, [r3, #32]
 80038ac:	f023 0210 	bic.w	r2, r3, #16
 80038b0:	687b      	ldr	r3, [r7, #4]
 80038b2:	621a      	str	r2, [r3, #32]

  /* Get the TIMx CR2 register value */
  tmpcr2 =  TIMx->CR2;
 80038b4:	687b      	ldr	r3, [r7, #4]
 80038b6:	685b      	ldr	r3, [r3, #4]
 80038b8:	613b      	str	r3, [r7, #16]

  /* Get the TIMx CCMR1 register value */
  tmpccmrx = TIMx->CCMR1;
 80038ba:	687b      	ldr	r3, [r7, #4]
 80038bc:	699b      	ldr	r3, [r3, #24]
 80038be:	60fb      	str	r3, [r7, #12]

  /* Reset the Output Compare mode and Capture/Compare selection Bits */
  tmpccmrx &= ~TIM_CCMR1_OC2M;
 80038c0:	68fb      	ldr	r3, [r7, #12]
 80038c2:	f423 43e0 	bic.w	r3, r3, #28672	@ 0x7000
 80038c6:	60fb      	str	r3, [r7, #12]
  tmpccmrx &= ~TIM_CCMR1_CC2S;
 80038c8:	68fb      	ldr	r3, [r7, #12]
 80038ca:	f423 7340 	bic.w	r3, r3, #768	@ 0x300
 80038ce:	60fb      	str	r3, [r7, #12]

  /* Select the Output Compare Mode */
  tmpccmrx |= (OC_Config->OCMode << 8U);
 80038d0:	683b      	ldr	r3, [r7, #0]
 80038d2:	681b      	ldr	r3, [r3, #0]
 80038d4:	021b      	lsls	r3, r3, #8
 80038d6:	68fa      	ldr	r2, [r7, #12]
 80038d8:	4313      	orrs	r3, r2
 80038da:	60fb      	str	r3, [r7, #12]

  /* Reset the Output Polarity level */
  tmpccer &= ~TIM_CCER_CC2P;
 80038dc:	697b      	ldr	r3, [r7, #20]
 80038de:	f023 0320 	bic.w	r3, r3, #32
 80038e2:	617b      	str	r3, [r7, #20]
  /* Set the Output Compare Polarity */
  tmpccer |= (OC_Config->OCPolarity << 4U);
 80038e4:	683b      	ldr	r3, [r7, #0]
 80038e6:	689b      	ldr	r3, [r3, #8]
 80038e8:	011b      	lsls	r3, r3, #4
 80038ea:	697a      	ldr	r2, [r7, #20]
 80038ec:	4313      	orrs	r3, r2
 80038ee:	617b      	str	r3, [r7, #20]

  if (IS_TIM_CCXN_INSTANCE(TIMx, TIM_CHANNEL_2))
 80038f0:	687b      	ldr	r3, [r7, #4]
 80038f2:	4a1d      	ldr	r2, [pc, #116]	@ (8003968 <TIM_OC2_SetConfig+0xd0>)
 80038f4:	4293      	cmp	r3, r2
 80038f6:	d10d      	bne.n	8003914 <TIM_OC2_SetConfig+0x7c>
  {
    assert_param(IS_TIM_OCN_POLARITY(OC_Config->OCNPolarity));

    /* Reset the Output N Polarity level */
    tmpccer &= ~TIM_CCER_CC2NP;
 80038f8:	697b      	ldr	r3, [r7, #20]
 80038fa:	f023 0380 	bic.w	r3, r3, #128	@ 0x80
 80038fe:	617b      	str	r3, [r7, #20]
    /* Set the Output N Polarity */
    tmpccer |= (OC_Config->OCNPolarity << 4U);
 8003900:	683b      	ldr	r3, [r7, #0]
 8003902:	68db      	ldr	r3, [r3, #12]
 8003904:	011b      	lsls	r3, r3, #4
 8003906:	697a      	ldr	r2, [r7, #20]
 8003908:	4313      	orrs	r3, r2
 800390a:	617b      	str	r3, [r7, #20]
    /* Reset the Output N State */
    tmpccer &= ~TIM_CCER_CC2NE;
 800390c:	697b      	ldr	r3, [r7, #20]
 800390e:	f023 0340 	bic.w	r3, r3, #64	@ 0x40
 8003912:	617b      	str	r3, [r7, #20]

  }

  if (IS_TIM_BREAK_INSTANCE(TIMx))
 8003914:	687b      	ldr	r3, [r7, #4]
 8003916:	4a14      	ldr	r2, [pc, #80]	@ (8003968 <TIM_OC2_SetConfig+0xd0>)
 8003918:	4293      	cmp	r3, r2
 800391a:	d113      	bne.n	8003944 <TIM_OC2_SetConfig+0xac>
    /* Check parameters */
    assert_param(IS_TIM_OCNIDLE_STATE(OC_Config->OCNIdleState));
    assert_param(IS_TIM_OCIDLE_STATE(OC_Config->OCIdleState));

    /* Reset the Output Compare and Output Compare N IDLE State */
    tmpcr2 &= ~TIM_CR2_OIS2;
 800391c:	693b      	ldr	r3, [r7, #16]
 800391e:	f423 6380 	bic.w	r3, r3, #1024	@ 0x400
 8003922:	613b      	str	r3, [r7, #16]
    tmpcr2 &= ~TIM_CR2_OIS2N;
 8003924:	693b      	ldr	r3, [r7, #16]
 8003926:	f423 6300 	bic.w	r3, r3, #2048	@ 0x800
 800392a:	613b      	str	r3, [r7, #16]
    /* Set the Output Idle state */
    tmpcr2 |= (OC_Config->OCIdleState << 2U);
 800392c:	683b      	ldr	r3, [r7, #0]
 800392e:	695b      	ldr	r3, [r3, #20]
 8003930:	009b      	lsls	r3, r3, #2
 8003932:	693a      	ldr	r2, [r7, #16]
 8003934:	4313      	orrs	r3, r2
 8003936:	613b      	str	r3, [r7, #16]
    /* Set the Output N Idle state */
    tmpcr2 |= (OC_Config->OCNIdleState << 2U);
 8003938:	683b      	ldr	r3, [r7, #0]
 800393a:	699b      	ldr	r3, [r3, #24]
 800393c:	009b      	lsls	r3, r3, #2
 800393e:	693a      	ldr	r2, [r7, #16]
 8003940:	4313      	orrs	r3, r2
 8003942:	613b      	str	r3, [r7, #16]
  }

  /* Write to TIMx CR2 */
  TIMx->CR2 = tmpcr2;
 8003944:	687b      	ldr	r3, [r7, #4]
 8003946:	693a      	ldr	r2, [r7, #16]
 8003948:	605a      	str	r2, [r3, #4]

  /* Write to TIMx CCMR1 */
  TIMx->CCMR1 = tmpccmrx;
 800394a:	687b      	ldr	r3, [r7, #4]
 800394c:	68fa      	ldr	r2, [r7, #12]
 800394e:	619a      	str	r2, [r3, #24]

  /* Set the Capture Compare Register value */
  TIMx->CCR2 = OC_Config->Pulse;
 8003950:	683b      	ldr	r3, [r7, #0]
 8003952:	685a      	ldr	r2, [r3, #4]
 8003954:	687b      	ldr	r3, [r7, #4]
 8003956:	639a      	str	r2, [r3, #56]	@ 0x38

  /* Write to TIMx CCER */
  TIMx->CCER = tmpccer;
 8003958:	687b      	ldr	r3, [r7, #4]
 800395a:	697a      	ldr	r2, [r7, #20]
 800395c:	621a      	str	r2, [r3, #32]
}
 800395e:	bf00      	nop
 8003960:	371c      	adds	r7, #28
 8003962:	46bd      	mov	sp, r7
 8003964:	bc80      	pop	{r7}
 8003966:	4770      	bx	lr
 8003968:	40012c00 	.word	0x40012c00

0800396c <TIM_OC3_SetConfig>:
  * @param  TIMx to select the TIM peripheral
  * @param  OC_Config The output configuration structure
  * @retval None
  */
static void TIM_OC3_SetConfig(TIM_TypeDef *TIMx, const TIM_OC_InitTypeDef *OC_Config)
{
 800396c:	b480      	push	{r7}
 800396e:	b087      	sub	sp, #28
 8003970:	af00      	add	r7, sp, #0
 8003972:	6078      	str	r0, [r7, #4]
 8003974:	6039      	str	r1, [r7, #0]
  uint32_t tmpccmrx;
  uint32_t tmpccer;
  uint32_t tmpcr2;

  /* Get the TIMx CCER register value */
  tmpccer = TIMx->CCER;
 8003976:	687b      	ldr	r3, [r7, #4]
 8003978:	6a1b      	ldr	r3, [r3, #32]
 800397a:	617b      	str	r3, [r7, #20]

  /* Disable the Channel 3: Reset the CC2E Bit */
  TIMx->CCER &= ~TIM_CCER_CC3E;
 800397c:	687b      	ldr	r3, [r7, #4]
 800397e:	6a1b      	ldr	r3, [r3, #32]
 8003980:	f423 7280 	bic.w	r2, r3, #256	@ 0x100
 8003984:	687b      	ldr	r3, [r7, #4]
 8003986:	621a      	str	r2, [r3, #32]

  /* Get the TIMx CR2 register value */
  tmpcr2 =  TIMx->CR2;
 8003988:	687b      	ldr	r3, [r7, #4]
 800398a:	685b      	ldr	r3, [r3, #4]
 800398c:	613b      	str	r3, [r7, #16]

  /* Get the TIMx CCMR2 register value */
  tmpccmrx = TIMx->CCMR2;
 800398e:	687b      	ldr	r3, [r7, #4]
 8003990:	69db      	ldr	r3, [r3, #28]
 8003992:	60fb      	str	r3, [r7, #12]

  /* Reset the Output Compare mode and Capture/Compare selection Bits */
  tmpccmrx &= ~TIM_CCMR2_OC3M;
 8003994:	68fb      	ldr	r3, [r7, #12]
 8003996:	f023 0370 	bic.w	r3, r3, #112	@ 0x70
 800399a:	60fb      	str	r3, [r7, #12]
  tmpccmrx &= ~TIM_CCMR2_CC3S;
 800399c:	68fb      	ldr	r3, [r7, #12]
 800399e:	f023 0303 	bic.w	r3, r3, #3
 80039a2:	60fb      	str	r3, [r7, #12]
  /* Select the Output Compare Mode */
  tmpccmrx |= OC_Config->OCMode;
 80039a4:	683b      	ldr	r3, [r7, #0]
 80039a6:	681b      	ldr	r3, [r3, #0]
 80039a8:	68fa      	ldr	r2, [r7, #12]
 80039aa:	4313      	orrs	r3, r2
 80039ac:	60fb      	str	r3, [r7, #12]

  /* Reset the Output Polarity level */
  tmpccer &= ~TIM_CCER_CC3P;
 80039ae:	697b      	ldr	r3, [r7, #20]
 80039b0:	f423 7300 	bic.w	r3, r3, #512	@ 0x200
 80039b4:	617b      	str	r3, [r7, #20]
  /* Set the Output Compare Polarity */
  tmpccer |= (OC_Config->OCPolarity << 8U);
 80039b6:	683b      	ldr	r3, [r7, #0]
 80039b8:	689b      	ldr	r3, [r3, #8]
 80039ba:	021b      	lsls	r3, r3, #8
 80039bc:	697a      	ldr	r2, [r7, #20]
 80039be:	4313      	orrs	r3, r2
 80039c0:	617b      	str	r3, [r7, #20]

  if (IS_TIM_CCXN_INSTANCE(TIMx, TIM_CHANNEL_3))
 80039c2:	687b      	ldr	r3, [r7, #4]
 80039c4:	4a1d      	ldr	r2, [pc, #116]	@ (8003a3c <TIM_OC3_SetConfig+0xd0>)
 80039c6:	4293      	cmp	r3, r2
 80039c8:	d10d      	bne.n	80039e6 <TIM_OC3_SetConfig+0x7a>
  {
    assert_param(IS_TIM_OCN_POLARITY(OC_Config->OCNPolarity));

    /* Reset the Output N Polarity level */
    tmpccer &= ~TIM_CCER_CC3NP;
 80039ca:	697b      	ldr	r3, [r7, #20]
 80039cc:	f423 6300 	bic.w	r3, r3, #2048	@ 0x800
 80039d0:	617b      	str	r3, [r7, #20]
    /* Set the Output N Polarity */
    tmpccer |= (OC_Config->OCNPolarity << 8U);
 80039d2:	683b      	ldr	r3, [r7, #0]
 80039d4:	68db      	ldr	r3, [r3, #12]
 80039d6:	021b      	lsls	r3, r3, #8
 80039d8:	697a      	ldr	r2, [r7, #20]
 80039da:	4313      	orrs	r3, r2
 80039dc:	617b      	str	r3, [r7, #20]
    /* Reset the Output N State */
    tmpccer &= ~TIM_CCER_CC3NE;
 80039de:	697b      	ldr	r3, [r7, #20]
 80039e0:	f423 6380 	bic.w	r3, r3, #1024	@ 0x400
 80039e4:	617b      	str	r3, [r7, #20]
  }

  if (IS_TIM_BREAK_INSTANCE(TIMx))
 80039e6:	687b      	ldr	r3, [r7, #4]
 80039e8:	4a14      	ldr	r2, [pc, #80]	@ (8003a3c <TIM_OC3_SetConfig+0xd0>)
 80039ea:	4293      	cmp	r3, r2
 80039ec:	d113      	bne.n	8003a16 <TIM_OC3_SetConfig+0xaa>
    /* Check parameters */
    assert_param(IS_TIM_OCNIDLE_STATE(OC_Config->OCNIdleState));
    assert_param(IS_TIM_OCIDLE_STATE(OC_Config->OCIdleState));

    /* Reset the Output Compare and Output Compare N IDLE State */
    tmpcr2 &= ~TIM_CR2_OIS3;
 80039ee:	693b      	ldr	r3, [r7, #16]
 80039f0:	f423 5380 	bic.w	r3, r3, #4096	@ 0x1000
 80039f4:	613b      	str	r3, [r7, #16]
    tmpcr2 &= ~TIM_CR2_OIS3N;
 80039f6:	693b      	ldr	r3, [r7, #16]
 80039f8:	f423 5300 	bic.w	r3, r3, #8192	@ 0x2000
 80039fc:	613b      	str	r3, [r7, #16]
    /* Set the Output Idle state */
    tmpcr2 |= (OC_Config->OCIdleState << 4U);
 80039fe:	683b      	ldr	r3, [r7, #0]
 8003a00:	695b      	ldr	r3, [r3, #20]
 8003a02:	011b      	lsls	r3, r3, #4
 8003a04:	693a      	ldr	r2, [r7, #16]
 8003a06:	4313      	orrs	r3, r2
 8003a08:	613b      	str	r3, [r7, #16]
    /* Set the Output N Idle state */
    tmpcr2 |= (OC_Config->OCNIdleState << 4U);
 8003a0a:	683b      	ldr	r3, [r7, #0]
 8003a0c:	699b      	ldr	r3, [r3, #24]
 8003a0e:	011b      	lsls	r3, r3, #4
 8003a10:	693a      	ldr	r2, [r7, #16]
 8003a12:	4313      	orrs	r3, r2
 8003a14:	613b      	str	r3, [r7, #16]
  }

  /* Write to TIMx CR2 */
  TIMx->CR2 = tmpcr2;
 8003a16:	687b      	ldr	r3, [r7, #4]
 8003a18:	693a      	ldr	r2, [r7, #16]
 8003a1a:	605a      	str	r2, [r3, #4]

  /* Write to TIMx CCMR2 */
  TIMx->CCMR2 = tmpccmrx;
 8003a1c:	687b      	ldr	r3, [r7, #4]
 8003a1e:	68fa      	ldr	r2, [r7, #12]
 8003a20:	61da      	str	r2, [r3, #28]

  /* Set the Capture Compare Register value */
  TIMx->CCR3 = OC_Config->Pulse;
 8003a22:	683b      	ldr	r3, [r7, #0]
 8003a24:	685a      	ldr	r2, [r3, #4]
 8003a26:	687b      	ldr	r3, [r7, #4]
 8003a28:	63da      	str	r2, [r3, #60]	@ 0x3c

  /* Write to TIMx CCER */
  TIMx->CCER = tmpccer;
 8003a2a:	687b      	ldr	r3, [r7, #4]
 8003a2c:	697a      	ldr	r2, [r7, #20]
 8003a2e:	621a      	str	r2, [r3, #32]
}
 8003a30:	bf00      	nop
 8003a32:	371c      	adds	r7, #28
 8003a34:	46bd      	mov	sp, r7
 8003a36:	bc80      	pop	{r7}
 8003a38:	4770      	bx	lr
 8003a3a:	bf00      	nop
 8003a3c:	40012c00 	.word	0x40012c00

08003a40 <TIM_OC4_SetConfig>:
  * @param  TIMx to select the TIM peripheral
  * @param  OC_Config The output configuration structure
  * @retval None
  */
static void TIM_OC4_SetConfig(TIM_TypeDef *TIMx, const TIM_OC_InitTypeDef *OC_Config)
{
 8003a40:	b480      	push	{r7}
 8003a42:	b087      	sub	sp, #28
 8003a44:	af00      	add	r7, sp, #0
 8003a46:	6078      	str	r0, [r7, #4]
 8003a48:	6039      	str	r1, [r7, #0]
  uint32_t tmpccmrx;
  uint32_t tmpccer;
  uint32_t tmpcr2;

  /* Get the TIMx CCER register value */
  tmpccer = TIMx->CCER;
 8003a4a:	687b      	ldr	r3, [r7, #4]
 8003a4c:	6a1b      	ldr	r3, [r3, #32]
 8003a4e:	613b      	str	r3, [r7, #16]

  /* Disable the Channel 4: Reset the CC4E Bit */
  TIMx->CCER &= ~TIM_CCER_CC4E;
 8003a50:	687b      	ldr	r3, [r7, #4]
 8003a52:	6a1b      	ldr	r3, [r3, #32]
 8003a54:	f423 5280 	bic.w	r2, r3, #4096	@ 0x1000
 8003a58:	687b      	ldr	r3, [r7, #4]
 8003a5a:	621a      	str	r2, [r3, #32]

  /* Get the TIMx CR2 register value */
  tmpcr2 =  TIMx->CR2;
 8003a5c:	687b      	ldr	r3, [r7, #4]
 8003a5e:	685b      	ldr	r3, [r3, #4]
 8003a60:	617b      	str	r3, [r7, #20]

  /* Get the TIMx CCMR2 register value */
  tmpccmrx = TIMx->CCMR2;
 8003a62:	687b      	ldr	r3, [r7, #4]
 8003a64:	69db      	ldr	r3, [r3, #28]
 8003a66:	60fb      	str	r3, [r7, #12]

  /* Reset the Output Compare mode and Capture/Compare selection Bits */
  tmpccmrx &= ~TIM_CCMR2_OC4M;
 8003a68:	68fb      	ldr	r3, [r7, #12]
 8003a6a:	f423 43e0 	bic.w	r3, r3, #28672	@ 0x7000
 8003a6e:	60fb      	str	r3, [r7, #12]
  tmpccmrx &= ~TIM_CCMR2_CC4S;
 8003a70:	68fb      	ldr	r3, [r7, #12]
 8003a72:	f423 7340 	bic.w	r3, r3, #768	@ 0x300
 8003a76:	60fb      	str	r3, [r7, #12]

  /* Select the Output Compare Mode */
  tmpccmrx |= (OC_Config->OCMode << 8U);
 8003a78:	683b      	ldr	r3, [r7, #0]
 8003a7a:	681b      	ldr	r3, [r3, #0]
 8003a7c:	021b      	lsls	r3, r3, #8
 8003a7e:	68fa      	ldr	r2, [r7, #12]
 8003a80:	4313      	orrs	r3, r2
 8003a82:	60fb      	str	r3, [r7, #12]

  /* Reset the Output Polarity level */
  tmpccer &= ~TIM_CCER_CC4P;
 8003a84:	693b      	ldr	r3, [r7, #16]
 8003a86:	f423 5300 	bic.w	r3, r3, #8192	@ 0x2000
 8003a8a:	613b      	str	r3, [r7, #16]
  /* Set the Output Compare Polarity */
  tmpccer |= (OC_Config->OCPolarity << 12U);
 8003a8c:	683b      	ldr	r3, [r7, #0]
 8003a8e:	689b      	ldr	r3, [r3, #8]
 8003a90:	031b      	lsls	r3, r3, #12
 8003a92:	693a      	ldr	r2, [r7, #16]
 8003a94:	4313      	orrs	r3, r2
 8003a96:	613b      	str	r3, [r7, #16]

  if (IS_TIM_BREAK_INSTANCE(TIMx))
 8003a98:	687b      	ldr	r3, [r7, #4]
 8003a9a:	4a0f      	ldr	r2, [pc, #60]	@ (8003ad8 <TIM_OC4_SetConfig+0x98>)
 8003a9c:	4293      	cmp	r3, r2
 8003a9e:	d109      	bne.n	8003ab4 <TIM_OC4_SetConfig+0x74>
  {
    /* Check parameters */
    assert_param(IS_TIM_OCIDLE_STATE(OC_Config->OCIdleState));

    /* Reset the Output Compare IDLE State */
    tmpcr2 &= ~TIM_CR2_OIS4;
 8003aa0:	697b      	ldr	r3, [r7, #20]
 8003aa2:	f423 4380 	bic.w	r3, r3, #16384	@ 0x4000
 8003aa6:	617b      	str	r3, [r7, #20]

    /* Set the Output Idle state */
    tmpcr2 |= (OC_Config->OCIdleState << 6U);
 8003aa8:	683b      	ldr	r3, [r7, #0]
 8003aaa:	695b      	ldr	r3, [r3, #20]
 8003aac:	019b      	lsls	r3, r3, #6
 8003aae:	697a      	ldr	r2, [r7, #20]
 8003ab0:	4313      	orrs	r3, r2
 8003ab2:	617b      	str	r3, [r7, #20]
  }

  /* Write to TIMx CR2 */
  TIMx->CR2 = tmpcr2;
 8003ab4:	687b      	ldr	r3, [r7, #4]
 8003ab6:	697a      	ldr	r2, [r7, #20]
 8003ab8:	605a      	str	r2, [r3, #4]

  /* Write to TIMx CCMR2 */
  TIMx->CCMR2 = tmpccmrx;
 8003aba:	687b      	ldr	r3, [r7, #4]
 8003abc:	68fa      	ldr	r2, [r7, #12]
 8003abe:	61da      	str	r2, [r3, #28]

  /* Set the Capture Compare Register value */
  TIMx->CCR4 = OC_Config->Pulse;
 8003ac0:	683b      	ldr	r3, [r7, #0]
 8003ac2:	685a      	ldr	r2, [r3, #4]
 8003ac4:	687b      	ldr	r3, [r7, #4]
 8003ac6:	641a      	str	r2, [r3, #64]	@ 0x40

  /* Write to TIMx CCER */
  TIMx->CCER = tmpccer;
 8003ac8:	687b      	ldr	r3, [r7, #4]
 8003aca:	693a      	ldr	r2, [r7, #16]
 8003acc:	621a      	str	r2, [r3, #32]
}
 8003ace:	bf00      	nop
 8003ad0:	371c      	adds	r7, #28
 8003ad2:	46bd      	mov	sp, r7
 8003ad4:	bc80      	pop	{r7}
 8003ad6:	4770      	bx	lr
 8003ad8:	40012c00 	.word	0x40012c00

08003adc <TIM_TI1_ConfigInputStage>:
  * @param  TIM_ICFilter Specifies the Input Capture Filter.
  *          This parameter must be a value between 0x00 and 0x0F.
  * @retval None
  */
static void TIM_TI1_ConfigInputStage(TIM_TypeDef *TIMx, uint32_t TIM_ICPolarity, uint32_t TIM_ICFilter)
{
 8003adc:	b480      	push	{r7}
 8003ade:	b087      	sub	sp, #28
 8003ae0:	af00      	add	r7, sp, #0
 8003ae2:	60f8      	str	r0, [r7, #12]
 8003ae4:	60b9      	str	r1, [r7, #8]
 8003ae6:	607a      	str	r2, [r7, #4]
  uint32_t tmpccmr1;
  uint32_t tmpccer;

  /* Disable the Channel 1: Reset the CC1E Bit */
  tmpccer = TIMx->CCER;
 8003ae8:	68fb      	ldr	r3, [r7, #12]
 8003aea:	6a1b      	ldr	r3, [r3, #32]
 8003aec:	617b      	str	r3, [r7, #20]
  TIMx->CCER &= ~TIM_CCER_CC1E;
 8003aee:	68fb      	ldr	r3, [r7, #12]
 8003af0:	6a1b      	ldr	r3, [r3, #32]
 8003af2:	f023 0201 	bic.w	r2, r3, #1
 8003af6:	68fb      	ldr	r3, [r7, #12]
 8003af8:	621a      	str	r2, [r3, #32]
  tmpccmr1 = TIMx->CCMR1;
 8003afa:	68fb      	ldr	r3, [r7, #12]
 8003afc:	699b      	ldr	r3, [r3, #24]
 8003afe:	613b      	str	r3, [r7, #16]

  /* Set the filter */
  tmpccmr1 &= ~TIM_CCMR1_IC1F;
 8003b00:	693b      	ldr	r3, [r7, #16]
 8003b02:	f023 03f0 	bic.w	r3, r3, #240	@ 0xf0
 8003b06:	613b      	str	r3, [r7, #16]
  tmpccmr1 |= (TIM_ICFilter << 4U);
 8003b08:	687b      	ldr	r3, [r7, #4]
 8003b0a:	011b      	lsls	r3, r3, #4
 8003b0c:	693a      	ldr	r2, [r7, #16]
 8003b0e:	4313      	orrs	r3, r2
 8003b10:	613b      	str	r3, [r7, #16]

  /* Select the Polarity and set the CC1E Bit */
  tmpccer &= ~(TIM_CCER_CC1P | TIM_CCER_CC1NP);
 8003b12:	697b      	ldr	r3, [r7, #20]
 8003b14:	f023 030a 	bic.w	r3, r3, #10
 8003b18:	617b      	str	r3, [r7, #20]
  tmpccer |= TIM_ICPolarity;
 8003b1a:	697a      	ldr	r2, [r7, #20]
 8003b1c:	68bb      	ldr	r3, [r7, #8]
 8003b1e:	4313      	orrs	r3, r2
 8003b20:	617b      	str	r3, [r7, #20]

  /* Write to TIMx CCMR1 and CCER registers */
  TIMx->CCMR1 = tmpccmr1;
 8003b22:	68fb      	ldr	r3, [r7, #12]
 8003b24:	693a      	ldr	r2, [r7, #16]
 8003b26:	619a      	str	r2, [r3, #24]
  TIMx->CCER = tmpccer;
 8003b28:	68fb      	ldr	r3, [r7, #12]
 8003b2a:	697a      	ldr	r2, [r7, #20]
 8003b2c:	621a      	str	r2, [r3, #32]
}
 8003b2e:	bf00      	nop
 8003b30:	371c      	adds	r7, #28
 8003b32:	46bd      	mov	sp, r7
 8003b34:	bc80      	pop	{r7}
 8003b36:	4770      	bx	lr

08003b38 <TIM_TI2_ConfigInputStage>:
  * @param  TIM_ICFilter Specifies the Input Capture Filter.
  *          This parameter must be a value between 0x00 and 0x0F.
  * @retval None
  */
static void TIM_TI2_ConfigInputStage(TIM_TypeDef *TIMx, uint32_t TIM_ICPolarity, uint32_t TIM_ICFilter)
{
 8003b38:	b480      	push	{r7}
 8003b3a:	b087      	sub	sp, #28
 8003b3c:	af00      	add	r7, sp, #0
 8003b3e:	60f8      	str	r0, [r7, #12]
 8003b40:	60b9      	str	r1, [r7, #8]
 8003b42:	607a      	str	r2, [r7, #4]
  uint32_t tmpccmr1;
  uint32_t tmpccer;

  /* Disable the Channel 2: Reset the CC2E Bit */
  tmpccer = TIMx->CCER;
 8003b44:	68fb      	ldr	r3, [r7, #12]
 8003b46:	6a1b      	ldr	r3, [r3, #32]
 8003b48:	617b      	str	r3, [r7, #20]
  TIMx->CCER &= ~TIM_CCER_CC2E;
 8003b4a:	68fb      	ldr	r3, [r7, #12]
 8003b4c:	6a1b      	ldr	r3, [r3, #32]
 8003b4e:	f023 0210 	bic.w	r2, r3, #16
 8003b52:	68fb      	ldr	r3, [r7, #12]
 8003b54:	621a      	str	r2, [r3, #32]
  tmpccmr1 = TIMx->CCMR1;
 8003b56:	68fb      	ldr	r3, [r7, #12]
 8003b58:	699b      	ldr	r3, [r3, #24]
 8003b5a:	613b      	str	r3, [r7, #16]

  /* Set the filter */
  tmpccmr1 &= ~TIM_CCMR1_IC2F;
 8003b5c:	693b      	ldr	r3, [r7, #16]
 8003b5e:	f423 4370 	bic.w	r3, r3, #61440	@ 0xf000
 8003b62:	613b      	str	r3, [r7, #16]
  tmpccmr1 |= (TIM_ICFilter << 12U);
 8003b64:	687b      	ldr	r3, [r7, #4]
 8003b66:	031b      	lsls	r3, r3, #12
 8003b68:	693a      	ldr	r2, [r7, #16]
 8003b6a:	4313      	orrs	r3, r2
 8003b6c:	613b      	str	r3, [r7, #16]

  /* Select the Polarity and set the CC2E Bit */
  tmpccer &= ~(TIM_CCER_CC2P | TIM_CCER_CC2NP);
 8003b6e:	697b      	ldr	r3, [r7, #20]
 8003b70:	f023 03a0 	bic.w	r3, r3, #160	@ 0xa0
 8003b74:	617b      	str	r3, [r7, #20]
  tmpccer |= (TIM_ICPolarity << 4U);
 8003b76:	68bb      	ldr	r3, [r7, #8]
 8003b78:	011b      	lsls	r3, r3, #4
 8003b7a:	697a      	ldr	r2, [r7, #20]
 8003b7c:	4313      	orrs	r3, r2
 8003b7e:	617b      	str	r3, [r7, #20]

  /* Write to TIMx CCMR1 and CCER registers */
  TIMx->CCMR1 = tmpccmr1 ;
 8003b80:	68fb      	ldr	r3, [r7, #12]
 8003b82:	693a      	ldr	r2, [r7, #16]
 8003b84:	619a      	str	r2, [r3, #24]
  TIMx->CCER = tmpccer;
 8003b86:	68fb      	ldr	r3, [r7, #12]
 8003b88:	697a      	ldr	r2, [r7, #20]
 8003b8a:	621a      	str	r2, [r3, #32]
}
 8003b8c:	bf00      	nop
 8003b8e:	371c      	adds	r7, #28
 8003b90:	46bd      	mov	sp, r7
 8003b92:	bc80      	pop	{r7}
 8003b94:	4770      	bx	lr

08003b96 <TIM_ITRx_SetConfig>:
  *            @arg TIM_TS_TI2FP2: Filtered Timer Input 2
  *            @arg TIM_TS_ETRF: External Trigger input
  * @retval None
  */
static void TIM_ITRx_SetConfig(TIM_TypeDef *TIMx, uint32_t InputTriggerSource)
{
 8003b96:	b480      	push	{r7}
 8003b98:	b085      	sub	sp, #20
 8003b9a:	af00      	add	r7, sp, #0
 8003b9c:	6078      	str	r0, [r7, #4]
 8003b9e:	6039      	str	r1, [r7, #0]
  uint32_t tmpsmcr;

  /* Get the TIMx SMCR register value */
  tmpsmcr = TIMx->SMCR;
 8003ba0:	687b      	ldr	r3, [r7, #4]
 8003ba2:	689b      	ldr	r3, [r3, #8]
 8003ba4:	60fb      	str	r3, [r7, #12]
  /* Reset the TS Bits */
  tmpsmcr &= ~TIM_SMCR_TS;
 8003ba6:	68fb      	ldr	r3, [r7, #12]
 8003ba8:	f023 0370 	bic.w	r3, r3, #112	@ 0x70
 8003bac:	60fb      	str	r3, [r7, #12]
  /* Set the Input Trigger source and the slave mode*/
  tmpsmcr |= (InputTriggerSource | TIM_SLAVEMODE_EXTERNAL1);
 8003bae:	683a      	ldr	r2, [r7, #0]
 8003bb0:	68fb      	ldr	r3, [r7, #12]
 8003bb2:	4313      	orrs	r3, r2
 8003bb4:	f043 0307 	orr.w	r3, r3, #7
 8003bb8:	60fb      	str	r3, [r7, #12]
  /* Write to TIMx SMCR */
  TIMx->SMCR = tmpsmcr;
 8003bba:	687b      	ldr	r3, [r7, #4]
 8003bbc:	68fa      	ldr	r2, [r7, #12]
 8003bbe:	609a      	str	r2, [r3, #8]
}
 8003bc0:	bf00      	nop
 8003bc2:	3714      	adds	r7, #20
 8003bc4:	46bd      	mov	sp, r7
 8003bc6:	bc80      	pop	{r7}
 8003bc8:	4770      	bx	lr

08003bca <TIM_ETR_SetConfig>:
  *          This parameter must be a value between 0x00 and 0x0F
  * @retval None
  */
void TIM_ETR_SetConfig(TIM_TypeDef *TIMx, uint32_t TIM_ExtTRGPrescaler,
                       uint32_t TIM_ExtTRGPolarity, uint32_t ExtTRGFilter)
{
 8003bca:	b480      	push	{r7}
 8003bcc:	b087      	sub	sp, #28
 8003bce:	af00      	add	r7, sp, #0
 8003bd0:	60f8      	str	r0, [r7, #12]
 8003bd2:	60b9      	str	r1, [r7, #8]
 8003bd4:	607a      	str	r2, [r7, #4]
 8003bd6:	603b      	str	r3, [r7, #0]
  uint32_t tmpsmcr;

  tmpsmcr = TIMx->SMCR;
 8003bd8:	68fb      	ldr	r3, [r7, #12]
 8003bda:	689b      	ldr	r3, [r3, #8]
 8003bdc:	617b      	str	r3, [r7, #20]

  /* Reset the ETR Bits */
  tmpsmcr &= ~(TIM_SMCR_ETF | TIM_SMCR_ETPS | TIM_SMCR_ECE | TIM_SMCR_ETP);
 8003bde:	697b      	ldr	r3, [r7, #20]
 8003be0:	f423 437f 	bic.w	r3, r3, #65280	@ 0xff00
 8003be4:	617b      	str	r3, [r7, #20]

  /* Set the Prescaler, the Filter value and the Polarity */
  tmpsmcr |= (uint32_t)(TIM_ExtTRGPrescaler | (TIM_ExtTRGPolarity | (ExtTRGFilter << 8U)));
 8003be6:	683b      	ldr	r3, [r7, #0]
 8003be8:	021a      	lsls	r2, r3, #8
 8003bea:	687b      	ldr	r3, [r7, #4]
 8003bec:	431a      	orrs	r2, r3
 8003bee:	68bb      	ldr	r3, [r7, #8]
 8003bf0:	4313      	orrs	r3, r2
 8003bf2:	697a      	ldr	r2, [r7, #20]
 8003bf4:	4313      	orrs	r3, r2
 8003bf6:	617b      	str	r3, [r7, #20]

  /* Write to TIMx SMCR */
  TIMx->SMCR = tmpsmcr;
 8003bf8:	68fb      	ldr	r3, [r7, #12]
 8003bfa:	697a      	ldr	r2, [r7, #20]
 8003bfc:	609a      	str	r2, [r3, #8]
}
 8003bfe:	bf00      	nop
 8003c00:	371c      	adds	r7, #28
 8003c02:	46bd      	mov	sp, r7
 8003c04:	bc80      	pop	{r7}
 8003c06:	4770      	bx	lr

08003c08 <HAL_TIMEx_MasterConfigSynchronization>:
  *         mode.
  * @retval HAL status
  */
HAL_StatusTypeDef HAL_TIMEx_MasterConfigSynchronization(TIM_HandleTypeDef *htim,
                                                        const TIM_MasterConfigTypeDef *sMasterConfig)
{
 8003c08:	b480      	push	{r7}
 8003c0a:	b085      	sub	sp, #20
 8003c0c:	af00      	add	r7, sp, #0
 8003c0e:	6078      	str	r0, [r7, #4]
 8003c10:	6039      	str	r1, [r7, #0]
  assert_param(IS_TIM_MASTER_INSTANCE(htim->Instance));
  assert_param(IS_TIM_TRGO_SOURCE(sMasterConfig->MasterOutputTrigger));
  assert_param(IS_TIM_MSM_STATE(sMasterConfig->MasterSlaveMode));

  /* Check input state */
  __HAL_LOCK(htim);
 8003c12:	687b      	ldr	r3, [r7, #4]
 8003c14:	f893 303c 	ldrb.w	r3, [r3, #60]	@ 0x3c
 8003c18:	2b01      	cmp	r3, #1
 8003c1a:	d101      	bne.n	8003c20 <HAL_TIMEx_MasterConfigSynchronization+0x18>
 8003c1c:	2302      	movs	r3, #2
 8003c1e:	e046      	b.n	8003cae <HAL_TIMEx_MasterConfigSynchronization+0xa6>
 8003c20:	687b      	ldr	r3, [r7, #4]
 8003c22:	2201      	movs	r2, #1
 8003c24:	f883 203c 	strb.w	r2, [r3, #60]	@ 0x3c

  /* Change the handler state */
  htim->State = HAL_TIM_STATE_BUSY;
 8003c28:	687b      	ldr	r3, [r7, #4]
 8003c2a:	2202      	movs	r2, #2
 8003c2c:	f883 203d 	strb.w	r2, [r3, #61]	@ 0x3d

  /* Get the TIMx CR2 register value */
  tmpcr2 = htim->Instance->CR2;
 8003c30:	687b      	ldr	r3, [r7, #4]
 8003c32:	681b      	ldr	r3, [r3, #0]
 8003c34:	685b      	ldr	r3, [r3, #4]
 8003c36:	60fb      	str	r3, [r7, #12]

  /* Get the TIMx SMCR register value */
  tmpsmcr = htim->Instance->SMCR;
 8003c38:	687b      	ldr	r3, [r7, #4]
 8003c3a:	681b      	ldr	r3, [r3, #0]
 8003c3c:	689b      	ldr	r3, [r3, #8]
 8003c3e:	60bb      	str	r3, [r7, #8]

  /* Reset the MMS Bits */
  tmpcr2 &= ~TIM_CR2_MMS;
 8003c40:	68fb      	ldr	r3, [r7, #12]
 8003c42:	f023 0370 	bic.w	r3, r3, #112	@ 0x70
 8003c46:	60fb      	str	r3, [r7, #12]
  /* Select the TRGO source */
  tmpcr2 |=  sMasterConfig->MasterOutputTrigger;
 8003c48:	683b      	ldr	r3, [r7, #0]
 8003c4a:	681b      	ldr	r3, [r3, #0]
 8003c4c:	68fa      	ldr	r2, [r7, #12]
 8003c4e:	4313      	orrs	r3, r2
 8003c50:	60fb      	str	r3, [r7, #12]

  /* Update TIMx CR2 */
  htim->Instance->CR2 = tmpcr2;
 8003c52:	687b      	ldr	r3, [r7, #4]
 8003c54:	681b      	ldr	r3, [r3, #0]
 8003c56:	68fa      	ldr	r2, [r7, #12]
 8003c58:	605a      	str	r2, [r3, #4]

  if (IS_TIM_SLAVE_INSTANCE(htim->Instance))
 8003c5a:	687b      	ldr	r3, [r7, #4]
 8003c5c:	681b      	ldr	r3, [r3, #0]
 8003c5e:	4a16      	ldr	r2, [pc, #88]	@ (8003cb8 <HAL_TIMEx_MasterConfigSynchronization+0xb0>)
 8003c60:	4293      	cmp	r3, r2
 8003c62:	d00e      	beq.n	8003c82 <HAL_TIMEx_MasterConfigSynchronization+0x7a>
 8003c64:	687b      	ldr	r3, [r7, #4]
 8003c66:	681b      	ldr	r3, [r3, #0]
 8003c68:	f1b3 4f80 	cmp.w	r3, #1073741824	@ 0x40000000
 8003c6c:	d009      	beq.n	8003c82 <HAL_TIMEx_MasterConfigSynchronization+0x7a>
 8003c6e:	687b      	ldr	r3, [r7, #4]
 8003c70:	681b      	ldr	r3, [r3, #0]
 8003c72:	4a12      	ldr	r2, [pc, #72]	@ (8003cbc <HAL_TIMEx_MasterConfigSynchronization+0xb4>)
 8003c74:	4293      	cmp	r3, r2
 8003c76:	d004      	beq.n	8003c82 <HAL_TIMEx_MasterConfigSynchronization+0x7a>
 8003c78:	687b      	ldr	r3, [r7, #4]
 8003c7a:	681b      	ldr	r3, [r3, #0]
 8003c7c:	4a10      	ldr	r2, [pc, #64]	@ (8003cc0 <HAL_TIMEx_MasterConfigSynchronization+0xb8>)
 8003c7e:	4293      	cmp	r3, r2
 8003c80:	d10c      	bne.n	8003c9c <HAL_TIMEx_MasterConfigSynchronization+0x94>
  {
    /* Reset the MSM Bit */
    tmpsmcr &= ~TIM_SMCR_MSM;
 8003c82:	68bb      	ldr	r3, [r7, #8]
 8003c84:	f023 0380 	bic.w	r3, r3, #128	@ 0x80
 8003c88:	60bb      	str	r3, [r7, #8]
    /* Set master mode */
    tmpsmcr |= sMasterConfig->MasterSlaveMode;
 8003c8a:	683b      	ldr	r3, [r7, #0]
 8003c8c:	685b      	ldr	r3, [r3, #4]
 8003c8e:	68ba      	ldr	r2, [r7, #8]
 8003c90:	4313      	orrs	r3, r2
 8003c92:	60bb      	str	r3, [r7, #8]

    /* Update TIMx SMCR */
    htim->Instance->SMCR = tmpsmcr;
 8003c94:	687b      	ldr	r3, [r7, #4]
 8003c96:	681b      	ldr	r3, [r3, #0]
 8003c98:	68ba      	ldr	r2, [r7, #8]
 8003c9a:	609a      	str	r2, [r3, #8]
  }

  /* Change the htim state */
  htim->State = HAL_TIM_STATE_READY;
 8003c9c:	687b      	ldr	r3, [r7, #4]
 8003c9e:	2201      	movs	r2, #1
 8003ca0:	f883 203d 	strb.w	r2, [r3, #61]	@ 0x3d

  __HAL_UNLOCK(htim);
 8003ca4:	687b      	ldr	r3, [r7, #4]
 8003ca6:	2200      	movs	r2, #0
 8003ca8:	f883 203c 	strb.w	r2, [r3, #60]	@ 0x3c

  return HAL_OK;
 8003cac:	2300      	movs	r3, #0
}
 8003cae:	4618      	mov	r0, r3
 8003cb0:	3714      	adds	r7, #20
 8003cb2:	46bd      	mov	sp, r7
 8003cb4:	bc80      	pop	{r7}
 8003cb6:	4770      	bx	lr
 8003cb8:	40012c00 	.word	0x40012c00
 8003cbc:	40000400 	.word	0x40000400
 8003cc0:	40000800 	.word	0x40000800

08003cc4 <memset>:
 8003cc4:	4603      	mov	r3, r0
 8003cc6:	4402      	add	r2, r0
 8003cc8:	4293      	cmp	r3, r2
 8003cca:	d100      	bne.n	8003cce <memset+0xa>
 8003ccc:	4770      	bx	lr
 8003cce:	f803 1b01 	strb.w	r1, [r3], #1
 8003cd2:	e7f9      	b.n	8003cc8 <memset+0x4>

08003cd4 <__errno>:
 8003cd4:	4b01      	ldr	r3, [pc, #4]	@ (8003cdc <__errno+0x8>)
 8003cd6:	6818      	ldr	r0, [r3, #0]
 8003cd8:	4770      	bx	lr
 8003cda:	bf00      	nop
 8003cdc:	2000000c 	.word	0x2000000c

08003ce0 <__libc_init_array>:
 8003ce0:	b570      	push	{r4, r5, r6, lr}
 8003ce2:	2600      	movs	r6, #0
 8003ce4:	4d0c      	ldr	r5, [pc, #48]	@ (8003d18 <__libc_init_array+0x38>)
 8003ce6:	4c0d      	ldr	r4, [pc, #52]	@ (8003d1c <__libc_init_array+0x3c>)
 8003ce8:	1b64      	subs	r4, r4, r5
 8003cea:	10a4      	asrs	r4, r4, #2
 8003cec:	42a6      	cmp	r6, r4
 8003cee:	d109      	bne.n	8003d04 <__libc_init_array+0x24>
 8003cf0:	f001 f8ea 	bl	8004ec8 <_init>
 8003cf4:	2600      	movs	r6, #0
 8003cf6:	4d0a      	ldr	r5, [pc, #40]	@ (8003d20 <__libc_init_array+0x40>)
 8003cf8:	4c0a      	ldr	r4, [pc, #40]	@ (8003d24 <__libc_init_array+0x44>)
 8003cfa:	1b64      	subs	r4, r4, r5
 8003cfc:	10a4      	asrs	r4, r4, #2
 8003cfe:	42a6      	cmp	r6, r4
 8003d00:	d105      	bne.n	8003d0e <__libc_init_array+0x2e>
 8003d02:	bd70      	pop	{r4, r5, r6, pc}
 8003d04:	f855 3b04 	ldr.w	r3, [r5], #4
 8003d08:	4798      	blx	r3
 8003d0a:	3601      	adds	r6, #1
 8003d0c:	e7ee      	b.n	8003cec <__libc_init_array+0xc>
 8003d0e:	f855 3b04 	ldr.w	r3, [r5], #4
 8003d12:	4798      	blx	r3
 8003d14:	3601      	adds	r6, #1
 8003d16:	e7f2      	b.n	8003cfe <__libc_init_array+0x1e>
 8003d18:	080050e0 	.word	0x080050e0
 8003d1c:	080050e0 	.word	0x080050e0
 8003d20:	080050e0 	.word	0x080050e0
 8003d24:	080050e4 	.word	0x080050e4

08003d28 <sqrt>:
 8003d28:	b5f8      	push	{r3, r4, r5, r6, r7, lr}
 8003d2a:	4606      	mov	r6, r0
 8003d2c:	460f      	mov	r7, r1
 8003d2e:	f000 f865 	bl	8003dfc <__ieee754_sqrt>
 8003d32:	4632      	mov	r2, r6
 8003d34:	4604      	mov	r4, r0
 8003d36:	460d      	mov	r5, r1
 8003d38:	463b      	mov	r3, r7
 8003d3a:	4630      	mov	r0, r6
 8003d3c:	4639      	mov	r1, r7
 8003d3e:	f7fc ff11 	bl	8000b64 <__aeabi_dcmpun>
 8003d42:	b990      	cbnz	r0, 8003d6a <sqrt+0x42>
 8003d44:	2200      	movs	r2, #0
 8003d46:	2300      	movs	r3, #0
 8003d48:	4630      	mov	r0, r6
 8003d4a:	4639      	mov	r1, r7
 8003d4c:	f7fc fee2 	bl	8000b14 <__aeabi_dcmplt>
 8003d50:	b158      	cbz	r0, 8003d6a <sqrt+0x42>
 8003d52:	f7ff ffbf 	bl	8003cd4 <__errno>
 8003d56:	2321      	movs	r3, #33	@ 0x21
 8003d58:	2200      	movs	r2, #0
 8003d5a:	6003      	str	r3, [r0, #0]
 8003d5c:	2300      	movs	r3, #0
 8003d5e:	4610      	mov	r0, r2
 8003d60:	4619      	mov	r1, r3
 8003d62:	f7fc fd8f 	bl	8000884 <__aeabi_ddiv>
 8003d66:	4604      	mov	r4, r0
 8003d68:	460d      	mov	r5, r1
 8003d6a:	4620      	mov	r0, r4
 8003d6c:	4629      	mov	r1, r5
 8003d6e:	bdf8      	pop	{r3, r4, r5, r6, r7, pc}

08003d70 <cos>:
 8003d70:	b530      	push	{r4, r5, lr}
 8003d72:	4d20      	ldr	r5, [pc, #128]	@ (8003df4 <cos+0x84>)
 8003d74:	f021 4400 	bic.w	r4, r1, #2147483648	@ 0x80000000
 8003d78:	42ac      	cmp	r4, r5
 8003d7a:	4602      	mov	r2, r0
 8003d7c:	460b      	mov	r3, r1
 8003d7e:	b087      	sub	sp, #28
 8003d80:	d806      	bhi.n	8003d90 <cos+0x20>
 8003d82:	2200      	movs	r2, #0
 8003d84:	2300      	movs	r3, #0
 8003d86:	b007      	add	sp, #28
 8003d88:	e8bd 4030 	ldmia.w	sp!, {r4, r5, lr}
 8003d8c:	f000 b90c 	b.w	8003fa8 <__kernel_cos>
 8003d90:	4d19      	ldr	r5, [pc, #100]	@ (8003df8 <cos+0x88>)
 8003d92:	42ac      	cmp	r4, r5
 8003d94:	d903      	bls.n	8003d9e <cos+0x2e>
 8003d96:	f7fc fa93 	bl	80002c0 <__aeabi_dsub>
 8003d9a:	b007      	add	sp, #28
 8003d9c:	bd30      	pop	{r4, r5, pc}
 8003d9e:	aa02      	add	r2, sp, #8
 8003da0:	f000 fa7a 	bl	8004298 <__ieee754_rem_pio2>
 8003da4:	f000 0003 	and.w	r0, r0, #3
 8003da8:	2801      	cmp	r0, #1
 8003daa:	d009      	beq.n	8003dc0 <cos+0x50>
 8003dac:	2802      	cmp	r0, #2
 8003dae:	d011      	beq.n	8003dd4 <cos+0x64>
 8003db0:	b9b8      	cbnz	r0, 8003de2 <cos+0x72>
 8003db2:	e9dd 2304 	ldrd	r2, r3, [sp, #16]
 8003db6:	e9dd 0102 	ldrd	r0, r1, [sp, #8]
 8003dba:	f000 f8f5 	bl	8003fa8 <__kernel_cos>
 8003dbe:	e7ec      	b.n	8003d9a <cos+0x2a>
 8003dc0:	9000      	str	r0, [sp, #0]
 8003dc2:	e9dd 2304 	ldrd	r2, r3, [sp, #16]
 8003dc6:	e9dd 0102 	ldrd	r0, r1, [sp, #8]
 8003dca:	f000 f9ad 	bl	8004128 <__kernel_sin>
 8003dce:	f101 4100 	add.w	r1, r1, #2147483648	@ 0x80000000
 8003dd2:	e7e2      	b.n	8003d9a <cos+0x2a>
 8003dd4:	e9dd 2304 	ldrd	r2, r3, [sp, #16]
 8003dd8:	e9dd 0102 	ldrd	r0, r1, [sp, #8]
 8003ddc:	f000 f8e4 	bl	8003fa8 <__kernel_cos>
 8003de0:	e7f5      	b.n	8003dce <cos+0x5e>
 8003de2:	2301      	movs	r3, #1
 8003de4:	e9dd 0102 	ldrd	r0, r1, [sp, #8]
 8003de8:	9300      	str	r3, [sp, #0]
 8003dea:	e9dd 2304 	ldrd	r2, r3, [sp, #16]
 8003dee:	f000 f99b 	bl	8004128 <__kernel_sin>
 8003df2:	e7d2      	b.n	8003d9a <cos+0x2a>
 8003df4:	3fe921fb 	.word	0x3fe921fb
 8003df8:	7fefffff 	.word	0x7fefffff

08003dfc <__ieee754_sqrt>:
 8003dfc:	4a67      	ldr	r2, [pc, #412]	@ (8003f9c <__ieee754_sqrt+0x1a0>)
 8003dfe:	e92d 4ff8 	stmdb	sp!, {r3, r4, r5, r6, r7, r8, r9, sl, fp, lr}
 8003e02:	438a      	bics	r2, r1
 8003e04:	4606      	mov	r6, r0
 8003e06:	460f      	mov	r7, r1
 8003e08:	460b      	mov	r3, r1
 8003e0a:	4604      	mov	r4, r0
 8003e0c:	d10e      	bne.n	8003e2c <__ieee754_sqrt+0x30>
 8003e0e:	4602      	mov	r2, r0
 8003e10:	f7fc fc0e 	bl	8000630 <__aeabi_dmul>
 8003e14:	4602      	mov	r2, r0
 8003e16:	460b      	mov	r3, r1
 8003e18:	4630      	mov	r0, r6
 8003e1a:	4639      	mov	r1, r7
 8003e1c:	f7fc fa52 	bl	80002c4 <__adddf3>
 8003e20:	4606      	mov	r6, r0
 8003e22:	460f      	mov	r7, r1
 8003e24:	4630      	mov	r0, r6
 8003e26:	4639      	mov	r1, r7
 8003e28:	e8bd 8ff8 	ldmia.w	sp!, {r3, r4, r5, r6, r7, r8, r9, sl, fp, pc}
 8003e2c:	2900      	cmp	r1, #0
 8003e2e:	dc0c      	bgt.n	8003e4a <__ieee754_sqrt+0x4e>
 8003e30:	f021 4200 	bic.w	r2, r1, #2147483648	@ 0x80000000
 8003e34:	4302      	orrs	r2, r0
 8003e36:	d0f5      	beq.n	8003e24 <__ieee754_sqrt+0x28>
 8003e38:	b189      	cbz	r1, 8003e5e <__ieee754_sqrt+0x62>
 8003e3a:	4602      	mov	r2, r0
 8003e3c:	f7fc fa40 	bl	80002c0 <__aeabi_dsub>
 8003e40:	4602      	mov	r2, r0
 8003e42:	460b      	mov	r3, r1
 8003e44:	f7fc fd1e 	bl	8000884 <__aeabi_ddiv>
 8003e48:	e7ea      	b.n	8003e20 <__ieee754_sqrt+0x24>
 8003e4a:	150a      	asrs	r2, r1, #20
 8003e4c:	d115      	bne.n	8003e7a <__ieee754_sqrt+0x7e>
 8003e4e:	2100      	movs	r1, #0
 8003e50:	e009      	b.n	8003e66 <__ieee754_sqrt+0x6a>
 8003e52:	0ae3      	lsrs	r3, r4, #11
 8003e54:	3a15      	subs	r2, #21
 8003e56:	0564      	lsls	r4, r4, #21
 8003e58:	2b00      	cmp	r3, #0
 8003e5a:	d0fa      	beq.n	8003e52 <__ieee754_sqrt+0x56>
 8003e5c:	e7f7      	b.n	8003e4e <__ieee754_sqrt+0x52>
 8003e5e:	460a      	mov	r2, r1
 8003e60:	e7fa      	b.n	8003e58 <__ieee754_sqrt+0x5c>
 8003e62:	005b      	lsls	r3, r3, #1
 8003e64:	3101      	adds	r1, #1
 8003e66:	02d8      	lsls	r0, r3, #11
 8003e68:	d5fb      	bpl.n	8003e62 <__ieee754_sqrt+0x66>
 8003e6a:	1e48      	subs	r0, r1, #1
 8003e6c:	1a12      	subs	r2, r2, r0
 8003e6e:	f1c1 0020 	rsb	r0, r1, #32
 8003e72:	fa24 f000 	lsr.w	r0, r4, r0
 8003e76:	4303      	orrs	r3, r0
 8003e78:	408c      	lsls	r4, r1
 8003e7a:	2600      	movs	r6, #0
 8003e7c:	f2a2 37ff 	subw	r7, r2, #1023	@ 0x3ff
 8003e80:	2116      	movs	r1, #22
 8003e82:	07d2      	lsls	r2, r2, #31
 8003e84:	f44f 1000 	mov.w	r0, #2097152	@ 0x200000
 8003e88:	4632      	mov	r2, r6
 8003e8a:	f3c3 0313 	ubfx	r3, r3, #0, #20
 8003e8e:	f443 1380 	orr.w	r3, r3, #1048576	@ 0x100000
 8003e92:	bf5c      	itt	pl
 8003e94:	005b      	lslpl	r3, r3, #1
 8003e96:	eb03 73d4 	addpl.w	r3, r3, r4, lsr #31
 8003e9a:	ea4f 0343 	mov.w	r3, r3, lsl #1
 8003e9e:	bf58      	it	pl
 8003ea0:	0064      	lslpl	r4, r4, #1
 8003ea2:	eb03 73d4 	add.w	r3, r3, r4, lsr #31
 8003ea6:	107f      	asrs	r7, r7, #1
 8003ea8:	0064      	lsls	r4, r4, #1
 8003eaa:	1815      	adds	r5, r2, r0
 8003eac:	429d      	cmp	r5, r3
 8003eae:	bfde      	ittt	le
 8003eb0:	182a      	addle	r2, r5, r0
 8003eb2:	1b5b      	suble	r3, r3, r5
 8003eb4:	1836      	addle	r6, r6, r0
 8003eb6:	0fe5      	lsrs	r5, r4, #31
 8003eb8:	3901      	subs	r1, #1
 8003eba:	eb05 0343 	add.w	r3, r5, r3, lsl #1
 8003ebe:	ea4f 0444 	mov.w	r4, r4, lsl #1
 8003ec2:	ea4f 0050 	mov.w	r0, r0, lsr #1
 8003ec6:	d1f0      	bne.n	8003eaa <__ieee754_sqrt+0xae>
 8003ec8:	460d      	mov	r5, r1
 8003eca:	f04f 0a20 	mov.w	sl, #32
 8003ece:	f04f 4000 	mov.w	r0, #2147483648	@ 0x80000000
 8003ed2:	429a      	cmp	r2, r3
 8003ed4:	eb01 0c00 	add.w	ip, r1, r0
 8003ed8:	db02      	blt.n	8003ee0 <__ieee754_sqrt+0xe4>
 8003eda:	d113      	bne.n	8003f04 <__ieee754_sqrt+0x108>
 8003edc:	45a4      	cmp	ip, r4
 8003ede:	d811      	bhi.n	8003f04 <__ieee754_sqrt+0x108>
 8003ee0:	f1bc 0f00 	cmp.w	ip, #0
 8003ee4:	eb0c 0100 	add.w	r1, ip, r0
 8003ee8:	da42      	bge.n	8003f70 <__ieee754_sqrt+0x174>
 8003eea:	2900      	cmp	r1, #0
 8003eec:	db40      	blt.n	8003f70 <__ieee754_sqrt+0x174>
 8003eee:	f102 0e01 	add.w	lr, r2, #1
 8003ef2:	1a9b      	subs	r3, r3, r2
 8003ef4:	4672      	mov	r2, lr
 8003ef6:	45a4      	cmp	ip, r4
 8003ef8:	bf88      	it	hi
 8003efa:	f103 33ff 	addhi.w	r3, r3, #4294967295
 8003efe:	eba4 040c 	sub.w	r4, r4, ip
 8003f02:	4405      	add	r5, r0
 8003f04:	ea4f 7cd4 	mov.w	ip, r4, lsr #31
 8003f08:	f1ba 0a01 	subs.w	sl, sl, #1
 8003f0c:	eb0c 0343 	add.w	r3, ip, r3, lsl #1
 8003f10:	ea4f 0444 	mov.w	r4, r4, lsl #1
 8003f14:	ea4f 0050 	mov.w	r0, r0, lsr #1
 8003f18:	d1db      	bne.n	8003ed2 <__ieee754_sqrt+0xd6>
 8003f1a:	431c      	orrs	r4, r3
 8003f1c:	d01a      	beq.n	8003f54 <__ieee754_sqrt+0x158>
 8003f1e:	4c20      	ldr	r4, [pc, #128]	@ (8003fa0 <__ieee754_sqrt+0x1a4>)
 8003f20:	f8df b080 	ldr.w	fp, [pc, #128]	@ 8003fa4 <__ieee754_sqrt+0x1a8>
 8003f24:	e9d4 0100 	ldrd	r0, r1, [r4]
 8003f28:	e9db 2300 	ldrd	r2, r3, [fp]
 8003f2c:	f7fc f9c8 	bl	80002c0 <__aeabi_dsub>
 8003f30:	e9d4 8900 	ldrd	r8, r9, [r4]
 8003f34:	4602      	mov	r2, r0
 8003f36:	460b      	mov	r3, r1
 8003f38:	4640      	mov	r0, r8
 8003f3a:	4649      	mov	r1, r9
 8003f3c:	f7fc fdf4 	bl	8000b28 <__aeabi_dcmple>
 8003f40:	b140      	cbz	r0, 8003f54 <__ieee754_sqrt+0x158>
 8003f42:	e9d4 0100 	ldrd	r0, r1, [r4]
 8003f46:	e9db 2300 	ldrd	r2, r3, [fp]
 8003f4a:	f1b5 3fff 	cmp.w	r5, #4294967295
 8003f4e:	d111      	bne.n	8003f74 <__ieee754_sqrt+0x178>
 8003f50:	4655      	mov	r5, sl
 8003f52:	3601      	adds	r6, #1
 8003f54:	1072      	asrs	r2, r6, #1
 8003f56:	086b      	lsrs	r3, r5, #1
 8003f58:	07f1      	lsls	r1, r6, #31
 8003f5a:	f102 527f 	add.w	r2, r2, #1069547520	@ 0x3fc00000
 8003f5e:	f502 1200 	add.w	r2, r2, #2097152	@ 0x200000
 8003f62:	bf48      	it	mi
 8003f64:	f043 4300 	orrmi.w	r3, r3, #2147483648	@ 0x80000000
 8003f68:	4618      	mov	r0, r3
 8003f6a:	eb02 5107 	add.w	r1, r2, r7, lsl #20
 8003f6e:	e757      	b.n	8003e20 <__ieee754_sqrt+0x24>
 8003f70:	4696      	mov	lr, r2
 8003f72:	e7be      	b.n	8003ef2 <__ieee754_sqrt+0xf6>
 8003f74:	f7fc f9a6 	bl	80002c4 <__adddf3>
 8003f78:	e9d4 8900 	ldrd	r8, r9, [r4]
 8003f7c:	4602      	mov	r2, r0
 8003f7e:	460b      	mov	r3, r1
 8003f80:	4640      	mov	r0, r8
 8003f82:	4649      	mov	r1, r9
 8003f84:	f7fc fdc6 	bl	8000b14 <__aeabi_dcmplt>
 8003f88:	b120      	cbz	r0, 8003f94 <__ieee754_sqrt+0x198>
 8003f8a:	1ca8      	adds	r0, r5, #2
 8003f8c:	bf08      	it	eq
 8003f8e:	3601      	addeq	r6, #1
 8003f90:	3502      	adds	r5, #2
 8003f92:	e7df      	b.n	8003f54 <__ieee754_sqrt+0x158>
 8003f94:	1c6b      	adds	r3, r5, #1
 8003f96:	f023 0501 	bic.w	r5, r3, #1
 8003f9a:	e7db      	b.n	8003f54 <__ieee754_sqrt+0x158>
 8003f9c:	7ff00000 	.word	0x7ff00000
 8003fa0:	20000068 	.word	0x20000068
 8003fa4:	20000060 	.word	0x20000060

08003fa8 <__kernel_cos>:
 8003fa8:	e92d 4ff7 	stmdb	sp!, {r0, r1, r2, r4, r5, r6, r7, r8, r9, sl, fp, lr}
 8003fac:	f021 4600 	bic.w	r6, r1, #2147483648	@ 0x80000000
 8003fb0:	f1b6 5f79 	cmp.w	r6, #1044381696	@ 0x3e400000
 8003fb4:	4680      	mov	r8, r0
 8003fb6:	4689      	mov	r9, r1
 8003fb8:	e9cd 2300 	strd	r2, r3, [sp]
 8003fbc:	d204      	bcs.n	8003fc8 <__kernel_cos+0x20>
 8003fbe:	f7fc fde7 	bl	8000b90 <__aeabi_d2iz>
 8003fc2:	2800      	cmp	r0, #0
 8003fc4:	f000 8086 	beq.w	80040d4 <__kernel_cos+0x12c>
 8003fc8:	4642      	mov	r2, r8
 8003fca:	464b      	mov	r3, r9
 8003fcc:	4640      	mov	r0, r8
 8003fce:	4649      	mov	r1, r9
 8003fd0:	f7fc fb2e 	bl	8000630 <__aeabi_dmul>
 8003fd4:	2200      	movs	r2, #0
 8003fd6:	4b4e      	ldr	r3, [pc, #312]	@ (8004110 <__kernel_cos+0x168>)
 8003fd8:	4604      	mov	r4, r0
 8003fda:	460d      	mov	r5, r1
 8003fdc:	f7fc fb28 	bl	8000630 <__aeabi_dmul>
 8003fe0:	a33f      	add	r3, pc, #252	@ (adr r3, 80040e0 <__kernel_cos+0x138>)
 8003fe2:	e9d3 2300 	ldrd	r2, r3, [r3]
 8003fe6:	4682      	mov	sl, r0
 8003fe8:	468b      	mov	fp, r1
 8003fea:	4620      	mov	r0, r4
 8003fec:	4629      	mov	r1, r5
 8003fee:	f7fc fb1f 	bl	8000630 <__aeabi_dmul>
 8003ff2:	a33d      	add	r3, pc, #244	@ (adr r3, 80040e8 <__kernel_cos+0x140>)
 8003ff4:	e9d3 2300 	ldrd	r2, r3, [r3]
 8003ff8:	f7fc f964 	bl	80002c4 <__adddf3>
 8003ffc:	4622      	mov	r2, r4
 8003ffe:	462b      	mov	r3, r5
 8004000:	f7fc fb16 	bl	8000630 <__aeabi_dmul>
 8004004:	a33a      	add	r3, pc, #232	@ (adr r3, 80040f0 <__kernel_cos+0x148>)
 8004006:	e9d3 2300 	ldrd	r2, r3, [r3]
 800400a:	f7fc f959 	bl	80002c0 <__aeabi_dsub>
 800400e:	4622      	mov	r2, r4
 8004010:	462b      	mov	r3, r5
 8004012:	f7fc fb0d 	bl	8000630 <__aeabi_dmul>
 8004016:	a338      	add	r3, pc, #224	@ (adr r3, 80040f8 <__kernel_cos+0x150>)
 8004018:	e9d3 2300 	ldrd	r2, r3, [r3]
 800401c:	f7fc f952 	bl	80002c4 <__adddf3>
 8004020:	4622      	mov	r2, r4
 8004022:	462b      	mov	r3, r5
 8004024:	f7fc fb04 	bl	8000630 <__aeabi_dmul>
 8004028:	a335      	add	r3, pc, #212	@ (adr r3, 8004100 <__kernel_cos+0x158>)
 800402a:	e9d3 2300 	ldrd	r2, r3, [r3]
 800402e:	f7fc f947 	bl	80002c0 <__aeabi_dsub>
 8004032:	4622      	mov	r2, r4
 8004034:	462b      	mov	r3, r5
 8004036:	f7fc fafb 	bl	8000630 <__aeabi_dmul>
 800403a:	a333      	add	r3, pc, #204	@ (adr r3, 8004108 <__kernel_cos+0x160>)
 800403c:	e9d3 2300 	ldrd	r2, r3, [r3]
 8004040:	f7fc f940 	bl	80002c4 <__adddf3>
 8004044:	4622      	mov	r2, r4
 8004046:	462b      	mov	r3, r5
 8004048:	f7fc faf2 	bl	8000630 <__aeabi_dmul>
 800404c:	4622      	mov	r2, r4
 800404e:	462b      	mov	r3, r5
 8004050:	f7fc faee 	bl	8000630 <__aeabi_dmul>
 8004054:	e9dd 2300 	ldrd	r2, r3, [sp]
 8004058:	4604      	mov	r4, r0
 800405a:	460d      	mov	r5, r1
 800405c:	4640      	mov	r0, r8
 800405e:	4649      	mov	r1, r9
 8004060:	f7fc fae6 	bl	8000630 <__aeabi_dmul>
 8004064:	460b      	mov	r3, r1
 8004066:	4602      	mov	r2, r0
 8004068:	4629      	mov	r1, r5
 800406a:	4620      	mov	r0, r4
 800406c:	f7fc f928 	bl	80002c0 <__aeabi_dsub>
 8004070:	4b28      	ldr	r3, [pc, #160]	@ (8004114 <__kernel_cos+0x16c>)
 8004072:	4680      	mov	r8, r0
 8004074:	429e      	cmp	r6, r3
 8004076:	4689      	mov	r9, r1
 8004078:	d80e      	bhi.n	8004098 <__kernel_cos+0xf0>
 800407a:	4602      	mov	r2, r0
 800407c:	460b      	mov	r3, r1
 800407e:	4650      	mov	r0, sl
 8004080:	4659      	mov	r1, fp
 8004082:	f7fc f91d 	bl	80002c0 <__aeabi_dsub>
 8004086:	4602      	mov	r2, r0
 8004088:	2000      	movs	r0, #0
 800408a:	460b      	mov	r3, r1
 800408c:	4922      	ldr	r1, [pc, #136]	@ (8004118 <__kernel_cos+0x170>)
 800408e:	f7fc f917 	bl	80002c0 <__aeabi_dsub>
 8004092:	b003      	add	sp, #12
 8004094:	e8bd 8ff0 	ldmia.w	sp!, {r4, r5, r6, r7, r8, r9, sl, fp, pc}
 8004098:	2400      	movs	r4, #0
 800409a:	4b20      	ldr	r3, [pc, #128]	@ (800411c <__kernel_cos+0x174>)
 800409c:	4622      	mov	r2, r4
 800409e:	429e      	cmp	r6, r3
 80040a0:	bf8c      	ite	hi
 80040a2:	4d1f      	ldrhi	r5, [pc, #124]	@ (8004120 <__kernel_cos+0x178>)
 80040a4:	f5a6 1500 	subls.w	r5, r6, #2097152	@ 0x200000
 80040a8:	462b      	mov	r3, r5
 80040aa:	2000      	movs	r0, #0
 80040ac:	491a      	ldr	r1, [pc, #104]	@ (8004118 <__kernel_cos+0x170>)
 80040ae:	f7fc f907 	bl	80002c0 <__aeabi_dsub>
 80040b2:	4622      	mov	r2, r4
 80040b4:	4606      	mov	r6, r0
 80040b6:	460f      	mov	r7, r1
 80040b8:	462b      	mov	r3, r5
 80040ba:	4650      	mov	r0, sl
 80040bc:	4659      	mov	r1, fp
 80040be:	f7fc f8ff 	bl	80002c0 <__aeabi_dsub>
 80040c2:	4642      	mov	r2, r8
 80040c4:	464b      	mov	r3, r9
 80040c6:	f7fc f8fb 	bl	80002c0 <__aeabi_dsub>
 80040ca:	4602      	mov	r2, r0
 80040cc:	460b      	mov	r3, r1
 80040ce:	4630      	mov	r0, r6
 80040d0:	4639      	mov	r1, r7
 80040d2:	e7dc      	b.n	800408e <__kernel_cos+0xe6>
 80040d4:	2000      	movs	r0, #0
 80040d6:	4910      	ldr	r1, [pc, #64]	@ (8004118 <__kernel_cos+0x170>)
 80040d8:	e7db      	b.n	8004092 <__kernel_cos+0xea>
 80040da:	bf00      	nop
 80040dc:	f3af 8000 	nop.w
 80040e0:	be8838d4 	.word	0xbe8838d4
 80040e4:	bda8fae9 	.word	0xbda8fae9
 80040e8:	bdb4b1c4 	.word	0xbdb4b1c4
 80040ec:	3e21ee9e 	.word	0x3e21ee9e
 80040f0:	809c52ad 	.word	0x809c52ad
 80040f4:	3e927e4f 	.word	0x3e927e4f
 80040f8:	19cb1590 	.word	0x19cb1590
 80040fc:	3efa01a0 	.word	0x3efa01a0
 8004100:	16c15177 	.word	0x16c15177
 8004104:	3f56c16c 	.word	0x3f56c16c
 8004108:	5555554c 	.word	0x5555554c
 800410c:	3fa55555 	.word	0x3fa55555
 8004110:	3fe00000 	.word	0x3fe00000
 8004114:	3fd33332 	.word	0x3fd33332
 8004118:	3ff00000 	.word	0x3ff00000
 800411c:	3fe90000 	.word	0x3fe90000
 8004120:	3fd20000 	.word	0x3fd20000
 8004124:	00000000 	.word	0x00000000

08004128 <__kernel_sin>:
 8004128:	e92d 4ff0 	stmdb	sp!, {r4, r5, r6, r7, r8, r9, sl, fp, lr}
 800412c:	461f      	mov	r7, r3
 800412e:	f021 4300 	bic.w	r3, r1, #2147483648	@ 0x80000000
 8004132:	f1b3 5f79 	cmp.w	r3, #1044381696	@ 0x3e400000
 8004136:	4604      	mov	r4, r0
 8004138:	460d      	mov	r5, r1
 800413a:	4616      	mov	r6, r2
 800413c:	b085      	sub	sp, #20
 800413e:	d203      	bcs.n	8004148 <__kernel_sin+0x20>
 8004140:	f7fc fd26 	bl	8000b90 <__aeabi_d2iz>
 8004144:	2800      	cmp	r0, #0
 8004146:	d051      	beq.n	80041ec <__kernel_sin+0xc4>
 8004148:	4622      	mov	r2, r4
 800414a:	462b      	mov	r3, r5
 800414c:	4620      	mov	r0, r4
 800414e:	4629      	mov	r1, r5
 8004150:	f7fc fa6e 	bl	8000630 <__aeabi_dmul>
 8004154:	4682      	mov	sl, r0
 8004156:	468b      	mov	fp, r1
 8004158:	4602      	mov	r2, r0
 800415a:	460b      	mov	r3, r1
 800415c:	4620      	mov	r0, r4
 800415e:	4629      	mov	r1, r5
 8004160:	f7fc fa66 	bl	8000630 <__aeabi_dmul>
 8004164:	a33e      	add	r3, pc, #248	@ (adr r3, 8004260 <__kernel_sin+0x138>)
 8004166:	e9d3 2300 	ldrd	r2, r3, [r3]
 800416a:	4680      	mov	r8, r0
 800416c:	4689      	mov	r9, r1
 800416e:	4650      	mov	r0, sl
 8004170:	4659      	mov	r1, fp
 8004172:	f7fc fa5d 	bl	8000630 <__aeabi_dmul>
 8004176:	a33c      	add	r3, pc, #240	@ (adr r3, 8004268 <__kernel_sin+0x140>)
 8004178:	e9d3 2300 	ldrd	r2, r3, [r3]
 800417c:	f7fc f8a0 	bl	80002c0 <__aeabi_dsub>
 8004180:	4652      	mov	r2, sl
 8004182:	465b      	mov	r3, fp
 8004184:	f7fc fa54 	bl	8000630 <__aeabi_dmul>
 8004188:	a339      	add	r3, pc, #228	@ (adr r3, 8004270 <__kernel_sin+0x148>)
 800418a:	e9d3 2300 	ldrd	r2, r3, [r3]
 800418e:	f7fc f899 	bl	80002c4 <__adddf3>
 8004192:	4652      	mov	r2, sl
 8004194:	465b      	mov	r3, fp
 8004196:	f7fc fa4b 	bl	8000630 <__aeabi_dmul>
 800419a:	a337      	add	r3, pc, #220	@ (adr r3, 8004278 <__kernel_sin+0x150>)
 800419c:	e9d3 2300 	ldrd	r2, r3, [r3]
 80041a0:	f7fc f88e 	bl	80002c0 <__aeabi_dsub>
 80041a4:	4652      	mov	r2, sl
 80041a6:	465b      	mov	r3, fp
 80041a8:	f7fc fa42 	bl	8000630 <__aeabi_dmul>
 80041ac:	a334      	add	r3, pc, #208	@ (adr r3, 8004280 <__kernel_sin+0x158>)
 80041ae:	e9d3 2300 	ldrd	r2, r3, [r3]
 80041b2:	f7fc f887 	bl	80002c4 <__adddf3>
 80041b6:	9b0e      	ldr	r3, [sp, #56]	@ 0x38
 80041b8:	e9cd 0100 	strd	r0, r1, [sp]
 80041bc:	b9db      	cbnz	r3, 80041f6 <__kernel_sin+0xce>
 80041be:	4602      	mov	r2, r0
 80041c0:	460b      	mov	r3, r1
 80041c2:	4650      	mov	r0, sl
 80041c4:	4659      	mov	r1, fp
 80041c6:	f7fc fa33 	bl	8000630 <__aeabi_dmul>
 80041ca:	a32f      	add	r3, pc, #188	@ (adr r3, 8004288 <__kernel_sin+0x160>)
 80041cc:	e9d3 2300 	ldrd	r2, r3, [r3]
 80041d0:	f7fc f876 	bl	80002c0 <__aeabi_dsub>
 80041d4:	4642      	mov	r2, r8
 80041d6:	464b      	mov	r3, r9
 80041d8:	f7fc fa2a 	bl	8000630 <__aeabi_dmul>
 80041dc:	4602      	mov	r2, r0
 80041de:	460b      	mov	r3, r1
 80041e0:	4620      	mov	r0, r4
 80041e2:	4629      	mov	r1, r5
 80041e4:	f7fc f86e 	bl	80002c4 <__adddf3>
 80041e8:	4604      	mov	r4, r0
 80041ea:	460d      	mov	r5, r1
 80041ec:	4620      	mov	r0, r4
 80041ee:	4629      	mov	r1, r5
 80041f0:	b005      	add	sp, #20
 80041f2:	e8bd 8ff0 	ldmia.w	sp!, {r4, r5, r6, r7, r8, r9, sl, fp, pc}
 80041f6:	2200      	movs	r2, #0
 80041f8:	4630      	mov	r0, r6
 80041fa:	4639      	mov	r1, r7
 80041fc:	4b24      	ldr	r3, [pc, #144]	@ (8004290 <__kernel_sin+0x168>)
 80041fe:	f7fc fa17 	bl	8000630 <__aeabi_dmul>
 8004202:	e9dd 2300 	ldrd	r2, r3, [sp]
 8004206:	e9cd 0102 	strd	r0, r1, [sp, #8]
 800420a:	4640      	mov	r0, r8
 800420c:	4649      	mov	r1, r9
 800420e:	f7fc fa0f 	bl	8000630 <__aeabi_dmul>
 8004212:	4602      	mov	r2, r0
 8004214:	460b      	mov	r3, r1
 8004216:	e9dd 0102 	ldrd	r0, r1, [sp, #8]
 800421a:	f7fc f851 	bl	80002c0 <__aeabi_dsub>
 800421e:	4652      	mov	r2, sl
 8004220:	465b      	mov	r3, fp
 8004222:	f7fc fa05 	bl	8000630 <__aeabi_dmul>
 8004226:	4632      	mov	r2, r6
 8004228:	463b      	mov	r3, r7
 800422a:	f7fc f849 	bl	80002c0 <__aeabi_dsub>
 800422e:	a316      	add	r3, pc, #88	@ (adr r3, 8004288 <__kernel_sin+0x160>)
 8004230:	e9d3 2300 	ldrd	r2, r3, [r3]
 8004234:	4606      	mov	r6, r0
 8004236:	460f      	mov	r7, r1
 8004238:	4640      	mov	r0, r8
 800423a:	4649      	mov	r1, r9
 800423c:	f7fc f9f8 	bl	8000630 <__aeabi_dmul>
 8004240:	4602      	mov	r2, r0
 8004242:	460b      	mov	r3, r1
 8004244:	4630      	mov	r0, r6
 8004246:	4639      	mov	r1, r7
 8004248:	f7fc f83c 	bl	80002c4 <__adddf3>
 800424c:	4602      	mov	r2, r0
 800424e:	460b      	mov	r3, r1
 8004250:	4620      	mov	r0, r4
 8004252:	4629      	mov	r1, r5
 8004254:	f7fc f834 	bl	80002c0 <__aeabi_dsub>
 8004258:	e7c6      	b.n	80041e8 <__kernel_sin+0xc0>
 800425a:	bf00      	nop
 800425c:	f3af 8000 	nop.w
 8004260:	5acfd57c 	.word	0x5acfd57c
 8004264:	3de5d93a 	.word	0x3de5d93a
 8004268:	8a2b9ceb 	.word	0x8a2b9ceb
 800426c:	3e5ae5e6 	.word	0x3e5ae5e6
 8004270:	57b1fe7d 	.word	0x57b1fe7d
 8004274:	3ec71de3 	.word	0x3ec71de3
 8004278:	19c161d5 	.word	0x19c161d5
 800427c:	3f2a01a0 	.word	0x3f2a01a0
 8004280:	1110f8a6 	.word	0x1110f8a6
 8004284:	3f811111 	.word	0x3f811111
 8004288:	55555549 	.word	0x55555549
 800428c:	3fc55555 	.word	0x3fc55555
 8004290:	3fe00000 	.word	0x3fe00000
 8004294:	00000000 	.word	0x00000000

08004298 <__ieee754_rem_pio2>:
 8004298:	e92d 4ff0 	stmdb	sp!, {r4, r5, r6, r7, r8, r9, sl, fp, lr}
 800429c:	4bc4      	ldr	r3, [pc, #784]	@ (80045b0 <__ieee754_rem_pio2+0x318>)
 800429e:	f021 4800 	bic.w	r8, r1, #2147483648	@ 0x80000000
 80042a2:	b08d      	sub	sp, #52	@ 0x34
 80042a4:	4598      	cmp	r8, r3
 80042a6:	4606      	mov	r6, r0
 80042a8:	460f      	mov	r7, r1
 80042aa:	4614      	mov	r4, r2
 80042ac:	9104      	str	r1, [sp, #16]
 80042ae:	d807      	bhi.n	80042c0 <__ieee754_rem_pio2+0x28>
 80042b0:	e9c2 6700 	strd	r6, r7, [r2]
 80042b4:	2300      	movs	r3, #0
 80042b6:	2200      	movs	r2, #0
 80042b8:	e9c4 2302 	strd	r2, r3, [r4, #8]
 80042bc:	2500      	movs	r5, #0
 80042be:	e026      	b.n	800430e <__ieee754_rem_pio2+0x76>
 80042c0:	4bbc      	ldr	r3, [pc, #752]	@ (80045b4 <__ieee754_rem_pio2+0x31c>)
 80042c2:	4598      	cmp	r8, r3
 80042c4:	d876      	bhi.n	80043b4 <__ieee754_rem_pio2+0x11c>
 80042c6:	9b04      	ldr	r3, [sp, #16]
 80042c8:	4dbb      	ldr	r5, [pc, #748]	@ (80045b8 <__ieee754_rem_pio2+0x320>)
 80042ca:	2b00      	cmp	r3, #0
 80042cc:	a3aa      	add	r3, pc, #680	@ (adr r3, 8004578 <__ieee754_rem_pio2+0x2e0>)
 80042ce:	e9d3 2300 	ldrd	r2, r3, [r3]
 80042d2:	dd38      	ble.n	8004346 <__ieee754_rem_pio2+0xae>
 80042d4:	f7fb fff4 	bl	80002c0 <__aeabi_dsub>
 80042d8:	45a8      	cmp	r8, r5
 80042da:	4606      	mov	r6, r0
 80042dc:	460f      	mov	r7, r1
 80042de:	d01a      	beq.n	8004316 <__ieee754_rem_pio2+0x7e>
 80042e0:	a3a7      	add	r3, pc, #668	@ (adr r3, 8004580 <__ieee754_rem_pio2+0x2e8>)
 80042e2:	e9d3 2300 	ldrd	r2, r3, [r3]
 80042e6:	f7fb ffeb 	bl	80002c0 <__aeabi_dsub>
 80042ea:	4602      	mov	r2, r0
 80042ec:	460b      	mov	r3, r1
 80042ee:	4680      	mov	r8, r0
 80042f0:	4689      	mov	r9, r1
 80042f2:	4630      	mov	r0, r6
 80042f4:	4639      	mov	r1, r7
 80042f6:	f7fb ffe3 	bl	80002c0 <__aeabi_dsub>
 80042fa:	a3a1      	add	r3, pc, #644	@ (adr r3, 8004580 <__ieee754_rem_pio2+0x2e8>)
 80042fc:	e9d3 2300 	ldrd	r2, r3, [r3]
 8004300:	f7fb ffde 	bl	80002c0 <__aeabi_dsub>
 8004304:	2501      	movs	r5, #1
 8004306:	e9c4 8900 	strd	r8, r9, [r4]
 800430a:	e9c4 0102 	strd	r0, r1, [r4, #8]
 800430e:	4628      	mov	r0, r5
 8004310:	b00d      	add	sp, #52	@ 0x34
 8004312:	e8bd 8ff0 	ldmia.w	sp!, {r4, r5, r6, r7, r8, r9, sl, fp, pc}
 8004316:	a39c      	add	r3, pc, #624	@ (adr r3, 8004588 <__ieee754_rem_pio2+0x2f0>)
 8004318:	e9d3 2300 	ldrd	r2, r3, [r3]
 800431c:	f7fb ffd0 	bl	80002c0 <__aeabi_dsub>
 8004320:	a39b      	add	r3, pc, #620	@ (adr r3, 8004590 <__ieee754_rem_pio2+0x2f8>)
 8004322:	e9d3 2300 	ldrd	r2, r3, [r3]
 8004326:	4606      	mov	r6, r0
 8004328:	460f      	mov	r7, r1
 800432a:	f7fb ffc9 	bl	80002c0 <__aeabi_dsub>
 800432e:	4602      	mov	r2, r0
 8004330:	460b      	mov	r3, r1
 8004332:	4680      	mov	r8, r0
 8004334:	4689      	mov	r9, r1
 8004336:	4630      	mov	r0, r6
 8004338:	4639      	mov	r1, r7
 800433a:	f7fb ffc1 	bl	80002c0 <__aeabi_dsub>
 800433e:	a394      	add	r3, pc, #592	@ (adr r3, 8004590 <__ieee754_rem_pio2+0x2f8>)
 8004340:	e9d3 2300 	ldrd	r2, r3, [r3]
 8004344:	e7dc      	b.n	8004300 <__ieee754_rem_pio2+0x68>
 8004346:	f7fb ffbd 	bl	80002c4 <__adddf3>
 800434a:	45a8      	cmp	r8, r5
 800434c:	4606      	mov	r6, r0
 800434e:	460f      	mov	r7, r1
 8004350:	d018      	beq.n	8004384 <__ieee754_rem_pio2+0xec>
 8004352:	a38b      	add	r3, pc, #556	@ (adr r3, 8004580 <__ieee754_rem_pio2+0x2e8>)
 8004354:	e9d3 2300 	ldrd	r2, r3, [r3]
 8004358:	f7fb ffb4 	bl	80002c4 <__adddf3>
 800435c:	4602      	mov	r2, r0
 800435e:	460b      	mov	r3, r1
 8004360:	4680      	mov	r8, r0
 8004362:	4689      	mov	r9, r1
 8004364:	4630      	mov	r0, r6
 8004366:	4639      	mov	r1, r7
 8004368:	f7fb ffaa 	bl	80002c0 <__aeabi_dsub>
 800436c:	a384      	add	r3, pc, #528	@ (adr r3, 8004580 <__ieee754_rem_pio2+0x2e8>)
 800436e:	e9d3 2300 	ldrd	r2, r3, [r3]
 8004372:	f7fb ffa7 	bl	80002c4 <__adddf3>
 8004376:	f04f 35ff 	mov.w	r5, #4294967295
 800437a:	e9c4 8900 	strd	r8, r9, [r4]
 800437e:	e9c4 0102 	strd	r0, r1, [r4, #8]
 8004382:	e7c4      	b.n	800430e <__ieee754_rem_pio2+0x76>
 8004384:	a380      	add	r3, pc, #512	@ (adr r3, 8004588 <__ieee754_rem_pio2+0x2f0>)
 8004386:	e9d3 2300 	ldrd	r2, r3, [r3]
 800438a:	f7fb ff9b 	bl	80002c4 <__adddf3>
 800438e:	a380      	add	r3, pc, #512	@ (adr r3, 8004590 <__ieee754_rem_pio2+0x2f8>)
 8004390:	e9d3 2300 	ldrd	r2, r3, [r3]
 8004394:	4606      	mov	r6, r0
 8004396:	460f      	mov	r7, r1
 8004398:	f7fb ff94 	bl	80002c4 <__adddf3>
 800439c:	4602      	mov	r2, r0
 800439e:	460b      	mov	r3, r1
 80043a0:	4680      	mov	r8, r0
 80043a2:	4689      	mov	r9, r1
 80043a4:	4630      	mov	r0, r6
 80043a6:	4639      	mov	r1, r7
 80043a8:	f7fb ff8a 	bl	80002c0 <__aeabi_dsub>
 80043ac:	a378      	add	r3, pc, #480	@ (adr r3, 8004590 <__ieee754_rem_pio2+0x2f8>)
 80043ae:	e9d3 2300 	ldrd	r2, r3, [r3]
 80043b2:	e7de      	b.n	8004372 <__ieee754_rem_pio2+0xda>
 80043b4:	4b81      	ldr	r3, [pc, #516]	@ (80045bc <__ieee754_rem_pio2+0x324>)
 80043b6:	4598      	cmp	r8, r3
 80043b8:	f200 80cf 	bhi.w	800455a <__ieee754_rem_pio2+0x2c2>
 80043bc:	f000 f962 	bl	8004684 <fabs>
 80043c0:	a375      	add	r3, pc, #468	@ (adr r3, 8004598 <__ieee754_rem_pio2+0x300>)
 80043c2:	e9d3 2300 	ldrd	r2, r3, [r3]
 80043c6:	4606      	mov	r6, r0
 80043c8:	460f      	mov	r7, r1
 80043ca:	f7fc f931 	bl	8000630 <__aeabi_dmul>
 80043ce:	2200      	movs	r2, #0
 80043d0:	4b7b      	ldr	r3, [pc, #492]	@ (80045c0 <__ieee754_rem_pio2+0x328>)
 80043d2:	f7fb ff77 	bl	80002c4 <__adddf3>
 80043d6:	f7fc fbdb 	bl	8000b90 <__aeabi_d2iz>
 80043da:	4605      	mov	r5, r0
 80043dc:	f7fc f8be 	bl	800055c <__aeabi_i2d>
 80043e0:	4602      	mov	r2, r0
 80043e2:	460b      	mov	r3, r1
 80043e4:	e9cd 2302 	strd	r2, r3, [sp, #8]
 80043e8:	a363      	add	r3, pc, #396	@ (adr r3, 8004578 <__ieee754_rem_pio2+0x2e0>)
 80043ea:	e9d3 2300 	ldrd	r2, r3, [r3]
 80043ee:	f7fc f91f 	bl	8000630 <__aeabi_dmul>
 80043f2:	4602      	mov	r2, r0
 80043f4:	460b      	mov	r3, r1
 80043f6:	4630      	mov	r0, r6
 80043f8:	4639      	mov	r1, r7
 80043fa:	f7fb ff61 	bl	80002c0 <__aeabi_dsub>
 80043fe:	a360      	add	r3, pc, #384	@ (adr r3, 8004580 <__ieee754_rem_pio2+0x2e8>)
 8004400:	e9d3 2300 	ldrd	r2, r3, [r3]
 8004404:	4682      	mov	sl, r0
 8004406:	468b      	mov	fp, r1
 8004408:	e9dd 0102 	ldrd	r0, r1, [sp, #8]
 800440c:	f7fc f910 	bl	8000630 <__aeabi_dmul>
 8004410:	2d1f      	cmp	r5, #31
 8004412:	4606      	mov	r6, r0
 8004414:	460f      	mov	r7, r1
 8004416:	dc0c      	bgt.n	8004432 <__ieee754_rem_pio2+0x19a>
 8004418:	4b6a      	ldr	r3, [pc, #424]	@ (80045c4 <__ieee754_rem_pio2+0x32c>)
 800441a:	1e6a      	subs	r2, r5, #1
 800441c:	f853 3022 	ldr.w	r3, [r3, r2, lsl #2]
 8004420:	4543      	cmp	r3, r8
 8004422:	d006      	beq.n	8004432 <__ieee754_rem_pio2+0x19a>
 8004424:	4632      	mov	r2, r6
 8004426:	463b      	mov	r3, r7
 8004428:	4650      	mov	r0, sl
 800442a:	4659      	mov	r1, fp
 800442c:	f7fb ff48 	bl	80002c0 <__aeabi_dsub>
 8004430:	e00e      	b.n	8004450 <__ieee754_rem_pio2+0x1b8>
 8004432:	463b      	mov	r3, r7
 8004434:	4632      	mov	r2, r6
 8004436:	4650      	mov	r0, sl
 8004438:	4659      	mov	r1, fp
 800443a:	f7fb ff41 	bl	80002c0 <__aeabi_dsub>
 800443e:	ea4f 5328 	mov.w	r3, r8, asr #20
 8004442:	9305      	str	r3, [sp, #20]
 8004444:	f3c1 530a 	ubfx	r3, r1, #20, #11
 8004448:	ebc3 5318 	rsb	r3, r3, r8, lsr #20
 800444c:	2b10      	cmp	r3, #16
 800444e:	dc02      	bgt.n	8004456 <__ieee754_rem_pio2+0x1be>
 8004450:	e9c4 0100 	strd	r0, r1, [r4]
 8004454:	e039      	b.n	80044ca <__ieee754_rem_pio2+0x232>
 8004456:	a34c      	add	r3, pc, #304	@ (adr r3, 8004588 <__ieee754_rem_pio2+0x2f0>)
 8004458:	e9d3 2300 	ldrd	r2, r3, [r3]
 800445c:	e9dd 0102 	ldrd	r0, r1, [sp, #8]
 8004460:	f7fc f8e6 	bl	8000630 <__aeabi_dmul>
 8004464:	4606      	mov	r6, r0
 8004466:	460f      	mov	r7, r1
 8004468:	4602      	mov	r2, r0
 800446a:	460b      	mov	r3, r1
 800446c:	4650      	mov	r0, sl
 800446e:	4659      	mov	r1, fp
 8004470:	f7fb ff26 	bl	80002c0 <__aeabi_dsub>
 8004474:	4602      	mov	r2, r0
 8004476:	460b      	mov	r3, r1
 8004478:	4680      	mov	r8, r0
 800447a:	4689      	mov	r9, r1
 800447c:	4650      	mov	r0, sl
 800447e:	4659      	mov	r1, fp
 8004480:	f7fb ff1e 	bl	80002c0 <__aeabi_dsub>
 8004484:	4632      	mov	r2, r6
 8004486:	463b      	mov	r3, r7
 8004488:	f7fb ff1a 	bl	80002c0 <__aeabi_dsub>
 800448c:	a340      	add	r3, pc, #256	@ (adr r3, 8004590 <__ieee754_rem_pio2+0x2f8>)
 800448e:	e9d3 2300 	ldrd	r2, r3, [r3]
 8004492:	4606      	mov	r6, r0
 8004494:	460f      	mov	r7, r1
 8004496:	e9dd 0102 	ldrd	r0, r1, [sp, #8]
 800449a:	f7fc f8c9 	bl	8000630 <__aeabi_dmul>
 800449e:	4632      	mov	r2, r6
 80044a0:	463b      	mov	r3, r7
 80044a2:	f7fb ff0d 	bl	80002c0 <__aeabi_dsub>
 80044a6:	4602      	mov	r2, r0
 80044a8:	460b      	mov	r3, r1
 80044aa:	4606      	mov	r6, r0
 80044ac:	460f      	mov	r7, r1
 80044ae:	4640      	mov	r0, r8
 80044b0:	4649      	mov	r1, r9
 80044b2:	f7fb ff05 	bl	80002c0 <__aeabi_dsub>
 80044b6:	9a05      	ldr	r2, [sp, #20]
 80044b8:	f3c1 530a 	ubfx	r3, r1, #20, #11
 80044bc:	1ad3      	subs	r3, r2, r3
 80044be:	2b31      	cmp	r3, #49	@ 0x31
 80044c0:	dc20      	bgt.n	8004504 <__ieee754_rem_pio2+0x26c>
 80044c2:	46c2      	mov	sl, r8
 80044c4:	46cb      	mov	fp, r9
 80044c6:	e9c4 0100 	strd	r0, r1, [r4]
 80044ca:	e9d4 8900 	ldrd	r8, r9, [r4]
 80044ce:	4650      	mov	r0, sl
 80044d0:	4642      	mov	r2, r8
 80044d2:	464b      	mov	r3, r9
 80044d4:	4659      	mov	r1, fp
 80044d6:	f7fb fef3 	bl	80002c0 <__aeabi_dsub>
 80044da:	463b      	mov	r3, r7
 80044dc:	4632      	mov	r2, r6
 80044de:	f7fb feef 	bl	80002c0 <__aeabi_dsub>
 80044e2:	9b04      	ldr	r3, [sp, #16]
 80044e4:	e9c4 0102 	strd	r0, r1, [r4, #8]
 80044e8:	2b00      	cmp	r3, #0
 80044ea:	f6bf af10 	bge.w	800430e <__ieee754_rem_pio2+0x76>
 80044ee:	f109 4300 	add.w	r3, r9, #2147483648	@ 0x80000000
 80044f2:	6063      	str	r3, [r4, #4]
 80044f4:	f101 4300 	add.w	r3, r1, #2147483648	@ 0x80000000
 80044f8:	f8c4 8000 	str.w	r8, [r4]
 80044fc:	60a0      	str	r0, [r4, #8]
 80044fe:	60e3      	str	r3, [r4, #12]
 8004500:	426d      	negs	r5, r5
 8004502:	e704      	b.n	800430e <__ieee754_rem_pio2+0x76>
 8004504:	a326      	add	r3, pc, #152	@ (adr r3, 80045a0 <__ieee754_rem_pio2+0x308>)
 8004506:	e9d3 2300 	ldrd	r2, r3, [r3]
 800450a:	e9dd 0102 	ldrd	r0, r1, [sp, #8]
 800450e:	f7fc f88f 	bl	8000630 <__aeabi_dmul>
 8004512:	4606      	mov	r6, r0
 8004514:	460f      	mov	r7, r1
 8004516:	4602      	mov	r2, r0
 8004518:	460b      	mov	r3, r1
 800451a:	4640      	mov	r0, r8
 800451c:	4649      	mov	r1, r9
 800451e:	f7fb fecf 	bl	80002c0 <__aeabi_dsub>
 8004522:	4602      	mov	r2, r0
 8004524:	460b      	mov	r3, r1
 8004526:	4682      	mov	sl, r0
 8004528:	468b      	mov	fp, r1
 800452a:	4640      	mov	r0, r8
 800452c:	4649      	mov	r1, r9
 800452e:	f7fb fec7 	bl	80002c0 <__aeabi_dsub>
 8004532:	4632      	mov	r2, r6
 8004534:	463b      	mov	r3, r7
 8004536:	f7fb fec3 	bl	80002c0 <__aeabi_dsub>
 800453a:	a31b      	add	r3, pc, #108	@ (adr r3, 80045a8 <__ieee754_rem_pio2+0x310>)
 800453c:	e9d3 2300 	ldrd	r2, r3, [r3]
 8004540:	4606      	mov	r6, r0
 8004542:	460f      	mov	r7, r1
 8004544:	e9dd 0102 	ldrd	r0, r1, [sp, #8]
 8004548:	f7fc f872 	bl	8000630 <__aeabi_dmul>
 800454c:	4632      	mov	r2, r6
 800454e:	463b      	mov	r3, r7
 8004550:	f7fb feb6 	bl	80002c0 <__aeabi_dsub>
 8004554:	4606      	mov	r6, r0
 8004556:	460f      	mov	r7, r1
 8004558:	e764      	b.n	8004424 <__ieee754_rem_pio2+0x18c>
 800455a:	4b1b      	ldr	r3, [pc, #108]	@ (80045c8 <__ieee754_rem_pio2+0x330>)
 800455c:	4598      	cmp	r8, r3
 800455e:	d935      	bls.n	80045cc <__ieee754_rem_pio2+0x334>
 8004560:	4602      	mov	r2, r0
 8004562:	460b      	mov	r3, r1
 8004564:	f7fb feac 	bl	80002c0 <__aeabi_dsub>
 8004568:	e9c4 0102 	strd	r0, r1, [r4, #8]
 800456c:	e9c4 0100 	strd	r0, r1, [r4]
 8004570:	e6a4      	b.n	80042bc <__ieee754_rem_pio2+0x24>
 8004572:	bf00      	nop
 8004574:	f3af 8000 	nop.w
 8004578:	54400000 	.word	0x54400000
 800457c:	3ff921fb 	.word	0x3ff921fb
 8004580:	1a626331 	.word	0x1a626331
 8004584:	3dd0b461 	.word	0x3dd0b461
 8004588:	1a600000 	.word	0x1a600000
 800458c:	3dd0b461 	.word	0x3dd0b461
 8004590:	2e037073 	.word	0x2e037073
 8004594:	3ba3198a 	.word	0x3ba3198a
 8004598:	6dc9c883 	.word	0x6dc9c883
 800459c:	3fe45f30 	.word	0x3fe45f30
 80045a0:	2e000000 	.word	0x2e000000
 80045a4:	3ba3198a 	.word	0x3ba3198a
 80045a8:	252049c1 	.word	0x252049c1
 80045ac:	397b839a 	.word	0x397b839a
 80045b0:	3fe921fb 	.word	0x3fe921fb
 80045b4:	4002d97b 	.word	0x4002d97b
 80045b8:	3ff921fb 	.word	0x3ff921fb
 80045bc:	413921fb 	.word	0x413921fb
 80045c0:	3fe00000 	.word	0x3fe00000
 80045c4:	08004f04 	.word	0x08004f04
 80045c8:	7fefffff 	.word	0x7fefffff
 80045cc:	ea4f 5528 	mov.w	r5, r8, asr #20
 80045d0:	f2a5 4516 	subw	r5, r5, #1046	@ 0x416
 80045d4:	eba8 5105 	sub.w	r1, r8, r5, lsl #20
 80045d8:	460f      	mov	r7, r1
 80045da:	f7fc fad9 	bl	8000b90 <__aeabi_d2iz>
 80045de:	f7fb ffbd 	bl	800055c <__aeabi_i2d>
 80045e2:	4602      	mov	r2, r0
 80045e4:	460b      	mov	r3, r1
 80045e6:	4630      	mov	r0, r6
 80045e8:	4639      	mov	r1, r7
 80045ea:	e9cd 2306 	strd	r2, r3, [sp, #24]
 80045ee:	f7fb fe67 	bl	80002c0 <__aeabi_dsub>
 80045f2:	2200      	movs	r2, #0
 80045f4:	4b21      	ldr	r3, [pc, #132]	@ (800467c <__ieee754_rem_pio2+0x3e4>)
 80045f6:	f7fc f81b 	bl	8000630 <__aeabi_dmul>
 80045fa:	460f      	mov	r7, r1
 80045fc:	4606      	mov	r6, r0
 80045fe:	f7fc fac7 	bl	8000b90 <__aeabi_d2iz>
 8004602:	f7fb ffab 	bl	800055c <__aeabi_i2d>
 8004606:	4602      	mov	r2, r0
 8004608:	460b      	mov	r3, r1
 800460a:	4630      	mov	r0, r6
 800460c:	4639      	mov	r1, r7
 800460e:	e9cd 2308 	strd	r2, r3, [sp, #32]
 8004612:	f7fb fe55 	bl	80002c0 <__aeabi_dsub>
 8004616:	2200      	movs	r2, #0
 8004618:	4b18      	ldr	r3, [pc, #96]	@ (800467c <__ieee754_rem_pio2+0x3e4>)
 800461a:	f7fc f809 	bl	8000630 <__aeabi_dmul>
 800461e:	f04f 0803 	mov.w	r8, #3
 8004622:	2600      	movs	r6, #0
 8004624:	2700      	movs	r7, #0
 8004626:	e9cd 010a 	strd	r0, r1, [sp, #40]	@ 0x28
 800462a:	f10d 0930 	add.w	r9, sp, #48	@ 0x30
 800462e:	4632      	mov	r2, r6
 8004630:	e979 0102 	ldrd	r0, r1, [r9, #-8]!
 8004634:	463b      	mov	r3, r7
 8004636:	46c2      	mov	sl, r8
 8004638:	f108 38ff 	add.w	r8, r8, #4294967295
 800463c:	f7fc fa60 	bl	8000b00 <__aeabi_dcmpeq>
 8004640:	2800      	cmp	r0, #0
 8004642:	d1f4      	bne.n	800462e <__ieee754_rem_pio2+0x396>
 8004644:	4b0e      	ldr	r3, [pc, #56]	@ (8004680 <__ieee754_rem_pio2+0x3e8>)
 8004646:	462a      	mov	r2, r5
 8004648:	9301      	str	r3, [sp, #4]
 800464a:	2302      	movs	r3, #2
 800464c:	4621      	mov	r1, r4
 800464e:	9300      	str	r3, [sp, #0]
 8004650:	a806      	add	r0, sp, #24
 8004652:	4653      	mov	r3, sl
 8004654:	f000 f81a 	bl	800468c <__kernel_rem_pio2>
 8004658:	9b04      	ldr	r3, [sp, #16]
 800465a:	4605      	mov	r5, r0
 800465c:	2b00      	cmp	r3, #0
 800465e:	f6bf ae56 	bge.w	800430e <__ieee754_rem_pio2+0x76>
 8004662:	e9d4 2100 	ldrd	r2, r1, [r4]
 8004666:	f101 4300 	add.w	r3, r1, #2147483648	@ 0x80000000
 800466a:	e9c4 2300 	strd	r2, r3, [r4]
 800466e:	e9d4 2102 	ldrd	r2, r1, [r4, #8]
 8004672:	f101 4300 	add.w	r3, r1, #2147483648	@ 0x80000000
 8004676:	e9c4 2302 	strd	r2, r3, [r4, #8]
 800467a:	e741      	b.n	8004500 <__ieee754_rem_pio2+0x268>
 800467c:	41700000 	.word	0x41700000
 8004680:	08004f84 	.word	0x08004f84

08004684 <fabs>:
 8004684:	f021 4300 	bic.w	r3, r1, #2147483648	@ 0x80000000
 8004688:	4619      	mov	r1, r3
 800468a:	4770      	bx	lr

0800468c <__kernel_rem_pio2>:
 800468c:	e92d 4ff0 	stmdb	sp!, {r4, r5, r6, r7, r8, r9, sl, fp, lr}
 8004690:	f5ad 7d19 	sub.w	sp, sp, #612	@ 0x264
 8004694:	9308      	str	r3, [sp, #32]
 8004696:	9104      	str	r1, [sp, #16]
 8004698:	4bb6      	ldr	r3, [pc, #728]	@ (8004974 <__kernel_rem_pio2+0x2e8>)
 800469a:	99a2      	ldr	r1, [sp, #648]	@ 0x288
 800469c:	f112 0f14 	cmn.w	r2, #20
 80046a0:	f853 3021 	ldr.w	r3, [r3, r1, lsl #2]
 80046a4:	bfa8      	it	ge
 80046a6:	1ed4      	subge	r4, r2, #3
 80046a8:	9302      	str	r3, [sp, #8]
 80046aa:	9b08      	ldr	r3, [sp, #32]
 80046ac:	bfb8      	it	lt
 80046ae:	2400      	movlt	r4, #0
 80046b0:	f103 33ff 	add.w	r3, r3, #4294967295
 80046b4:	9306      	str	r3, [sp, #24]
 80046b6:	bfa4      	itt	ge
 80046b8:	2318      	movge	r3, #24
 80046ba:	fb94 f4f3 	sdivge	r4, r4, r3
 80046be:	f06f 0317 	mvn.w	r3, #23
 80046c2:	fb04 3303 	mla	r3, r4, r3, r3
 80046c6:	eb03 0a02 	add.w	sl, r3, r2
 80046ca:	9a06      	ldr	r2, [sp, #24]
 80046cc:	9b02      	ldr	r3, [sp, #8]
 80046ce:	1aa7      	subs	r7, r4, r2
 80046d0:	eb03 0802 	add.w	r8, r3, r2
 80046d4:	9ba3      	ldr	r3, [sp, #652]	@ 0x28c
 80046d6:	2500      	movs	r5, #0
 80046d8:	eb03 0987 	add.w	r9, r3, r7, lsl #2
 80046dc:	2200      	movs	r2, #0
 80046de:	2300      	movs	r3, #0
 80046e0:	9009      	str	r0, [sp, #36]	@ 0x24
 80046e2:	ae20      	add	r6, sp, #128	@ 0x80
 80046e4:	4545      	cmp	r5, r8
 80046e6:	dd14      	ble.n	8004712 <__kernel_rem_pio2+0x86>
 80046e8:	f04f 0800 	mov.w	r8, #0
 80046ec:	9a08      	ldr	r2, [sp, #32]
 80046ee:	ab20      	add	r3, sp, #128	@ 0x80
 80046f0:	eb03 05c2 	add.w	r5, r3, r2, lsl #3
 80046f4:	f50d 7be0 	add.w	fp, sp, #448	@ 0x1c0
 80046f8:	9b02      	ldr	r3, [sp, #8]
 80046fa:	4598      	cmp	r8, r3
 80046fc:	dc35      	bgt.n	800476a <__kernel_rem_pio2+0xde>
 80046fe:	9b09      	ldr	r3, [sp, #36]	@ 0x24
 8004700:	2200      	movs	r2, #0
 8004702:	f1a3 0908 	sub.w	r9, r3, #8
 8004706:	2300      	movs	r3, #0
 8004708:	462f      	mov	r7, r5
 800470a:	2600      	movs	r6, #0
 800470c:	e9cd 2300 	strd	r2, r3, [sp]
 8004710:	e01f      	b.n	8004752 <__kernel_rem_pio2+0xc6>
 8004712:	42ef      	cmn	r7, r5
 8004714:	d40b      	bmi.n	800472e <__kernel_rem_pio2+0xa2>
 8004716:	f859 0025 	ldr.w	r0, [r9, r5, lsl #2]
 800471a:	e9cd 2300 	strd	r2, r3, [sp]
 800471e:	f7fb ff1d 	bl	800055c <__aeabi_i2d>
 8004722:	e9dd 2300 	ldrd	r2, r3, [sp]
 8004726:	e8e6 0102 	strd	r0, r1, [r6], #8
 800472a:	3501      	adds	r5, #1
 800472c:	e7da      	b.n	80046e4 <__kernel_rem_pio2+0x58>
 800472e:	4610      	mov	r0, r2
 8004730:	4619      	mov	r1, r3
 8004732:	e7f8      	b.n	8004726 <__kernel_rem_pio2+0x9a>
 8004734:	e9d7 2300 	ldrd	r2, r3, [r7]
 8004738:	e9f9 0102 	ldrd	r0, r1, [r9, #8]!
 800473c:	f7fb ff78 	bl	8000630 <__aeabi_dmul>
 8004740:	4602      	mov	r2, r0
 8004742:	460b      	mov	r3, r1
 8004744:	e9dd 0100 	ldrd	r0, r1, [sp]
 8004748:	f7fb fdbc 	bl	80002c4 <__adddf3>
 800474c:	e9cd 0100 	strd	r0, r1, [sp]
 8004750:	3601      	adds	r6, #1
 8004752:	9b06      	ldr	r3, [sp, #24]
 8004754:	3f08      	subs	r7, #8
 8004756:	429e      	cmp	r6, r3
 8004758:	ddec      	ble.n	8004734 <__kernel_rem_pio2+0xa8>
 800475a:	e9dd 2300 	ldrd	r2, r3, [sp]
 800475e:	f108 0801 	add.w	r8, r8, #1
 8004762:	e8eb 2302 	strd	r2, r3, [fp], #8
 8004766:	3508      	adds	r5, #8
 8004768:	e7c6      	b.n	80046f8 <__kernel_rem_pio2+0x6c>
 800476a:	9b02      	ldr	r3, [sp, #8]
 800476c:	aa0c      	add	r2, sp, #48	@ 0x30
 800476e:	eb02 0383 	add.w	r3, r2, r3, lsl #2
 8004772:	930b      	str	r3, [sp, #44]	@ 0x2c
 8004774:	9ba3      	ldr	r3, [sp, #652]	@ 0x28c
 8004776:	f8dd b008 	ldr.w	fp, [sp, #8]
 800477a:	eb03 0384 	add.w	r3, r3, r4, lsl #2
 800477e:	930a      	str	r3, [sp, #40]	@ 0x28
 8004780:	ab98      	add	r3, sp, #608	@ 0x260
 8004782:	eb03 03cb 	add.w	r3, r3, fp, lsl #3
 8004786:	e953 4528 	ldrd	r4, r5, [r3, #-160]	@ 0xa0
 800478a:	ab70      	add	r3, sp, #448	@ 0x1c0
 800478c:	eb03 03cb 	add.w	r3, r3, fp, lsl #3
 8004790:	ae0c      	add	r6, sp, #48	@ 0x30
 8004792:	4698      	mov	r8, r3
 8004794:	46b1      	mov	r9, r6
 8004796:	465f      	mov	r7, fp
 8004798:	9307      	str	r3, [sp, #28]
 800479a:	2f00      	cmp	r7, #0
 800479c:	f1a8 0808 	sub.w	r8, r8, #8
 80047a0:	dc71      	bgt.n	8004886 <__kernel_rem_pio2+0x1fa>
 80047a2:	4652      	mov	r2, sl
 80047a4:	4620      	mov	r0, r4
 80047a6:	4629      	mov	r1, r5
 80047a8:	f000 fa96 	bl	8004cd8 <scalbn>
 80047ac:	2200      	movs	r2, #0
 80047ae:	f04f 537f 	mov.w	r3, #1069547520	@ 0x3fc00000
 80047b2:	4604      	mov	r4, r0
 80047b4:	460d      	mov	r5, r1
 80047b6:	f7fb ff3b 	bl	8000630 <__aeabi_dmul>
 80047ba:	f000 fb05 	bl	8004dc8 <floor>
 80047be:	2200      	movs	r2, #0
 80047c0:	4b6d      	ldr	r3, [pc, #436]	@ (8004978 <__kernel_rem_pio2+0x2ec>)
 80047c2:	f7fb ff35 	bl	8000630 <__aeabi_dmul>
 80047c6:	4602      	mov	r2, r0
 80047c8:	460b      	mov	r3, r1
 80047ca:	4620      	mov	r0, r4
 80047cc:	4629      	mov	r1, r5
 80047ce:	f7fb fd77 	bl	80002c0 <__aeabi_dsub>
 80047d2:	460d      	mov	r5, r1
 80047d4:	4604      	mov	r4, r0
 80047d6:	f7fc f9db 	bl	8000b90 <__aeabi_d2iz>
 80047da:	9005      	str	r0, [sp, #20]
 80047dc:	f7fb febe 	bl	800055c <__aeabi_i2d>
 80047e0:	4602      	mov	r2, r0
 80047e2:	460b      	mov	r3, r1
 80047e4:	4620      	mov	r0, r4
 80047e6:	4629      	mov	r1, r5
 80047e8:	f7fb fd6a 	bl	80002c0 <__aeabi_dsub>
 80047ec:	f1ba 0f00 	cmp.w	sl, #0
 80047f0:	4680      	mov	r8, r0
 80047f2:	4689      	mov	r9, r1
 80047f4:	dd6d      	ble.n	80048d2 <__kernel_rem_pio2+0x246>
 80047f6:	f10b 31ff 	add.w	r1, fp, #4294967295
 80047fa:	ab0c      	add	r3, sp, #48	@ 0x30
 80047fc:	f853 3021 	ldr.w	r3, [r3, r1, lsl #2]
 8004800:	9c05      	ldr	r4, [sp, #20]
 8004802:	f1ca 0018 	rsb	r0, sl, #24
 8004806:	fa43 f200 	asr.w	r2, r3, r0
 800480a:	4414      	add	r4, r2
 800480c:	4082      	lsls	r2, r0
 800480e:	1a9b      	subs	r3, r3, r2
 8004810:	aa0c      	add	r2, sp, #48	@ 0x30
 8004812:	f842 3021 	str.w	r3, [r2, r1, lsl #2]
 8004816:	f1ca 0217 	rsb	r2, sl, #23
 800481a:	9405      	str	r4, [sp, #20]
 800481c:	4113      	asrs	r3, r2
 800481e:	9300      	str	r3, [sp, #0]
 8004820:	9b00      	ldr	r3, [sp, #0]
 8004822:	2b00      	cmp	r3, #0
 8004824:	dd64      	ble.n	80048f0 <__kernel_rem_pio2+0x264>
 8004826:	2200      	movs	r2, #0
 8004828:	f06f 417f 	mvn.w	r1, #4278190080	@ 0xff000000
 800482c:	4614      	mov	r4, r2
 800482e:	9b05      	ldr	r3, [sp, #20]
 8004830:	3301      	adds	r3, #1
 8004832:	9305      	str	r3, [sp, #20]
 8004834:	4593      	cmp	fp, r2
 8004836:	f300 80ab 	bgt.w	8004990 <__kernel_rem_pio2+0x304>
 800483a:	f1ba 0f00 	cmp.w	sl, #0
 800483e:	dd07      	ble.n	8004850 <__kernel_rem_pio2+0x1c4>
 8004840:	f1ba 0f01 	cmp.w	sl, #1
 8004844:	f000 80b2 	beq.w	80049ac <__kernel_rem_pio2+0x320>
 8004848:	f1ba 0f02 	cmp.w	sl, #2
 800484c:	f000 80b9 	beq.w	80049c2 <__kernel_rem_pio2+0x336>
 8004850:	9b00      	ldr	r3, [sp, #0]
 8004852:	2b02      	cmp	r3, #2
 8004854:	d14c      	bne.n	80048f0 <__kernel_rem_pio2+0x264>
 8004856:	4642      	mov	r2, r8
 8004858:	464b      	mov	r3, r9
 800485a:	2000      	movs	r0, #0
 800485c:	4947      	ldr	r1, [pc, #284]	@ (800497c <__kernel_rem_pio2+0x2f0>)
 800485e:	f7fb fd2f 	bl	80002c0 <__aeabi_dsub>
 8004862:	4680      	mov	r8, r0
 8004864:	4689      	mov	r9, r1
 8004866:	2c00      	cmp	r4, #0
 8004868:	d042      	beq.n	80048f0 <__kernel_rem_pio2+0x264>
 800486a:	4652      	mov	r2, sl
 800486c:	2000      	movs	r0, #0
 800486e:	4943      	ldr	r1, [pc, #268]	@ (800497c <__kernel_rem_pio2+0x2f0>)
 8004870:	f000 fa32 	bl	8004cd8 <scalbn>
 8004874:	4602      	mov	r2, r0
 8004876:	460b      	mov	r3, r1
 8004878:	4640      	mov	r0, r8
 800487a:	4649      	mov	r1, r9
 800487c:	f7fb fd20 	bl	80002c0 <__aeabi_dsub>
 8004880:	4680      	mov	r8, r0
 8004882:	4689      	mov	r9, r1
 8004884:	e034      	b.n	80048f0 <__kernel_rem_pio2+0x264>
 8004886:	2200      	movs	r2, #0
 8004888:	4b3d      	ldr	r3, [pc, #244]	@ (8004980 <__kernel_rem_pio2+0x2f4>)
 800488a:	4620      	mov	r0, r4
 800488c:	4629      	mov	r1, r5
 800488e:	f7fb fecf 	bl	8000630 <__aeabi_dmul>
 8004892:	f7fc f97d 	bl	8000b90 <__aeabi_d2iz>
 8004896:	f7fb fe61 	bl	800055c <__aeabi_i2d>
 800489a:	4602      	mov	r2, r0
 800489c:	460b      	mov	r3, r1
 800489e:	e9cd 2300 	strd	r2, r3, [sp]
 80048a2:	2200      	movs	r2, #0
 80048a4:	4b37      	ldr	r3, [pc, #220]	@ (8004984 <__kernel_rem_pio2+0x2f8>)
 80048a6:	f7fb fec3 	bl	8000630 <__aeabi_dmul>
 80048aa:	4602      	mov	r2, r0
 80048ac:	460b      	mov	r3, r1
 80048ae:	4620      	mov	r0, r4
 80048b0:	4629      	mov	r1, r5
 80048b2:	f7fb fd05 	bl	80002c0 <__aeabi_dsub>
 80048b6:	f7fc f96b 	bl	8000b90 <__aeabi_d2iz>
 80048ba:	e9d8 2300 	ldrd	r2, r3, [r8]
 80048be:	f849 0b04 	str.w	r0, [r9], #4
 80048c2:	e9dd 0100 	ldrd	r0, r1, [sp]
 80048c6:	f7fb fcfd 	bl	80002c4 <__adddf3>
 80048ca:	3f01      	subs	r7, #1
 80048cc:	4604      	mov	r4, r0
 80048ce:	460d      	mov	r5, r1
 80048d0:	e763      	b.n	800479a <__kernel_rem_pio2+0x10e>
 80048d2:	d106      	bne.n	80048e2 <__kernel_rem_pio2+0x256>
 80048d4:	f10b 33ff 	add.w	r3, fp, #4294967295
 80048d8:	aa0c      	add	r2, sp, #48	@ 0x30
 80048da:	f852 3023 	ldr.w	r3, [r2, r3, lsl #2]
 80048de:	15db      	asrs	r3, r3, #23
 80048e0:	e79d      	b.n	800481e <__kernel_rem_pio2+0x192>
 80048e2:	2200      	movs	r2, #0
 80048e4:	4b28      	ldr	r3, [pc, #160]	@ (8004988 <__kernel_rem_pio2+0x2fc>)
 80048e6:	f7fc f929 	bl	8000b3c <__aeabi_dcmpge>
 80048ea:	2800      	cmp	r0, #0
 80048ec:	d13f      	bne.n	800496e <__kernel_rem_pio2+0x2e2>
 80048ee:	9000      	str	r0, [sp, #0]
 80048f0:	2200      	movs	r2, #0
 80048f2:	2300      	movs	r3, #0
 80048f4:	4640      	mov	r0, r8
 80048f6:	4649      	mov	r1, r9
 80048f8:	f7fc f902 	bl	8000b00 <__aeabi_dcmpeq>
 80048fc:	2800      	cmp	r0, #0
 80048fe:	f000 80af 	beq.w	8004a60 <__kernel_rem_pio2+0x3d4>
 8004902:	2200      	movs	r2, #0
 8004904:	f10b 33ff 	add.w	r3, fp, #4294967295
 8004908:	9902      	ldr	r1, [sp, #8]
 800490a:	428b      	cmp	r3, r1
 800490c:	da61      	bge.n	80049d2 <__kernel_rem_pio2+0x346>
 800490e:	2a00      	cmp	r2, #0
 8004910:	d076      	beq.n	8004a00 <__kernel_rem_pio2+0x374>
 8004912:	f10b 3bff 	add.w	fp, fp, #4294967295
 8004916:	ab0c      	add	r3, sp, #48	@ 0x30
 8004918:	f853 302b 	ldr.w	r3, [r3, fp, lsl #2]
 800491c:	f1aa 0a18 	sub.w	sl, sl, #24
 8004920:	2b00      	cmp	r3, #0
 8004922:	d0f6      	beq.n	8004912 <__kernel_rem_pio2+0x286>
 8004924:	4652      	mov	r2, sl
 8004926:	2000      	movs	r0, #0
 8004928:	4914      	ldr	r1, [pc, #80]	@ (800497c <__kernel_rem_pio2+0x2f0>)
 800492a:	f000 f9d5 	bl	8004cd8 <scalbn>
 800492e:	465d      	mov	r5, fp
 8004930:	4606      	mov	r6, r0
 8004932:	460f      	mov	r7, r1
 8004934:	f04f 0900 	mov.w	r9, #0
 8004938:	ab70      	add	r3, sp, #448	@ 0x1c0
 800493a:	f8df a044 	ldr.w	sl, [pc, #68]	@ 8004980 <__kernel_rem_pio2+0x2f4>
 800493e:	ea4f 04cb 	mov.w	r4, fp, lsl #3
 8004942:	eb03 08cb 	add.w	r8, r3, fp, lsl #3
 8004946:	2d00      	cmp	r5, #0
 8004948:	f280 80c0 	bge.w	8004acc <__kernel_rem_pio2+0x440>
 800494c:	465d      	mov	r5, fp
 800494e:	2d00      	cmp	r5, #0
 8004950:	f2c0 80f0 	blt.w	8004b34 <__kernel_rem_pio2+0x4a8>
 8004954:	4b0d      	ldr	r3, [pc, #52]	@ (800498c <__kernel_rem_pio2+0x300>)
 8004956:	f04f 0900 	mov.w	r9, #0
 800495a:	9306      	str	r3, [sp, #24]
 800495c:	ab70      	add	r3, sp, #448	@ 0x1c0
 800495e:	f04f 0a00 	mov.w	sl, #0
 8004962:	2700      	movs	r7, #0
 8004964:	eb03 08c5 	add.w	r8, r3, r5, lsl #3
 8004968:	ebab 0605 	sub.w	r6, fp, r5
 800496c:	e0d6      	b.n	8004b1c <__kernel_rem_pio2+0x490>
 800496e:	2302      	movs	r3, #2
 8004970:	9300      	str	r3, [sp, #0]
 8004972:	e758      	b.n	8004826 <__kernel_rem_pio2+0x19a>
 8004974:	080050d0 	.word	0x080050d0
 8004978:	40200000 	.word	0x40200000
 800497c:	3ff00000 	.word	0x3ff00000
 8004980:	3e700000 	.word	0x3e700000
 8004984:	41700000 	.word	0x41700000
 8004988:	3fe00000 	.word	0x3fe00000
 800498c:	08005090 	.word	0x08005090
 8004990:	f856 3b04 	ldr.w	r3, [r6], #4
 8004994:	b944      	cbnz	r4, 80049a8 <__kernel_rem_pio2+0x31c>
 8004996:	b123      	cbz	r3, 80049a2 <__kernel_rem_pio2+0x316>
 8004998:	f1c3 7380 	rsb	r3, r3, #16777216	@ 0x1000000
 800499c:	f846 3c04 	str.w	r3, [r6, #-4]
 80049a0:	2301      	movs	r3, #1
 80049a2:	461c      	mov	r4, r3
 80049a4:	3201      	adds	r2, #1
 80049a6:	e745      	b.n	8004834 <__kernel_rem_pio2+0x1a8>
 80049a8:	1acb      	subs	r3, r1, r3
 80049aa:	e7f7      	b.n	800499c <__kernel_rem_pio2+0x310>
 80049ac:	f10b 32ff 	add.w	r2, fp, #4294967295
 80049b0:	ab0c      	add	r3, sp, #48	@ 0x30
 80049b2:	f853 3022 	ldr.w	r3, [r3, r2, lsl #2]
 80049b6:	f3c3 0316 	ubfx	r3, r3, #0, #23
 80049ba:	a90c      	add	r1, sp, #48	@ 0x30
 80049bc:	f841 3022 	str.w	r3, [r1, r2, lsl #2]
 80049c0:	e746      	b.n	8004850 <__kernel_rem_pio2+0x1c4>
 80049c2:	f10b 32ff 	add.w	r2, fp, #4294967295
 80049c6:	ab0c      	add	r3, sp, #48	@ 0x30
 80049c8:	f853 3022 	ldr.w	r3, [r3, r2, lsl #2]
 80049cc:	f3c3 0315 	ubfx	r3, r3, #0, #22
 80049d0:	e7f3      	b.n	80049ba <__kernel_rem_pio2+0x32e>
 80049d2:	a90c      	add	r1, sp, #48	@ 0x30
 80049d4:	f851 1023 	ldr.w	r1, [r1, r3, lsl #2]
 80049d8:	3b01      	subs	r3, #1
 80049da:	430a      	orrs	r2, r1
 80049dc:	e794      	b.n	8004908 <__kernel_rem_pio2+0x27c>
 80049de:	3401      	adds	r4, #1
 80049e0:	f853 2d04 	ldr.w	r2, [r3, #-4]!
 80049e4:	2a00      	cmp	r2, #0
 80049e6:	d0fa      	beq.n	80049de <__kernel_rem_pio2+0x352>
 80049e8:	9b08      	ldr	r3, [sp, #32]
 80049ea:	aa20      	add	r2, sp, #128	@ 0x80
 80049ec:	445b      	add	r3, fp
 80049ee:	f10b 0801 	add.w	r8, fp, #1
 80049f2:	eb02 05c3 	add.w	r5, r2, r3, lsl #3
 80049f6:	445c      	add	r4, fp
 80049f8:	4544      	cmp	r4, r8
 80049fa:	da04      	bge.n	8004a06 <__kernel_rem_pio2+0x37a>
 80049fc:	46a3      	mov	fp, r4
 80049fe:	e6bf      	b.n	8004780 <__kernel_rem_pio2+0xf4>
 8004a00:	2401      	movs	r4, #1
 8004a02:	9b0b      	ldr	r3, [sp, #44]	@ 0x2c
 8004a04:	e7ec      	b.n	80049e0 <__kernel_rem_pio2+0x354>
 8004a06:	9b0a      	ldr	r3, [sp, #40]	@ 0x28
 8004a08:	46ab      	mov	fp, r5
 8004a0a:	f853 0028 	ldr.w	r0, [r3, r8, lsl #2]
 8004a0e:	f7fb fda5 	bl	800055c <__aeabi_i2d>
 8004a12:	f04f 0900 	mov.w	r9, #0
 8004a16:	2600      	movs	r6, #0
 8004a18:	2700      	movs	r7, #0
 8004a1a:	9b09      	ldr	r3, [sp, #36]	@ 0x24
 8004a1c:	e9c5 0100 	strd	r0, r1, [r5]
 8004a20:	3b08      	subs	r3, #8
 8004a22:	9300      	str	r3, [sp, #0]
 8004a24:	9b06      	ldr	r3, [sp, #24]
 8004a26:	4599      	cmp	r9, r3
 8004a28:	dd07      	ble.n	8004a3a <__kernel_rem_pio2+0x3ae>
 8004a2a:	9b07      	ldr	r3, [sp, #28]
 8004a2c:	f108 0801 	add.w	r8, r8, #1
 8004a30:	e9e3 6702 	strd	r6, r7, [r3, #8]!
 8004a34:	3508      	adds	r5, #8
 8004a36:	9307      	str	r3, [sp, #28]
 8004a38:	e7de      	b.n	80049f8 <__kernel_rem_pio2+0x36c>
 8004a3a:	9900      	ldr	r1, [sp, #0]
 8004a3c:	f109 0901 	add.w	r9, r9, #1
 8004a40:	e9f1 2302 	ldrd	r2, r3, [r1, #8]!
 8004a44:	9100      	str	r1, [sp, #0]
 8004a46:	e87b 0102 	ldrd	r0, r1, [fp], #-8
 8004a4a:	f7fb fdf1 	bl	8000630 <__aeabi_dmul>
 8004a4e:	4602      	mov	r2, r0
 8004a50:	460b      	mov	r3, r1
 8004a52:	4630      	mov	r0, r6
 8004a54:	4639      	mov	r1, r7
 8004a56:	f7fb fc35 	bl	80002c4 <__adddf3>
 8004a5a:	4606      	mov	r6, r0
 8004a5c:	460f      	mov	r7, r1
 8004a5e:	e7e1      	b.n	8004a24 <__kernel_rem_pio2+0x398>
 8004a60:	f1ca 0200 	rsb	r2, sl, #0
 8004a64:	4640      	mov	r0, r8
 8004a66:	4649      	mov	r1, r9
 8004a68:	f000 f936 	bl	8004cd8 <scalbn>
 8004a6c:	2200      	movs	r2, #0
 8004a6e:	4b97      	ldr	r3, [pc, #604]	@ (8004ccc <__kernel_rem_pio2+0x640>)
 8004a70:	4604      	mov	r4, r0
 8004a72:	460d      	mov	r5, r1
 8004a74:	f7fc f862 	bl	8000b3c <__aeabi_dcmpge>
 8004a78:	b300      	cbz	r0, 8004abc <__kernel_rem_pio2+0x430>
 8004a7a:	2200      	movs	r2, #0
 8004a7c:	4b94      	ldr	r3, [pc, #592]	@ (8004cd0 <__kernel_rem_pio2+0x644>)
 8004a7e:	4620      	mov	r0, r4
 8004a80:	4629      	mov	r1, r5
 8004a82:	f7fb fdd5 	bl	8000630 <__aeabi_dmul>
 8004a86:	f7fc f883 	bl	8000b90 <__aeabi_d2iz>
 8004a8a:	4606      	mov	r6, r0
 8004a8c:	f7fb fd66 	bl	800055c <__aeabi_i2d>
 8004a90:	2200      	movs	r2, #0
 8004a92:	4b8e      	ldr	r3, [pc, #568]	@ (8004ccc <__kernel_rem_pio2+0x640>)
 8004a94:	f7fb fdcc 	bl	8000630 <__aeabi_dmul>
 8004a98:	460b      	mov	r3, r1
 8004a9a:	4602      	mov	r2, r0
 8004a9c:	4629      	mov	r1, r5
 8004a9e:	4620      	mov	r0, r4
 8004aa0:	f7fb fc0e 	bl	80002c0 <__aeabi_dsub>
 8004aa4:	f7fc f874 	bl	8000b90 <__aeabi_d2iz>
 8004aa8:	ab0c      	add	r3, sp, #48	@ 0x30
 8004aaa:	f843 002b 	str.w	r0, [r3, fp, lsl #2]
 8004aae:	f10b 0b01 	add.w	fp, fp, #1
 8004ab2:	f10a 0a18 	add.w	sl, sl, #24
 8004ab6:	f843 602b 	str.w	r6, [r3, fp, lsl #2]
 8004aba:	e733      	b.n	8004924 <__kernel_rem_pio2+0x298>
 8004abc:	4620      	mov	r0, r4
 8004abe:	4629      	mov	r1, r5
 8004ac0:	f7fc f866 	bl	8000b90 <__aeabi_d2iz>
 8004ac4:	ab0c      	add	r3, sp, #48	@ 0x30
 8004ac6:	f843 002b 	str.w	r0, [r3, fp, lsl #2]
 8004aca:	e72b      	b.n	8004924 <__kernel_rem_pio2+0x298>
 8004acc:	ab0c      	add	r3, sp, #48	@ 0x30
 8004ace:	f853 0025 	ldr.w	r0, [r3, r5, lsl #2]
 8004ad2:	f7fb fd43 	bl	800055c <__aeabi_i2d>
 8004ad6:	4632      	mov	r2, r6
 8004ad8:	463b      	mov	r3, r7
 8004ada:	f7fb fda9 	bl	8000630 <__aeabi_dmul>
 8004ade:	464a      	mov	r2, r9
 8004ae0:	e868 0102 	strd	r0, r1, [r8], #-8
 8004ae4:	4653      	mov	r3, sl
 8004ae6:	4630      	mov	r0, r6
 8004ae8:	4639      	mov	r1, r7
 8004aea:	f7fb fda1 	bl	8000630 <__aeabi_dmul>
 8004aee:	3d01      	subs	r5, #1
 8004af0:	4606      	mov	r6, r0
 8004af2:	460f      	mov	r7, r1
 8004af4:	e727      	b.n	8004946 <__kernel_rem_pio2+0x2ba>
 8004af6:	f8dd c018 	ldr.w	ip, [sp, #24]
 8004afa:	e8f8 2302 	ldrd	r2, r3, [r8], #8
 8004afe:	e8fc 0102 	ldrd	r0, r1, [ip], #8
 8004b02:	f8cd c018 	str.w	ip, [sp, #24]
 8004b06:	f7fb fd93 	bl	8000630 <__aeabi_dmul>
 8004b0a:	4602      	mov	r2, r0
 8004b0c:	460b      	mov	r3, r1
 8004b0e:	4648      	mov	r0, r9
 8004b10:	4651      	mov	r1, sl
 8004b12:	f7fb fbd7 	bl	80002c4 <__adddf3>
 8004b16:	4681      	mov	r9, r0
 8004b18:	468a      	mov	sl, r1
 8004b1a:	3701      	adds	r7, #1
 8004b1c:	9b02      	ldr	r3, [sp, #8]
 8004b1e:	429f      	cmp	r7, r3
 8004b20:	dc01      	bgt.n	8004b26 <__kernel_rem_pio2+0x49a>
 8004b22:	42be      	cmp	r6, r7
 8004b24:	dae7      	bge.n	8004af6 <__kernel_rem_pio2+0x46a>
 8004b26:	ab48      	add	r3, sp, #288	@ 0x120
 8004b28:	eb03 06c6 	add.w	r6, r3, r6, lsl #3
 8004b2c:	e9c6 9a00 	strd	r9, sl, [r6]
 8004b30:	3d01      	subs	r5, #1
 8004b32:	e70c      	b.n	800494e <__kernel_rem_pio2+0x2c2>
 8004b34:	9ba2      	ldr	r3, [sp, #648]	@ 0x288
 8004b36:	2b02      	cmp	r3, #2
 8004b38:	dc09      	bgt.n	8004b4e <__kernel_rem_pio2+0x4c2>
 8004b3a:	2b00      	cmp	r3, #0
 8004b3c:	dc2c      	bgt.n	8004b98 <__kernel_rem_pio2+0x50c>
 8004b3e:	d04e      	beq.n	8004bde <__kernel_rem_pio2+0x552>
 8004b40:	9b05      	ldr	r3, [sp, #20]
 8004b42:	f003 0007 	and.w	r0, r3, #7
 8004b46:	f50d 7d19 	add.w	sp, sp, #612	@ 0x264
 8004b4a:	e8bd 8ff0 	ldmia.w	sp!, {r4, r5, r6, r7, r8, r9, sl, fp, pc}
 8004b4e:	9ba2      	ldr	r3, [sp, #648]	@ 0x288
 8004b50:	2b03      	cmp	r3, #3
 8004b52:	d1f5      	bne.n	8004b40 <__kernel_rem_pio2+0x4b4>
 8004b54:	ab48      	add	r3, sp, #288	@ 0x120
 8004b56:	441c      	add	r4, r3
 8004b58:	4625      	mov	r5, r4
 8004b5a:	46da      	mov	sl, fp
 8004b5c:	f1ba 0f00 	cmp.w	sl, #0
 8004b60:	dc63      	bgt.n	8004c2a <__kernel_rem_pio2+0x59e>
 8004b62:	4625      	mov	r5, r4
 8004b64:	46da      	mov	sl, fp
 8004b66:	f1ba 0f01 	cmp.w	sl, #1
 8004b6a:	dc7b      	bgt.n	8004c64 <__kernel_rem_pio2+0x5d8>
 8004b6c:	2000      	movs	r0, #0
 8004b6e:	2100      	movs	r1, #0
 8004b70:	f1bb 0f01 	cmp.w	fp, #1
 8004b74:	f300 8093 	bgt.w	8004c9e <__kernel_rem_pio2+0x612>
 8004b78:	e9dd 7848 	ldrd	r7, r8, [sp, #288]	@ 0x120
 8004b7c:	e9dd 564a 	ldrd	r5, r6, [sp, #296]	@ 0x128
 8004b80:	9b00      	ldr	r3, [sp, #0]
 8004b82:	2b00      	cmp	r3, #0
 8004b84:	f040 8092 	bne.w	8004cac <__kernel_rem_pio2+0x620>
 8004b88:	9b04      	ldr	r3, [sp, #16]
 8004b8a:	e9c3 7800 	strd	r7, r8, [r3]
 8004b8e:	e9c3 5602 	strd	r5, r6, [r3, #8]
 8004b92:	e9c3 0104 	strd	r0, r1, [r3, #16]
 8004b96:	e7d3      	b.n	8004b40 <__kernel_rem_pio2+0x4b4>
 8004b98:	465d      	mov	r5, fp
 8004b9a:	2000      	movs	r0, #0
 8004b9c:	2100      	movs	r1, #0
 8004b9e:	ab48      	add	r3, sp, #288	@ 0x120
 8004ba0:	441c      	add	r4, r3
 8004ba2:	2d00      	cmp	r5, #0
 8004ba4:	da32      	bge.n	8004c0c <__kernel_rem_pio2+0x580>
 8004ba6:	9b00      	ldr	r3, [sp, #0]
 8004ba8:	2b00      	cmp	r3, #0
 8004baa:	d035      	beq.n	8004c18 <__kernel_rem_pio2+0x58c>
 8004bac:	4602      	mov	r2, r0
 8004bae:	f101 4300 	add.w	r3, r1, #2147483648	@ 0x80000000
 8004bb2:	9c04      	ldr	r4, [sp, #16]
 8004bb4:	2501      	movs	r5, #1
 8004bb6:	e9c4 2300 	strd	r2, r3, [r4]
 8004bba:	4602      	mov	r2, r0
 8004bbc:	460b      	mov	r3, r1
 8004bbe:	e9dd 0148 	ldrd	r0, r1, [sp, #288]	@ 0x120
 8004bc2:	f7fb fb7d 	bl	80002c0 <__aeabi_dsub>
 8004bc6:	ac48      	add	r4, sp, #288	@ 0x120
 8004bc8:	45ab      	cmp	fp, r5
 8004bca:	da28      	bge.n	8004c1e <__kernel_rem_pio2+0x592>
 8004bcc:	9b00      	ldr	r3, [sp, #0]
 8004bce:	b113      	cbz	r3, 8004bd6 <__kernel_rem_pio2+0x54a>
 8004bd0:	f101 4300 	add.w	r3, r1, #2147483648	@ 0x80000000
 8004bd4:	4619      	mov	r1, r3
 8004bd6:	9b04      	ldr	r3, [sp, #16]
 8004bd8:	e9c3 0102 	strd	r0, r1, [r3, #8]
 8004bdc:	e7b0      	b.n	8004b40 <__kernel_rem_pio2+0x4b4>
 8004bde:	2000      	movs	r0, #0
 8004be0:	2100      	movs	r1, #0
 8004be2:	ab48      	add	r3, sp, #288	@ 0x120
 8004be4:	441c      	add	r4, r3
 8004be6:	f1bb 0f00 	cmp.w	fp, #0
 8004bea:	da08      	bge.n	8004bfe <__kernel_rem_pio2+0x572>
 8004bec:	9b00      	ldr	r3, [sp, #0]
 8004bee:	b113      	cbz	r3, 8004bf6 <__kernel_rem_pio2+0x56a>
 8004bf0:	f101 4300 	add.w	r3, r1, #2147483648	@ 0x80000000
 8004bf4:	4619      	mov	r1, r3
 8004bf6:	9b04      	ldr	r3, [sp, #16]
 8004bf8:	e9c3 0100 	strd	r0, r1, [r3]
 8004bfc:	e7a0      	b.n	8004b40 <__kernel_rem_pio2+0x4b4>
 8004bfe:	e874 2302 	ldrd	r2, r3, [r4], #-8
 8004c02:	f7fb fb5f 	bl	80002c4 <__adddf3>
 8004c06:	f10b 3bff 	add.w	fp, fp, #4294967295
 8004c0a:	e7ec      	b.n	8004be6 <__kernel_rem_pio2+0x55a>
 8004c0c:	e874 2302 	ldrd	r2, r3, [r4], #-8
 8004c10:	f7fb fb58 	bl	80002c4 <__adddf3>
 8004c14:	3d01      	subs	r5, #1
 8004c16:	e7c4      	b.n	8004ba2 <__kernel_rem_pio2+0x516>
 8004c18:	4602      	mov	r2, r0
 8004c1a:	460b      	mov	r3, r1
 8004c1c:	e7c9      	b.n	8004bb2 <__kernel_rem_pio2+0x526>
 8004c1e:	e9f4 2302 	ldrd	r2, r3, [r4, #8]!
 8004c22:	f7fb fb4f 	bl	80002c4 <__adddf3>
 8004c26:	3501      	adds	r5, #1
 8004c28:	e7ce      	b.n	8004bc8 <__kernel_rem_pio2+0x53c>
 8004c2a:	e9d5 2300 	ldrd	r2, r3, [r5]
 8004c2e:	e955 8902 	ldrd	r8, r9, [r5, #-8]
 8004c32:	4640      	mov	r0, r8
 8004c34:	4649      	mov	r1, r9
 8004c36:	e9cd 2302 	strd	r2, r3, [sp, #8]
 8004c3a:	f7fb fb43 	bl	80002c4 <__adddf3>
 8004c3e:	4602      	mov	r2, r0
 8004c40:	460b      	mov	r3, r1
 8004c42:	4606      	mov	r6, r0
 8004c44:	460f      	mov	r7, r1
 8004c46:	4640      	mov	r0, r8
 8004c48:	4649      	mov	r1, r9
 8004c4a:	f7fb fb39 	bl	80002c0 <__aeabi_dsub>
 8004c4e:	e9dd 2302 	ldrd	r2, r3, [sp, #8]
 8004c52:	f7fb fb37 	bl	80002c4 <__adddf3>
 8004c56:	e865 0102 	strd	r0, r1, [r5], #-8
 8004c5a:	f10a 3aff 	add.w	sl, sl, #4294967295
 8004c5e:	e9c5 6700 	strd	r6, r7, [r5]
 8004c62:	e77b      	b.n	8004b5c <__kernel_rem_pio2+0x4d0>
 8004c64:	e9d5 2300 	ldrd	r2, r3, [r5]
 8004c68:	e955 8902 	ldrd	r8, r9, [r5, #-8]
 8004c6c:	4640      	mov	r0, r8
 8004c6e:	4649      	mov	r1, r9
 8004c70:	e9cd 2302 	strd	r2, r3, [sp, #8]
 8004c74:	f7fb fb26 	bl	80002c4 <__adddf3>
 8004c78:	4602      	mov	r2, r0
 8004c7a:	460b      	mov	r3, r1
 8004c7c:	4606      	mov	r6, r0
 8004c7e:	460f      	mov	r7, r1
 8004c80:	4640      	mov	r0, r8
 8004c82:	4649      	mov	r1, r9
 8004c84:	f7fb fb1c 	bl	80002c0 <__aeabi_dsub>
 8004c88:	e9dd 2302 	ldrd	r2, r3, [sp, #8]
 8004c8c:	f7fb fb1a 	bl	80002c4 <__adddf3>
 8004c90:	e865 0102 	strd	r0, r1, [r5], #-8
 8004c94:	f10a 3aff 	add.w	sl, sl, #4294967295
 8004c98:	e9c5 6700 	strd	r6, r7, [r5]
 8004c9c:	e763      	b.n	8004b66 <__kernel_rem_pio2+0x4da>
 8004c9e:	e874 2302 	ldrd	r2, r3, [r4], #-8
 8004ca2:	f7fb fb0f 	bl	80002c4 <__adddf3>
 8004ca6:	f10b 3bff 	add.w	fp, fp, #4294967295
 8004caa:	e761      	b.n	8004b70 <__kernel_rem_pio2+0x4e4>
 8004cac:	9b04      	ldr	r3, [sp, #16]
 8004cae:	9a04      	ldr	r2, [sp, #16]
 8004cb0:	f108 4400 	add.w	r4, r8, #2147483648	@ 0x80000000
 8004cb4:	601f      	str	r7, [r3, #0]
 8004cb6:	605c      	str	r4, [r3, #4]
 8004cb8:	609d      	str	r5, [r3, #8]
 8004cba:	f106 4300 	add.w	r3, r6, #2147483648	@ 0x80000000
 8004cbe:	60d3      	str	r3, [r2, #12]
 8004cc0:	f101 4300 	add.w	r3, r1, #2147483648	@ 0x80000000
 8004cc4:	6110      	str	r0, [r2, #16]
 8004cc6:	6153      	str	r3, [r2, #20]
 8004cc8:	e73a      	b.n	8004b40 <__kernel_rem_pio2+0x4b4>
 8004cca:	bf00      	nop
 8004ccc:	41700000 	.word	0x41700000
 8004cd0:	3e700000 	.word	0x3e700000
 8004cd4:	00000000 	.word	0x00000000

08004cd8 <scalbn>:
 8004cd8:	e92d 48f0 	stmdb	sp!, {r4, r5, r6, r7, fp, lr}
 8004cdc:	4616      	mov	r6, r2
 8004cde:	f3c1 520a 	ubfx	r2, r1, #20, #11
 8004ce2:	4683      	mov	fp, r0
 8004ce4:	468c      	mov	ip, r1
 8004ce6:	460b      	mov	r3, r1
 8004ce8:	b982      	cbnz	r2, 8004d0c <scalbn+0x34>
 8004cea:	f021 4300 	bic.w	r3, r1, #2147483648	@ 0x80000000
 8004cee:	4303      	orrs	r3, r0
 8004cf0:	d039      	beq.n	8004d66 <scalbn+0x8e>
 8004cf2:	4b2f      	ldr	r3, [pc, #188]	@ (8004db0 <scalbn+0xd8>)
 8004cf4:	2200      	movs	r2, #0
 8004cf6:	f7fb fc9b 	bl	8000630 <__aeabi_dmul>
 8004cfa:	4b2e      	ldr	r3, [pc, #184]	@ (8004db4 <scalbn+0xdc>)
 8004cfc:	4683      	mov	fp, r0
 8004cfe:	429e      	cmp	r6, r3
 8004d00:	468c      	mov	ip, r1
 8004d02:	da0d      	bge.n	8004d20 <scalbn+0x48>
 8004d04:	a326      	add	r3, pc, #152	@ (adr r3, 8004da0 <scalbn+0xc8>)
 8004d06:	e9d3 2300 	ldrd	r2, r3, [r3]
 8004d0a:	e01b      	b.n	8004d44 <scalbn+0x6c>
 8004d0c:	f240 77ff 	movw	r7, #2047	@ 0x7ff
 8004d10:	42ba      	cmp	r2, r7
 8004d12:	d109      	bne.n	8004d28 <scalbn+0x50>
 8004d14:	4602      	mov	r2, r0
 8004d16:	f7fb fad5 	bl	80002c4 <__adddf3>
 8004d1a:	4683      	mov	fp, r0
 8004d1c:	468c      	mov	ip, r1
 8004d1e:	e022      	b.n	8004d66 <scalbn+0x8e>
 8004d20:	460b      	mov	r3, r1
 8004d22:	f3c1 520a 	ubfx	r2, r1, #20, #11
 8004d26:	3a36      	subs	r2, #54	@ 0x36
 8004d28:	f24c 3150 	movw	r1, #50000	@ 0xc350
 8004d2c:	428e      	cmp	r6, r1
 8004d2e:	dd0c      	ble.n	8004d4a <scalbn+0x72>
 8004d30:	a31d      	add	r3, pc, #116	@ (adr r3, 8004da8 <scalbn+0xd0>)
 8004d32:	e9d3 2300 	ldrd	r2, r3, [r3]
 8004d36:	461c      	mov	r4, r3
 8004d38:	ea4f 71dc 	mov.w	r1, ip, lsr #31
 8004d3c:	f361 74df 	bfi	r4, r1, #31, #1
 8004d40:	4621      	mov	r1, r4
 8004d42:	481d      	ldr	r0, [pc, #116]	@ (8004db8 <scalbn+0xe0>)
 8004d44:	f7fb fc74 	bl	8000630 <__aeabi_dmul>
 8004d48:	e7e7      	b.n	8004d1a <scalbn+0x42>
 8004d4a:	f240 71fe 	movw	r1, #2046	@ 0x7fe
 8004d4e:	4432      	add	r2, r6
 8004d50:	428a      	cmp	r2, r1
 8004d52:	dced      	bgt.n	8004d30 <scalbn+0x58>
 8004d54:	2a00      	cmp	r2, #0
 8004d56:	dd0a      	ble.n	8004d6e <scalbn+0x96>
 8004d58:	f023 43ff 	bic.w	r3, r3, #2139095040	@ 0x7f800000
 8004d5c:	f423 03e0 	bic.w	r3, r3, #7340032	@ 0x700000
 8004d60:	ea43 5502 	orr.w	r5, r3, r2, lsl #20
 8004d64:	46ac      	mov	ip, r5
 8004d66:	4658      	mov	r0, fp
 8004d68:	4661      	mov	r1, ip
 8004d6a:	e8bd 88f0 	ldmia.w	sp!, {r4, r5, r6, r7, fp, pc}
 8004d6e:	f112 0f35 	cmn.w	r2, #53	@ 0x35
 8004d72:	da09      	bge.n	8004d88 <scalbn+0xb0>
 8004d74:	f00c 4300 	and.w	r3, ip, #2147483648	@ 0x80000000
 8004d78:	f043 71d2 	orr.w	r1, r3, #27525120	@ 0x1a40000
 8004d7c:	f441 31b7 	orr.w	r1, r1, #93696	@ 0x16e00
 8004d80:	480e      	ldr	r0, [pc, #56]	@ (8004dbc <scalbn+0xe4>)
 8004d82:	f041 011f 	orr.w	r1, r1, #31
 8004d86:	e7bd      	b.n	8004d04 <scalbn+0x2c>
 8004d88:	f023 43ff 	bic.w	r3, r3, #2139095040	@ 0x7f800000
 8004d8c:	3236      	adds	r2, #54	@ 0x36
 8004d8e:	f423 03e0 	bic.w	r3, r3, #7340032	@ 0x700000
 8004d92:	ea43 5502 	orr.w	r5, r3, r2, lsl #20
 8004d96:	4658      	mov	r0, fp
 8004d98:	4629      	mov	r1, r5
 8004d9a:	2200      	movs	r2, #0
 8004d9c:	4b08      	ldr	r3, [pc, #32]	@ (8004dc0 <scalbn+0xe8>)
 8004d9e:	e7d1      	b.n	8004d44 <scalbn+0x6c>
 8004da0:	c2f8f359 	.word	0xc2f8f359
 8004da4:	01a56e1f 	.word	0x01a56e1f
 8004da8:	8800759c 	.word	0x8800759c
 8004dac:	7e37e43c 	.word	0x7e37e43c
 8004db0:	43500000 	.word	0x43500000
 8004db4:	ffff3cb0 	.word	0xffff3cb0
 8004db8:	8800759c 	.word	0x8800759c
 8004dbc:	c2f8f359 	.word	0xc2f8f359
 8004dc0:	3c900000 	.word	0x3c900000
 8004dc4:	00000000 	.word	0x00000000

08004dc8 <floor>:
 8004dc8:	e92d 41f0 	stmdb	sp!, {r4, r5, r6, r7, r8, lr}
 8004dcc:	f3c1 570a 	ubfx	r7, r1, #20, #11
 8004dd0:	f2a7 36ff 	subw	r6, r7, #1023	@ 0x3ff
 8004dd4:	2e13      	cmp	r6, #19
 8004dd6:	4602      	mov	r2, r0
 8004dd8:	460b      	mov	r3, r1
 8004dda:	460c      	mov	r4, r1
 8004ddc:	4605      	mov	r5, r0
 8004dde:	4680      	mov	r8, r0
 8004de0:	dc35      	bgt.n	8004e4e <floor+0x86>
 8004de2:	2e00      	cmp	r6, #0
 8004de4:	da17      	bge.n	8004e16 <floor+0x4e>
 8004de6:	a334      	add	r3, pc, #208	@ (adr r3, 8004eb8 <floor+0xf0>)
 8004de8:	e9d3 2300 	ldrd	r2, r3, [r3]
 8004dec:	f7fb fa6a 	bl	80002c4 <__adddf3>
 8004df0:	2200      	movs	r2, #0
 8004df2:	2300      	movs	r3, #0
 8004df4:	f7fb feac 	bl	8000b50 <__aeabi_dcmpgt>
 8004df8:	b150      	cbz	r0, 8004e10 <floor+0x48>
 8004dfa:	2c00      	cmp	r4, #0
 8004dfc:	da57      	bge.n	8004eae <floor+0xe6>
 8004dfe:	f024 4400 	bic.w	r4, r4, #2147483648	@ 0x80000000
 8004e02:	432c      	orrs	r4, r5
 8004e04:	2500      	movs	r5, #0
 8004e06:	42ac      	cmp	r4, r5
 8004e08:	4c2d      	ldr	r4, [pc, #180]	@ (8004ec0 <floor+0xf8>)
 8004e0a:	bf08      	it	eq
 8004e0c:	f04f 4400 	moveq.w	r4, #2147483648	@ 0x80000000
 8004e10:	4623      	mov	r3, r4
 8004e12:	462a      	mov	r2, r5
 8004e14:	e024      	b.n	8004e60 <floor+0x98>
 8004e16:	4f2b      	ldr	r7, [pc, #172]	@ (8004ec4 <floor+0xfc>)
 8004e18:	4137      	asrs	r7, r6
 8004e1a:	ea01 0c07 	and.w	ip, r1, r7
 8004e1e:	ea5c 0c00 	orrs.w	ip, ip, r0
 8004e22:	d01d      	beq.n	8004e60 <floor+0x98>
 8004e24:	a324      	add	r3, pc, #144	@ (adr r3, 8004eb8 <floor+0xf0>)
 8004e26:	e9d3 2300 	ldrd	r2, r3, [r3]
 8004e2a:	f7fb fa4b 	bl	80002c4 <__adddf3>
 8004e2e:	2200      	movs	r2, #0
 8004e30:	2300      	movs	r3, #0
 8004e32:	f7fb fe8d 	bl	8000b50 <__aeabi_dcmpgt>
 8004e36:	2800      	cmp	r0, #0
 8004e38:	d0ea      	beq.n	8004e10 <floor+0x48>
 8004e3a:	2c00      	cmp	r4, #0
 8004e3c:	bfbe      	ittt	lt
 8004e3e:	f44f 1380 	movlt.w	r3, #1048576	@ 0x100000
 8004e42:	4133      	asrlt	r3, r6
 8004e44:	18e4      	addlt	r4, r4, r3
 8004e46:	2500      	movs	r5, #0
 8004e48:	ea24 0407 	bic.w	r4, r4, r7
 8004e4c:	e7e0      	b.n	8004e10 <floor+0x48>
 8004e4e:	2e33      	cmp	r6, #51	@ 0x33
 8004e50:	dd0a      	ble.n	8004e68 <floor+0xa0>
 8004e52:	f5b6 6f80 	cmp.w	r6, #1024	@ 0x400
 8004e56:	d103      	bne.n	8004e60 <floor+0x98>
 8004e58:	f7fb fa34 	bl	80002c4 <__adddf3>
 8004e5c:	4602      	mov	r2, r0
 8004e5e:	460b      	mov	r3, r1
 8004e60:	4610      	mov	r0, r2
 8004e62:	4619      	mov	r1, r3
 8004e64:	e8bd 81f0 	ldmia.w	sp!, {r4, r5, r6, r7, r8, pc}
 8004e68:	f04f 3cff 	mov.w	ip, #4294967295
 8004e6c:	f2a7 4713 	subw	r7, r7, #1043	@ 0x413
 8004e70:	fa2c f707 	lsr.w	r7, ip, r7
 8004e74:	4207      	tst	r7, r0
 8004e76:	d0f3      	beq.n	8004e60 <floor+0x98>
 8004e78:	a30f      	add	r3, pc, #60	@ (adr r3, 8004eb8 <floor+0xf0>)
 8004e7a:	e9d3 2300 	ldrd	r2, r3, [r3]
 8004e7e:	f7fb fa21 	bl	80002c4 <__adddf3>
 8004e82:	2200      	movs	r2, #0
 8004e84:	2300      	movs	r3, #0
 8004e86:	f7fb fe63 	bl	8000b50 <__aeabi_dcmpgt>
 8004e8a:	2800      	cmp	r0, #0
 8004e8c:	d0c0      	beq.n	8004e10 <floor+0x48>
 8004e8e:	2c00      	cmp	r4, #0
 8004e90:	da0a      	bge.n	8004ea8 <floor+0xe0>
 8004e92:	2e14      	cmp	r6, #20
 8004e94:	d101      	bne.n	8004e9a <floor+0xd2>
 8004e96:	3401      	adds	r4, #1
 8004e98:	e006      	b.n	8004ea8 <floor+0xe0>
 8004e9a:	2301      	movs	r3, #1
 8004e9c:	f1c6 0634 	rsb	r6, r6, #52	@ 0x34
 8004ea0:	40b3      	lsls	r3, r6
 8004ea2:	441d      	add	r5, r3
 8004ea4:	4545      	cmp	r5, r8
 8004ea6:	d3f6      	bcc.n	8004e96 <floor+0xce>
 8004ea8:	ea25 0507 	bic.w	r5, r5, r7
 8004eac:	e7b0      	b.n	8004e10 <floor+0x48>
 8004eae:	2500      	movs	r5, #0
 8004eb0:	462c      	mov	r4, r5
 8004eb2:	e7ad      	b.n	8004e10 <floor+0x48>
 8004eb4:	f3af 8000 	nop.w
 8004eb8:	8800759c 	.word	0x8800759c
 8004ebc:	7e37e43c 	.word	0x7e37e43c
 8004ec0:	bff00000 	.word	0xbff00000
 8004ec4:	000fffff 	.word	0x000fffff

08004ec8 <_init>:
 8004ec8:	b5f8      	push	{r3, r4, r5, r6, r7, lr}
 8004eca:	bf00      	nop
 8004ecc:	bcf8      	pop	{r3, r4, r5, r6, r7}
 8004ece:	bc08      	pop	{r3}
 8004ed0:	469e      	mov	lr, r3
 8004ed2:	4770      	bx	lr

08004ed4 <_fini>:
 8004ed4:	b5f8      	push	{r3, r4, r5, r6, r7, lr}
 8004ed6:	bf00      	nop
 8004ed8:	bcf8      	pop	{r3, r4, r5, r6, r7}
 8004eda:	bc08      	pop	{r3}
 8004edc:	469e      	mov	lr, r3
 8004ede:	4770      	bx	lr
